ARM GAS  C:\Users\badea\AppData\Local\Temp\cc3YEltE.s 			page 1


   1              		.syntax unified
   2              		.cpu cortex-m3
   3              		.fpu softvfp
   4              		.eabi_attribute 20, 1
   5              		.eabi_attribute 21, 1
   6              		.eabi_attribute 23, 3
   7              		.eabi_attribute 24, 1
   8              		.eabi_attribute 25, 1
   9              		.eabi_attribute 26, 1
  10              		.eabi_attribute 30, 6
  11              		.eabi_attribute 34, 1
  12              		.eabi_attribute 18, 4
  13              		.thumb
  14              		.syntax unified
  15              		.file	"CAN.c"
  16              		.text
  17              	.Ltext0:
  18              		.cfi_sections	.debug_frame
  19              		.global	CAN_initVar
  20              		.bss
  21              		.type	CAN_initVar, %object
  22              		.size	CAN_initVar, 1
  23              	CAN_initVar:
  24 0000 00       		.space	1
  25              		.section	.text.CAN_RxTxBuffersConfig,"ax",%progbits
  26              		.align	2
  27              		.global	CAN_RxTxBuffersConfig
  28              		.thumb
  29              		.thumb_func
  30              		.type	CAN_RxTxBuffersConfig, %function
  31              	CAN_RxTxBuffersConfig:
  32              	.LFB0:
  33              		.file 1 "Generated_Source\\PSoC5\\CAN.c"
   1:Generated_Source\PSoC5/CAN.c **** /*******************************************************************************
   2:Generated_Source\PSoC5/CAN.c **** * File Name: CAN.c
   3:Generated_Source\PSoC5/CAN.c **** * Version 3.0
   4:Generated_Source\PSoC5/CAN.c **** *
   5:Generated_Source\PSoC5/CAN.c **** * Description:
   6:Generated_Source\PSoC5/CAN.c **** *  The CAN Component provides functionality of Control Area Network.
   7:Generated_Source\PSoC5/CAN.c **** *  The two types of mailbox configuration available are "Full" and "Basic".
   8:Generated_Source\PSoC5/CAN.c **** *
   9:Generated_Source\PSoC5/CAN.c **** * Note:
  10:Generated_Source\PSoC5/CAN.c **** *  The CAN configuration is put as constant to ROM and can be changed
  11:Generated_Source\PSoC5/CAN.c **** *  only directly by the registers written by the user.
  12:Generated_Source\PSoC5/CAN.c **** *
  13:Generated_Source\PSoC5/CAN.c **** ********************************************************************************
  14:Generated_Source\PSoC5/CAN.c **** * Copyright 2008-2015, Cypress Semiconductor Corporation.  All rights reserved.
  15:Generated_Source\PSoC5/CAN.c **** * You may use this file only in accordance with the license, terms, conditions,
  16:Generated_Source\PSoC5/CAN.c **** * disclaimers, and limitations in the end user license agreement accompanying
  17:Generated_Source\PSoC5/CAN.c **** * the software package with which this file was provided.
  18:Generated_Source\PSoC5/CAN.c **** *******************************************************************************/
  19:Generated_Source\PSoC5/CAN.c **** 
  20:Generated_Source\PSoC5/CAN.c **** #include "CAN.h"
  21:Generated_Source\PSoC5/CAN.c **** 
  22:Generated_Source\PSoC5/CAN.c **** uint8 CAN_initVar = 0u;
  23:Generated_Source\PSoC5/CAN.c **** 
  24:Generated_Source\PSoC5/CAN.c **** 
ARM GAS  C:\Users\badea\AppData\Local\Temp\cc3YEltE.s 			page 2


  25:Generated_Source\PSoC5/CAN.c **** /*******************************************************************************
  26:Generated_Source\PSoC5/CAN.c **** * FUNCTION NAME:   CAN_RxTxBuffersConfig
  27:Generated_Source\PSoC5/CAN.c **** ********************************************************************************
  28:Generated_Source\PSoC5/CAN.c **** *
  29:Generated_Source\PSoC5/CAN.c **** * Summary:
  30:Generated_Source\PSoC5/CAN.c **** *  Inits/Restores default CAN Rx and Tx Buffers control registers configuration
  31:Generated_Source\PSoC5/CAN.c **** *  provided by the customizer.
  32:Generated_Source\PSoC5/CAN.c **** *
  33:Generated_Source\PSoC5/CAN.c **** * Parameters:
  34:Generated_Source\PSoC5/CAN.c **** *  None.
  35:Generated_Source\PSoC5/CAN.c **** *
  36:Generated_Source\PSoC5/CAN.c **** * Return:
  37:Generated_Source\PSoC5/CAN.c **** *  The indication whether the configuration has been accepted or rejected.
  38:Generated_Source\PSoC5/CAN.c **** *   Define                             Description
  39:Generated_Source\PSoC5/CAN.c **** *    CYRET_SUCCESS                      The function passed successfully
  40:Generated_Source\PSoC5/CAN.c **** *    CAN_FAIL              The function failed
  41:Generated_Source\PSoC5/CAN.c **** *
  42:Generated_Source\PSoC5/CAN.c **** * Side Effects:
  43:Generated_Source\PSoC5/CAN.c **** *  All the Rx and Tx Buffers control registers will be reset to their initial
  44:Generated_Source\PSoC5/CAN.c **** *  values.
  45:Generated_Source\PSoC5/CAN.c **** *
  46:Generated_Source\PSoC5/CAN.c **** *******************************************************************************/
  47:Generated_Source\PSoC5/CAN.c **** uint8 CAN_RxTxBuffersConfig(void) 
  48:Generated_Source\PSoC5/CAN.c **** {
  34              		.loc 1 48 0
  35              		.cfi_startproc
  36              		@ args = 0, pretend = 0, frame = 8
  37              		@ frame_needed = 1, uses_anonymous_args = 0
  38 0000 80B5     		push	{r7, lr}
  39              		.cfi_def_cfa_offset 8
  40              		.cfi_offset 7, -8
  41              		.cfi_offset 14, -4
  42 0002 82B0     		sub	sp, sp, #8
  43              		.cfi_def_cfa_offset 16
  44 0004 00AF     		add	r7, sp, #0
  45              		.cfi_def_cfa_register 7
  49:Generated_Source\PSoC5/CAN.c ****     /* Initial values of CAN RX and TX registers */
  50:Generated_Source\PSoC5/CAN.c ****     static const CAN_RX_CFG CYCODE CAN_RXConfigStruct[] =
  51:Generated_Source\PSoC5/CAN.c ****     {
  52:Generated_Source\PSoC5/CAN.c ****         { 0u, 0x28u, 0x1FFFF9u, 0x7D000000u },
  53:Generated_Source\PSoC5/CAN.c ****         { 1u, 0x0u, 0x0u, 0x0u },
  54:Generated_Source\PSoC5/CAN.c ****         { 2u, 0x0u, 0x0u, 0x0u },
  55:Generated_Source\PSoC5/CAN.c ****         { 3u, 0x0u, 0x0u, 0x0u },
  56:Generated_Source\PSoC5/CAN.c ****         { 4u, 0x0u, 0x0u, 0x0u },
  57:Generated_Source\PSoC5/CAN.c ****         { 5u, 0x0u, 0x0u, 0x0u },
  58:Generated_Source\PSoC5/CAN.c ****         { 6u, 0x0u, 0x0u, 0x0u },
  59:Generated_Source\PSoC5/CAN.c ****         { 7u, 0x0u, 0x0u, 0x0u },
  60:Generated_Source\PSoC5/CAN.c ****         { 8u, 0x0u, 0x0u, 0x0u },
  61:Generated_Source\PSoC5/CAN.c ****         { 9u, 0x0u, 0x0u, 0x0u },
  62:Generated_Source\PSoC5/CAN.c ****         { 10u, 0x0u, 0x0u, 0x0u },
  63:Generated_Source\PSoC5/CAN.c ****         { 11u, 0x0u, 0x0u, 0x0u },
  64:Generated_Source\PSoC5/CAN.c ****         { 12u, 0x0u, 0x0u, 0x0u },
  65:Generated_Source\PSoC5/CAN.c ****         { 13u, 0x0u, 0x0u, 0x0u },
  66:Generated_Source\PSoC5/CAN.c ****         { 14u, 0x0u, 0x0u, 0x0u },
  67:Generated_Source\PSoC5/CAN.c ****         { 15u, 0x0u, 0x0u, 0x0u }
  68:Generated_Source\PSoC5/CAN.c ****     };
  69:Generated_Source\PSoC5/CAN.c **** 
ARM GAS  C:\Users\badea\AppData\Local\Temp\cc3YEltE.s 			page 3


  70:Generated_Source\PSoC5/CAN.c ****     static const CAN_TX_CFG CYCODE CAN_TXConfigStruct[] =
  71:Generated_Source\PSoC5/CAN.c ****     {
  72:Generated_Source\PSoC5/CAN.c ****         { 0u, 0x40000u, 0x19E00000u },
  73:Generated_Source\PSoC5/CAN.c ****         { 1u, 0x0u, 0x0u },
  74:Generated_Source\PSoC5/CAN.c ****         { 2u, 0x0u, 0x0u },
  75:Generated_Source\PSoC5/CAN.c ****         { 3u, 0x0u, 0x0u },
  76:Generated_Source\PSoC5/CAN.c ****         { 4u, 0x0u, 0x0u },
  77:Generated_Source\PSoC5/CAN.c ****         { 5u, 0x0u, 0x0u },
  78:Generated_Source\PSoC5/CAN.c ****         { 6u, 0x0u, 0x0u },
  79:Generated_Source\PSoC5/CAN.c ****         { 7u, 0x0u, 0x0u }
  80:Generated_Source\PSoC5/CAN.c ****     };
  81:Generated_Source\PSoC5/CAN.c **** 
  82:Generated_Source\PSoC5/CAN.c ****     uint8 result = CYRET_SUCCESS;
  46              		.loc 1 82 0
  47 0006 0023     		movs	r3, #0
  48 0008 FB71     		strb	r3, [r7, #7]
  83:Generated_Source\PSoC5/CAN.c ****     uint8 i;
  84:Generated_Source\PSoC5/CAN.c **** 
  85:Generated_Source\PSoC5/CAN.c ****     /* Initialize TX mailboxes */
  86:Generated_Source\PSoC5/CAN.c ****     for (i = 0u; i < CAN_NUMBER_OF_TX_MAILBOXES; i++)
  49              		.loc 1 86 0
  50 000a 0023     		movs	r3, #0
  51 000c BB71     		strb	r3, [r7, #6]
  52 000e 12E0     		b	.L2
  53              	.L5:
  87:Generated_Source\PSoC5/CAN.c ****     {
  88:Generated_Source\PSoC5/CAN.c ****         if (CAN_TxBufConfig((const CAN_TX_CFG *)
  89:Generated_Source\PSoC5/CAN.c ****             (&CAN_TXConfigStruct[i])) != CYRET_SUCCESS)
  54              		.loc 1 89 0
  55 0010 BA79     		ldrb	r2, [r7, #6]	@ zero_extendqisi2
  88:Generated_Source\PSoC5/CAN.c ****             (&CAN_TXConfigStruct[i])) != CYRET_SUCCESS)
  56              		.loc 1 88 0
  57 0012 1346     		mov	r3, r2
  58 0014 5B00     		lsls	r3, r3, #1
  59 0016 1344     		add	r3, r3, r2
  60 0018 9B00     		lsls	r3, r3, #2
  61 001a 174A     		ldr	r2, .L11
  62 001c 1344     		add	r3, r3, r2
  63 001e 1846     		mov	r0, r3
  64 0020 FFF7FEFF 		bl	CAN_TxBufConfig
  65 0024 0346     		mov	r3, r0
  66 0026 002B     		cmp	r3, #0
  67 0028 02D0     		beq	.L3
  90:Generated_Source\PSoC5/CAN.c ****         {
  91:Generated_Source\PSoC5/CAN.c ****             result = CAN_FAIL;
  68              		.loc 1 91 0
  69 002a 0123     		movs	r3, #1
  70 002c FB71     		strb	r3, [r7, #7]
  92:Generated_Source\PSoC5/CAN.c ****             break;
  71              		.loc 1 92 0
  72 002e 05E0     		b	.L4
  73              	.L3:
  86:Generated_Source\PSoC5/CAN.c ****     {
  74              		.loc 1 86 0 discriminator 2
  75 0030 BB79     		ldrb	r3, [r7, #6]	@ zero_extendqisi2
  76 0032 0133     		adds	r3, r3, #1
  77 0034 BB71     		strb	r3, [r7, #6]
ARM GAS  C:\Users\badea\AppData\Local\Temp\cc3YEltE.s 			page 4


  78              	.L2:
  86:Generated_Source\PSoC5/CAN.c ****     {
  79              		.loc 1 86 0 is_stmt 0 discriminator 1
  80 0036 BB79     		ldrb	r3, [r7, #6]	@ zero_extendqisi2
  81 0038 072B     		cmp	r3, #7
  82 003a E9D9     		bls	.L5
  83              	.L4:
  93:Generated_Source\PSoC5/CAN.c ****         }
  94:Generated_Source\PSoC5/CAN.c ****     }
  95:Generated_Source\PSoC5/CAN.c **** 
  96:Generated_Source\PSoC5/CAN.c ****     if (result == CYRET_SUCCESS)
  84              		.loc 1 96 0 is_stmt 1
  85 003c FB79     		ldrb	r3, [r7, #7]	@ zero_extendqisi2
  86 003e 002B     		cmp	r3, #0
  87 0040 15D1     		bne	.L6
  97:Generated_Source\PSoC5/CAN.c ****     {
  98:Generated_Source\PSoC5/CAN.c ****         /* Initialize RX mailboxes */
  99:Generated_Source\PSoC5/CAN.c ****         for (i = 0u; i < CAN_NUMBER_OF_RX_MAILBOXES; i++)
  88              		.loc 1 99 0
  89 0042 0023     		movs	r3, #0
  90 0044 BB71     		strb	r3, [r7, #6]
  91 0046 0FE0     		b	.L7
  92              	.L9:
 100:Generated_Source\PSoC5/CAN.c ****         {
 101:Generated_Source\PSoC5/CAN.c ****             if (CAN_RxBufConfig((const CAN_RX_CFG *)
 102:Generated_Source\PSoC5/CAN.c ****                 (&CAN_RXConfigStruct[i])) != CYRET_SUCCESS)
  93              		.loc 1 102 0
  94 0048 BB79     		ldrb	r3, [r7, #6]	@ zero_extendqisi2
 101:Generated_Source\PSoC5/CAN.c ****                 (&CAN_RXConfigStruct[i])) != CYRET_SUCCESS)
  95              		.loc 1 101 0
  96 004a 1B01     		lsls	r3, r3, #4
  97 004c 0B4A     		ldr	r2, .L11+4
  98 004e 1344     		add	r3, r3, r2
  99 0050 1846     		mov	r0, r3
 100 0052 FFF7FEFF 		bl	CAN_RxBufConfig
 101 0056 0346     		mov	r3, r0
 102 0058 002B     		cmp	r3, #0
 103 005a 02D0     		beq	.L8
 103:Generated_Source\PSoC5/CAN.c ****             {
 104:Generated_Source\PSoC5/CAN.c ****                 result = CAN_FAIL;
 104              		.loc 1 104 0
 105 005c 0123     		movs	r3, #1
 106 005e FB71     		strb	r3, [r7, #7]
 105:Generated_Source\PSoC5/CAN.c ****                 break;
 107              		.loc 1 105 0
 108 0060 05E0     		b	.L6
 109              	.L8:
  99:Generated_Source\PSoC5/CAN.c ****         {
 110              		.loc 1 99 0 discriminator 2
 111 0062 BB79     		ldrb	r3, [r7, #6]	@ zero_extendqisi2
 112 0064 0133     		adds	r3, r3, #1
 113 0066 BB71     		strb	r3, [r7, #6]
 114              	.L7:
  99:Generated_Source\PSoC5/CAN.c ****         {
 115              		.loc 1 99 0 is_stmt 0 discriminator 1
 116 0068 BB79     		ldrb	r3, [r7, #6]	@ zero_extendqisi2
 117 006a 0F2B     		cmp	r3, #15
ARM GAS  C:\Users\badea\AppData\Local\Temp\cc3YEltE.s 			page 5


 118 006c ECD9     		bls	.L9
 119              	.L6:
 106:Generated_Source\PSoC5/CAN.c ****             }
 107:Generated_Source\PSoC5/CAN.c ****         }
 108:Generated_Source\PSoC5/CAN.c ****     }
 109:Generated_Source\PSoC5/CAN.c **** 
 110:Generated_Source\PSoC5/CAN.c ****     return (result);
 120              		.loc 1 110 0 is_stmt 1
 121 006e FB79     		ldrb	r3, [r7, #7]	@ zero_extendqisi2
 111:Generated_Source\PSoC5/CAN.c **** }
 122              		.loc 1 111 0
 123 0070 1846     		mov	r0, r3
 124 0072 0837     		adds	r7, r7, #8
 125              		.cfi_def_cfa_offset 8
 126 0074 BD46     		mov	sp, r7
 127              		.cfi_def_cfa_register 13
 128              		@ sp needed
 129 0076 80BD     		pop	{r7, pc}
 130              	.L12:
 131              		.align	2
 132              	.L11:
 133 0078 00000000 		.word	CAN_TXConfigStruct.5045
 134 007c 60000000 		.word	CAN_RXConfigStruct.5044
 135              		.cfi_endproc
 136              	.LFE0:
 137              		.size	CAN_RxTxBuffersConfig, .-CAN_RxTxBuffersConfig
 138              		.section	.text.CAN_Init,"ax",%progbits
 139              		.align	2
 140              		.global	CAN_Init
 141              		.thumb
 142              		.thumb_func
 143              		.type	CAN_Init, %function
 144              	CAN_Init:
 145              	.LFB1:
 112:Generated_Source\PSoC5/CAN.c **** 
 113:Generated_Source\PSoC5/CAN.c **** 
 114:Generated_Source\PSoC5/CAN.c **** /*******************************************************************************
 115:Generated_Source\PSoC5/CAN.c **** * FUNCTION NAME:   CAN_Init
 116:Generated_Source\PSoC5/CAN.c **** ********************************************************************************
 117:Generated_Source\PSoC5/CAN.c **** *
 118:Generated_Source\PSoC5/CAN.c **** * Summary:
 119:Generated_Source\PSoC5/CAN.c **** *  Inits/Restores default CAN configuration provided by the customizer.
 120:Generated_Source\PSoC5/CAN.c **** *
 121:Generated_Source\PSoC5/CAN.c **** * Parameters:
 122:Generated_Source\PSoC5/CAN.c **** *  None.
 123:Generated_Source\PSoC5/CAN.c **** *
 124:Generated_Source\PSoC5/CAN.c **** * Return:
 125:Generated_Source\PSoC5/CAN.c **** *  The indication whether the configuration has been accepted or rejected.
 126:Generated_Source\PSoC5/CAN.c **** *   Define                             Description
 127:Generated_Source\PSoC5/CAN.c **** *    CYRET_SUCCESS                      The function passed successfully
 128:Generated_Source\PSoC5/CAN.c **** *    CAN_FAIL              The function failed
 129:Generated_Source\PSoC5/CAN.c **** *
 130:Generated_Source\PSoC5/CAN.c **** * Side Effects:
 131:Generated_Source\PSoC5/CAN.c **** *  All the registers will be reset to their initial values. This will
 132:Generated_Source\PSoC5/CAN.c **** *  re-initialize the component with the following exceptions - it will not clear
 133:Generated_Source\PSoC5/CAN.c **** *  data from the mailboxes.
 134:Generated_Source\PSoC5/CAN.c **** *  Enable power to the CAN Core.
ARM GAS  C:\Users\badea\AppData\Local\Temp\cc3YEltE.s 			page 6


 135:Generated_Source\PSoC5/CAN.c **** *
 136:Generated_Source\PSoC5/CAN.c **** *******************************************************************************/
 137:Generated_Source\PSoC5/CAN.c **** uint8 CAN_Init(void) 
 138:Generated_Source\PSoC5/CAN.c **** {
 146              		.loc 1 138 0
 147              		.cfi_startproc
 148              		@ args = 0, pretend = 0, frame = 8
 149              		@ frame_needed = 1, uses_anonymous_args = 0
 150 0000 80B5     		push	{r7, lr}
 151              		.cfi_def_cfa_offset 8
 152              		.cfi_offset 7, -8
 153              		.cfi_offset 14, -4
 154 0002 82B0     		sub	sp, sp, #8
 155              		.cfi_def_cfa_offset 16
 156 0004 00AF     		add	r7, sp, #0
 157              		.cfi_def_cfa_register 7
 139:Generated_Source\PSoC5/CAN.c ****     uint32 timeout = CAN_MODE_STATE_STOP_TIMEOUT;
 158              		.loc 1 139 0
 159 0006 4FF4F053 		mov	r3, #7680
 160 000a 7B60     		str	r3, [r7, #4]
 140:Generated_Source\PSoC5/CAN.c ****     uint8 result = CAN_FAIL;
 161              		.loc 1 140 0
 162 000c 0123     		movs	r3, #1
 163 000e FB70     		strb	r3, [r7, #3]
 141:Generated_Source\PSoC5/CAN.c ****     uint8 localResult = CAN_FAIL;
 164              		.loc 1 141 0
 165 0010 0123     		movs	r3, #1
 166 0012 BB70     		strb	r3, [r7, #2]
 142:Generated_Source\PSoC5/CAN.c **** 
 143:Generated_Source\PSoC5/CAN.c ****     #if (CY_PSOC3 || CY_PSOC5)
 144:Generated_Source\PSoC5/CAN.c ****         uint8 enableInterrupts;
 145:Generated_Source\PSoC5/CAN.c **** 
 146:Generated_Source\PSoC5/CAN.c ****         enableInterrupts = CyEnterCriticalSection();
 167              		.loc 1 146 0
 168 0014 FFF7FEFF 		bl	CyEnterCriticalSection
 169 0018 0346     		mov	r3, r0
 170 001a 7B70     		strb	r3, [r7, #1]
 147:Generated_Source\PSoC5/CAN.c ****         /* Enable CAN block in Active mode */
 148:Generated_Source\PSoC5/CAN.c ****         CAN_PM_ACT_CFG_REG |= CAN_ACT_PWR_EN;
 171              		.loc 1 148 0
 172 001c 3D4A     		ldr	r2, .L20
 173 001e 3D4B     		ldr	r3, .L20
 174 0020 1B78     		ldrb	r3, [r3]
 175 0022 DBB2     		uxtb	r3, r3
 176 0024 43F00103 		orr	r3, r3, #1
 177 0028 DBB2     		uxtb	r3, r3
 178 002a 1370     		strb	r3, [r2]
 149:Generated_Source\PSoC5/CAN.c ****         /* Enable CAN block in Alternate Active (Standby) mode */
 150:Generated_Source\PSoC5/CAN.c ****         CAN_PM_STBY_CFG_REG |= CAN_STBY_PWR_EN;
 179              		.loc 1 150 0
 180 002c 3A4A     		ldr	r2, .L20+4
 181 002e 3A4B     		ldr	r3, .L20+4
 182 0030 1B78     		ldrb	r3, [r3]
 183 0032 DBB2     		uxtb	r3, r3
 184 0034 43F00103 		orr	r3, r3, #1
 185 0038 DBB2     		uxtb	r3, r3
 186 003a 1370     		strb	r3, [r2]
ARM GAS  C:\Users\badea\AppData\Local\Temp\cc3YEltE.s 			page 7


 151:Generated_Source\PSoC5/CAN.c ****         CyExitCriticalSection(enableInterrupts);
 187              		.loc 1 151 0
 188 003c 7B78     		ldrb	r3, [r7, #1]	@ zero_extendqisi2
 189 003e 1846     		mov	r0, r3
 190 0040 FFF7FEFF 		bl	CyExitCriticalSection
 152:Generated_Source\PSoC5/CAN.c **** 
 153:Generated_Source\PSoC5/CAN.c ****         /* Sets CAN controller to stop mode */
 154:Generated_Source\PSoC5/CAN.c ****         CAN_CMD_REG.byte[0u] &= (uint8) (~CAN_MODE_MASK);
 191              		.loc 1 154 0
 192 0044 354A     		ldr	r2, .L20+8
 193 0046 354B     		ldr	r3, .L20+8
 194 0048 1B78     		ldrb	r3, [r3]
 195 004a DBB2     		uxtb	r3, r3
 196 004c 23F00103 		bic	r3, r3, #1
 197 0050 DBB2     		uxtb	r3, r3
 198 0052 1370     		strb	r3, [r2]
 155:Generated_Source\PSoC5/CAN.c **** 
 156:Generated_Source\PSoC5/CAN.c ****         /* Timeout for CAN state machine to switch mode to Stop */
 157:Generated_Source\PSoC5/CAN.c ****         while ((timeout != 0u) && ((CAN_CMD_REG.byte[0u] & CAN_MODE_MASK) != 0u))
 199              		.loc 1 157 0
 200 0054 02E0     		b	.L14
 201              	.L16:
 158:Generated_Source\PSoC5/CAN.c ****         {
 159:Generated_Source\PSoC5/CAN.c ****             timeout--;
 202              		.loc 1 159 0
 203 0056 7B68     		ldr	r3, [r7, #4]
 204 0058 013B     		subs	r3, r3, #1
 205 005a 7B60     		str	r3, [r7, #4]
 206              	.L14:
 157:Generated_Source\PSoC5/CAN.c ****         {
 207              		.loc 1 157 0
 208 005c 7B68     		ldr	r3, [r7, #4]
 209 005e 002B     		cmp	r3, #0
 210 0060 06D0     		beq	.L15
 157:Generated_Source\PSoC5/CAN.c ****         {
 211              		.loc 1 157 0 is_stmt 0 discriminator 1
 212 0062 2E4B     		ldr	r3, .L20+8
 213 0064 1B78     		ldrb	r3, [r3]
 214 0066 DBB2     		uxtb	r3, r3
 215 0068 03F00103 		and	r3, r3, #1
 216 006c 002B     		cmp	r3, #0
 217 006e F2D1     		bne	.L16
 218              	.L15:
 160:Generated_Source\PSoC5/CAN.c ****         }
 161:Generated_Source\PSoC5/CAN.c ****     #else  /* CY_PSOC4 */
 162:Generated_Source\PSoC5/CAN.c ****         /* Enable CAN IP Block */
 163:Generated_Source\PSoC5/CAN.c ****         CAN_CNTL_REG = CAN_IP_ENABLE;
 164:Generated_Source\PSoC5/CAN.c **** 
 165:Generated_Source\PSoC5/CAN.c ****         /* Sets CAN controller to stop mode */
 166:Generated_Source\PSoC5/CAN.c ****         CAN_CMD_REG &= (uint32) (~((uint32) CAN_MODE_MASK));
 167:Generated_Source\PSoC5/CAN.c **** 
 168:Generated_Source\PSoC5/CAN.c ****         /* Timeout for CAN state machine to switch mode to Stop */
 169:Generated_Source\PSoC5/CAN.c ****         while ((timeout != 0u) && ((CAN_CMD_REG & CAN_MODE_MASK) != 0u))
 170:Generated_Source\PSoC5/CAN.c ****         {
 171:Generated_Source\PSoC5/CAN.c ****             timeout--;
 172:Generated_Source\PSoC5/CAN.c ****         }
 173:Generated_Source\PSoC5/CAN.c ****     #endif /* CY_PSOC3 || CY_PSOC5 */
ARM GAS  C:\Users\badea\AppData\Local\Temp\cc3YEltE.s 			page 8


 174:Generated_Source\PSoC5/CAN.c ****         if (timeout != 0u)
 219              		.loc 1 174 0 is_stmt 1
 220 0070 7B68     		ldr	r3, [r7, #4]
 221 0072 002B     		cmp	r3, #0
 222 0074 49D0     		beq	.L17
 175:Generated_Source\PSoC5/CAN.c ****         {
 176:Generated_Source\PSoC5/CAN.c ****             /* Disable Interrupt. */
 177:Generated_Source\PSoC5/CAN.c ****         CyIntDisable(CAN_ISR_NUMBER);
 223              		.loc 1 177 0
 224 0076 2A4B     		ldr	r3, .L20+12
 225 0078 4FF48032 		mov	r2, #65536
 226 007c 1A60     		str	r2, [r3]
 178:Generated_Source\PSoC5/CAN.c **** 
 179:Generated_Source\PSoC5/CAN.c ****         /* Set the ISR to point to the CAN_ISR Interrupt. */
 180:Generated_Source\PSoC5/CAN.c ****         (void) CyIntSetVector(CAN_ISR_NUMBER, & CAN_ISR);
 227              		.loc 1 180 0
 228 007e 2949     		ldr	r1, .L20+16
 229 0080 1020     		movs	r0, #16
 230 0082 FFF7FEFF 		bl	CyIntSetVector
 181:Generated_Source\PSoC5/CAN.c **** 
 182:Generated_Source\PSoC5/CAN.c ****         /* Set the priority. */
 183:Generated_Source\PSoC5/CAN.c ****         CyIntSetPriority(CAN_ISR_NUMBER, CAN_ISR_PRIORITY);
 231              		.loc 1 183 0
 232 0086 0721     		movs	r1, #7
 233 0088 1020     		movs	r0, #16
 234 008a FFF7FEFF 		bl	CyIntSetPriority
 184:Generated_Source\PSoC5/CAN.c **** 
 185:Generated_Source\PSoC5/CAN.c ****             if (CAN_SetPreScaler(CAN_BITRATE) == CYRET_SUCCESS)
 235              		.loc 1 185 0
 236 008e 0220     		movs	r0, #2
 237 0090 FFF7FEFF 		bl	CAN_SetPreScaler
 238 0094 0346     		mov	r3, r0
 239 0096 002B     		cmp	r3, #0
 240 0098 1CD1     		bne	.L18
 186:Generated_Source\PSoC5/CAN.c ****             {
 187:Generated_Source\PSoC5/CAN.c ****                 if (CAN_SetArbiter(CAN_ARBITER) == CYRET_SUCCESS)
 241              		.loc 1 187 0
 242 009a 0020     		movs	r0, #0
 243 009c FFF7FEFF 		bl	CAN_SetArbiter
 244 00a0 0346     		mov	r3, r0
 245 00a2 002B     		cmp	r3, #0
 246 00a4 16D1     		bne	.L18
 188:Generated_Source\PSoC5/CAN.c ****                 {
 189:Generated_Source\PSoC5/CAN.c ****                     #if (!(CY_PSOC3 || CY_PSOC5))
 190:Generated_Source\PSoC5/CAN.c ****                         if (CAN_SetSwapDataEndianness(CAN_SWAP_DATA_END) == CYRET_SUCCESS)
 191:Generated_Source\PSoC5/CAN.c ****                     #endif /* (!(CY_PSOC3 || CY_PSOC5)) */
 192:Generated_Source\PSoC5/CAN.c ****                         {
 193:Generated_Source\PSoC5/CAN.c ****                             if (CAN_SetTsegSample(CAN_CFG_REG_TSEG1,
 247              		.loc 1 193 0
 248 00a6 0023     		movs	r3, #0
 249 00a8 0322     		movs	r2, #3
 250 00aa 0421     		movs	r1, #4
 251 00ac 0920     		movs	r0, #9
 252 00ae FFF7FEFF 		bl	CAN_SetTsegSample
 253 00b2 0346     		mov	r3, r0
 254 00b4 002B     		cmp	r3, #0
 255 00b6 0DD1     		bne	.L18
ARM GAS  C:\Users\badea\AppData\Local\Temp\cc3YEltE.s 			page 9


 194:Generated_Source\PSoC5/CAN.c ****                                 CAN_CFG_REG_TSEG2, CAN_CFG_REG_SJW,
 195:Generated_Source\PSoC5/CAN.c ****                                 CAN_SAMPLING_MODE) == CYRET_SUCCESS)
 196:Generated_Source\PSoC5/CAN.c ****                             {
 197:Generated_Source\PSoC5/CAN.c ****                                 if (CAN_SetRestartType(CAN_RESET_TYPE) == CYRET_SUCCESS)
 256              		.loc 1 197 0
 257 00b8 0020     		movs	r0, #0
 258 00ba FFF7FEFF 		bl	CAN_SetRestartType
 259 00be 0346     		mov	r3, r0
 260 00c0 002B     		cmp	r3, #0
 261 00c2 07D1     		bne	.L18
 198:Generated_Source\PSoC5/CAN.c ****                                 {
 199:Generated_Source\PSoC5/CAN.c ****                                     if (CAN_SetEdgeMode(CAN_SYNC_EDGE) == CYRET_SUCCESS)
 262              		.loc 1 199 0
 263 00c4 0020     		movs	r0, #0
 264 00c6 FFF7FEFF 		bl	CAN_SetEdgeMode
 265 00ca 0346     		mov	r3, r0
 266 00cc 002B     		cmp	r3, #0
 267 00ce 01D1     		bne	.L18
 200:Generated_Source\PSoC5/CAN.c ****                                     {
 201:Generated_Source\PSoC5/CAN.c ****                                         localResult = CYRET_SUCCESS;
 268              		.loc 1 201 0
 269 00d0 0023     		movs	r3, #0
 270 00d2 BB70     		strb	r3, [r7, #2]
 271              	.L18:
 202:Generated_Source\PSoC5/CAN.c ****                                     }
 203:Generated_Source\PSoC5/CAN.c ****                                 }
 204:Generated_Source\PSoC5/CAN.c ****                             }
 205:Generated_Source\PSoC5/CAN.c ****                         }
 206:Generated_Source\PSoC5/CAN.c ****                 }
 207:Generated_Source\PSoC5/CAN.c ****             }
 208:Generated_Source\PSoC5/CAN.c **** 
 209:Generated_Source\PSoC5/CAN.c ****             if (localResult == CYRET_SUCCESS)
 272              		.loc 1 209 0
 273 00d4 BB78     		ldrb	r3, [r7, #2]	@ zero_extendqisi2
 274 00d6 002B     		cmp	r3, #0
 275 00d8 17D1     		bne	.L17
 210:Generated_Source\PSoC5/CAN.c ****             {
 211:Generated_Source\PSoC5/CAN.c ****                 if (CAN_RxTxBuffersConfig() == CYRET_SUCCESS)
 276              		.loc 1 211 0
 277 00da FFF7FEFF 		bl	CAN_RxTxBuffersConfig
 278 00de 0346     		mov	r3, r0
 279 00e0 002B     		cmp	r3, #0
 280 00e2 12D1     		bne	.L17
 212:Generated_Source\PSoC5/CAN.c ****                 {
 213:Generated_Source\PSoC5/CAN.c ****                     /* Write IRQ Mask */
 214:Generated_Source\PSoC5/CAN.c ****                     if (CAN_SetIrqMask(CAN_INIT_INTERRUPT_MASK) ==
 281              		.loc 1 214 0
 282 00e4 41F20100 		movw	r0, #4097
 283 00e8 FFF7FEFF 		bl	CAN_SetIrqMask
 284 00ec 0346     		mov	r3, r0
 285 00ee 002B     		cmp	r3, #0
 286 00f0 0BD1     		bne	.L17
 215:Generated_Source\PSoC5/CAN.c ****                         CYRET_SUCCESS)
 216:Generated_Source\PSoC5/CAN.c ****                     {
 217:Generated_Source\PSoC5/CAN.c ****                         /* Set CAN Operation Mode to Active mode always */
 218:Generated_Source\PSoC5/CAN.c ****                         #if (CY_PSOC3 || CY_PSOC5)
 219:Generated_Source\PSoC5/CAN.c ****                             CAN_CMD_REG.byte[0u] = CAN_INITIAL_MODE;
ARM GAS  C:\Users\badea\AppData\Local\Temp\cc3YEltE.s 			page 10


 287              		.loc 1 219 0
 288 00f2 0A4B     		ldr	r3, .L20+8
 289 00f4 0022     		movs	r2, #0
 290 00f6 1A70     		strb	r2, [r3]
 220:Generated_Source\PSoC5/CAN.c ****                             if ((CAN_CMD_REG.byte[0u] & CAN_MODE_MASK) == 0u)
 291              		.loc 1 220 0
 292 00f8 084B     		ldr	r3, .L20+8
 293 00fa 1B78     		ldrb	r3, [r3]
 294 00fc DBB2     		uxtb	r3, r3
 295 00fe 03F00103 		and	r3, r3, #1
 296 0102 002B     		cmp	r3, #0
 297 0104 01D1     		bne	.L17
 221:Generated_Source\PSoC5/CAN.c ****                         #else  /* CY_PSOC4 */
 222:Generated_Source\PSoC5/CAN.c ****                             CAN_CMD_REG &= (uint32) (~((uint32) CAN_OPMODE_FIELD_MASK));
 223:Generated_Source\PSoC5/CAN.c ****                             if ((CAN_CMD_REG & CAN_OPMODE_FIELD_MASK) == 0u)
 224:Generated_Source\PSoC5/CAN.c ****                         #endif /* CY_PSOC3 || CY_PSOC5 */
 225:Generated_Source\PSoC5/CAN.c ****                             {
 226:Generated_Source\PSoC5/CAN.c ****                                 result = CYRET_SUCCESS;
 298              		.loc 1 226 0
 299 0106 0023     		movs	r3, #0
 300 0108 FB70     		strb	r3, [r7, #3]
 301              	.L17:
 227:Generated_Source\PSoC5/CAN.c ****                             }
 228:Generated_Source\PSoC5/CAN.c ****                     }
 229:Generated_Source\PSoC5/CAN.c ****                 }
 230:Generated_Source\PSoC5/CAN.c ****             }
 231:Generated_Source\PSoC5/CAN.c ****         }
 232:Generated_Source\PSoC5/CAN.c **** 
 233:Generated_Source\PSoC5/CAN.c ****     return (result);
 302              		.loc 1 233 0
 303 010a FB78     		ldrb	r3, [r7, #3]	@ zero_extendqisi2
 234:Generated_Source\PSoC5/CAN.c **** }
 304              		.loc 1 234 0
 305 010c 1846     		mov	r0, r3
 306 010e 0837     		adds	r7, r7, #8
 307              		.cfi_def_cfa_offset 8
 308 0110 BD46     		mov	sp, r7
 309              		.cfi_def_cfa_register 13
 310              		@ sp needed
 311 0112 80BD     		pop	{r7, pc}
 312              	.L21:
 313              		.align	2
 314              	.L20:
 315 0114 A6430040 		.word	1073759142
 316 0118 B6430040 		.word	1073759158
 317 011c 10A00040 		.word	1073782800
 318 0120 80E100E0 		.word	-536813184
 319 0124 00000000 		.word	CAN_ISR
 320              		.cfi_endproc
 321              	.LFE1:
 322              		.size	CAN_Init, .-CAN_Init
 323              		.section	.text.CAN_Enable,"ax",%progbits
 324              		.align	2
 325              		.global	CAN_Enable
 326              		.thumb
 327              		.thumb_func
 328              		.type	CAN_Enable, %function
ARM GAS  C:\Users\badea\AppData\Local\Temp\cc3YEltE.s 			page 11


 329              	CAN_Enable:
 330              	.LFB2:
 235:Generated_Source\PSoC5/CAN.c **** 
 236:Generated_Source\PSoC5/CAN.c **** 
 237:Generated_Source\PSoC5/CAN.c **** /*******************************************************************************
 238:Generated_Source\PSoC5/CAN.c **** * Function Name: CAN_Enable
 239:Generated_Source\PSoC5/CAN.c **** ********************************************************************************
 240:Generated_Source\PSoC5/CAN.c **** *
 241:Generated_Source\PSoC5/CAN.c **** * Summary:
 242:Generated_Source\PSoC5/CAN.c **** *  This function enables the CAN Component and ISR of CAN Component.
 243:Generated_Source\PSoC5/CAN.c **** *
 244:Generated_Source\PSoC5/CAN.c **** * Parameters:
 245:Generated_Source\PSoC5/CAN.c **** *  None.
 246:Generated_Source\PSoC5/CAN.c **** *
 247:Generated_Source\PSoC5/CAN.c **** * Return:
 248:Generated_Source\PSoC5/CAN.c **** *  The indication whether the register is written and verified.
 249:Generated_Source\PSoC5/CAN.c **** *   Define                             Description
 250:Generated_Source\PSoC5/CAN.c **** *    CYRET_SUCCESS                      The function passed successfully
 251:Generated_Source\PSoC5/CAN.c **** *    CAN_FAIL              The function failed
 252:Generated_Source\PSoC5/CAN.c **** *
 253:Generated_Source\PSoC5/CAN.c **** *******************************************************************************/
 254:Generated_Source\PSoC5/CAN.c **** uint8 CAN_Enable(void) 
 255:Generated_Source\PSoC5/CAN.c **** {
 331              		.loc 1 255 0
 332              		.cfi_startproc
 333              		@ args = 0, pretend = 0, frame = 8
 334              		@ frame_needed = 1, uses_anonymous_args = 0
 335 0000 80B5     		push	{r7, lr}
 336              		.cfi_def_cfa_offset 8
 337              		.cfi_offset 7, -8
 338              		.cfi_offset 14, -4
 339 0002 82B0     		sub	sp, sp, #8
 340              		.cfi_def_cfa_offset 16
 341 0004 00AF     		add	r7, sp, #0
 342              		.cfi_def_cfa_register 7
 256:Generated_Source\PSoC5/CAN.c ****     uint32 timeout = CAN_MODE_STATE_RUN_TIMEOUT;
 343              		.loc 1 256 0
 344 0006 4FF41073 		mov	r3, #576
 345 000a 7B60     		str	r3, [r7, #4]
 257:Generated_Source\PSoC5/CAN.c ****     uint8 result = CAN_FAIL;
 346              		.loc 1 257 0
 347 000c 0123     		movs	r3, #1
 348 000e FB70     		strb	r3, [r7, #3]
 258:Generated_Source\PSoC5/CAN.c **** 
 259:Generated_Source\PSoC5/CAN.c ****     #if (CY_PSOC3 || CY_PSOC5)
 260:Generated_Source\PSoC5/CAN.c ****         uint8 enableInterrupts;
 261:Generated_Source\PSoC5/CAN.c **** 
 262:Generated_Source\PSoC5/CAN.c ****         enableInterrupts = CyEnterCriticalSection();
 349              		.loc 1 262 0
 350 0010 FFF7FEFF 		bl	CyEnterCriticalSection
 351 0014 0346     		mov	r3, r0
 352 0016 BB70     		strb	r3, [r7, #2]
 263:Generated_Source\PSoC5/CAN.c **** 
 264:Generated_Source\PSoC5/CAN.c ****         /* Enable CAN block in Active mode */
 265:Generated_Source\PSoC5/CAN.c ****         CAN_PM_ACT_CFG_REG |= CAN_ACT_PWR_EN;
 353              		.loc 1 265 0
 354 0018 1D4A     		ldr	r2, .L28
ARM GAS  C:\Users\badea\AppData\Local\Temp\cc3YEltE.s 			page 12


 355 001a 1D4B     		ldr	r3, .L28
 356 001c 1B78     		ldrb	r3, [r3]
 357 001e DBB2     		uxtb	r3, r3
 358 0020 43F00103 		orr	r3, r3, #1
 359 0024 DBB2     		uxtb	r3, r3
 360 0026 1370     		strb	r3, [r2]
 266:Generated_Source\PSoC5/CAN.c **** 
 267:Generated_Source\PSoC5/CAN.c ****         /* Enable CAN block in Alternate Active (Standby) mode */
 268:Generated_Source\PSoC5/CAN.c ****         CAN_PM_STBY_CFG_REG |= CAN_STBY_PWR_EN;
 361              		.loc 1 268 0
 362 0028 1A4A     		ldr	r2, .L28+4
 363 002a 1A4B     		ldr	r3, .L28+4
 364 002c 1B78     		ldrb	r3, [r3]
 365 002e DBB2     		uxtb	r3, r3
 366 0030 43F00103 		orr	r3, r3, #1
 367 0034 DBB2     		uxtb	r3, r3
 368 0036 1370     		strb	r3, [r2]
 269:Generated_Source\PSoC5/CAN.c **** 
 270:Generated_Source\PSoC5/CAN.c ****         CyExitCriticalSection(enableInterrupts);
 369              		.loc 1 270 0
 370 0038 BB78     		ldrb	r3, [r7, #2]	@ zero_extendqisi2
 371 003a 1846     		mov	r0, r3
 372 003c FFF7FEFF 		bl	CyExitCriticalSection
 271:Generated_Source\PSoC5/CAN.c ****     #endif /* CY_PSOC3 || CY_PSOC5 */
 272:Generated_Source\PSoC5/CAN.c **** 
 273:Generated_Source\PSoC5/CAN.c ****     /* Clear interrupts status */
 274:Generated_Source\PSoC5/CAN.c ****     CY_SET_REG32(CAN_INT_SR_PTR, CAN_INIT_INTERRUPT_MASK);
 373              		.loc 1 274 0
 374 0040 154B     		ldr	r3, .L28+8
 375 0042 41F20102 		movw	r2, #4097
 376 0046 1A60     		str	r2, [r3]
 275:Generated_Source\PSoC5/CAN.c ****     (void) CAN_GlobalIntEnable();
 377              		.loc 1 275 0
 378 0048 FFF7FEFF 		bl	CAN_GlobalIntEnable
 276:Generated_Source\PSoC5/CAN.c **** 
 277:Generated_Source\PSoC5/CAN.c ****     /* Enable isr */
 278:Generated_Source\PSoC5/CAN.c ****     CyIntEnable(CAN_ISR_NUMBER);
 379              		.loc 1 278 0
 380 004c 134B     		ldr	r3, .L28+12
 381 004e 4FF48032 		mov	r2, #65536
 382 0052 1A60     		str	r2, [r3]
 279:Generated_Source\PSoC5/CAN.c **** 
 280:Generated_Source\PSoC5/CAN.c ****     /* Sets CAN controller to run mode */
 281:Generated_Source\PSoC5/CAN.c ****     CY_SET_REG32(CAN_CMD_PTR, CY_GET_REG32(CAN_CMD_PTR) | CAN_MODE_MASK);
 383              		.loc 1 281 0
 384 0054 124A     		ldr	r2, .L28+16
 385 0056 124B     		ldr	r3, .L28+16
 386 0058 1B68     		ldr	r3, [r3]
 387 005a 43F00103 		orr	r3, r3, #1
 388 005e 1360     		str	r3, [r2]
 282:Generated_Source\PSoC5/CAN.c **** 
 283:Generated_Source\PSoC5/CAN.c ****     /* Timeout for CAN state machine to switch mode to Run */
 284:Generated_Source\PSoC5/CAN.c ****     while ((timeout != 0u) && ((CY_GET_REG32(CAN_CMD_PTR) & CAN_MODE_MASK) == 0u))
 389              		.loc 1 284 0
 390 0060 02E0     		b	.L23
 391              	.L25:
 285:Generated_Source\PSoC5/CAN.c ****     {
ARM GAS  C:\Users\badea\AppData\Local\Temp\cc3YEltE.s 			page 13


 286:Generated_Source\PSoC5/CAN.c ****         timeout--;
 392              		.loc 1 286 0
 393 0062 7B68     		ldr	r3, [r7, #4]
 394 0064 013B     		subs	r3, r3, #1
 395 0066 7B60     		str	r3, [r7, #4]
 396              	.L23:
 284:Generated_Source\PSoC5/CAN.c ****     {
 397              		.loc 1 284 0
 398 0068 7B68     		ldr	r3, [r7, #4]
 399 006a 002B     		cmp	r3, #0
 400 006c 05D0     		beq	.L24
 284:Generated_Source\PSoC5/CAN.c ****     {
 401              		.loc 1 284 0 is_stmt 0 discriminator 1
 402 006e 0C4B     		ldr	r3, .L28+16
 403 0070 1B68     		ldr	r3, [r3]
 404 0072 03F00103 		and	r3, r3, #1
 405 0076 002B     		cmp	r3, #0
 406 0078 F3D0     		beq	.L25
 407              	.L24:
 287:Generated_Source\PSoC5/CAN.c ****     }
 288:Generated_Source\PSoC5/CAN.c **** 
 289:Generated_Source\PSoC5/CAN.c ****     if (timeout != 0u)
 408              		.loc 1 289 0 is_stmt 1
 409 007a 7B68     		ldr	r3, [r7, #4]
 410 007c 002B     		cmp	r3, #0
 411 007e 01D0     		beq	.L26
 290:Generated_Source\PSoC5/CAN.c ****     {
 291:Generated_Source\PSoC5/CAN.c ****         result = CYRET_SUCCESS;
 412              		.loc 1 291 0
 413 0080 0023     		movs	r3, #0
 414 0082 FB70     		strb	r3, [r7, #3]
 415              	.L26:
 292:Generated_Source\PSoC5/CAN.c ****     }
 293:Generated_Source\PSoC5/CAN.c **** 
 294:Generated_Source\PSoC5/CAN.c ****     return (result);
 416              		.loc 1 294 0
 417 0084 FB78     		ldrb	r3, [r7, #3]	@ zero_extendqisi2
 295:Generated_Source\PSoC5/CAN.c **** }
 418              		.loc 1 295 0
 419 0086 1846     		mov	r0, r3
 420 0088 0837     		adds	r7, r7, #8
 421              		.cfi_def_cfa_offset 8
 422 008a BD46     		mov	sp, r7
 423              		.cfi_def_cfa_register 13
 424              		@ sp needed
 425 008c 80BD     		pop	{r7, pc}
 426              	.L29:
 427 008e 00BF     		.align	2
 428              	.L28:
 429 0090 A6430040 		.word	1073759142
 430 0094 B6430040 		.word	1073759158
 431 0098 00A00040 		.word	1073782784
 432 009c 00E100E0 		.word	-536813312
 433 00a0 10A00040 		.word	1073782800
 434              		.cfi_endproc
 435              	.LFE2:
 436              		.size	CAN_Enable, .-CAN_Enable
ARM GAS  C:\Users\badea\AppData\Local\Temp\cc3YEltE.s 			page 14


 437              		.section	.text.CAN_Start,"ax",%progbits
 438              		.align	2
 439              		.global	CAN_Start
 440              		.thumb
 441              		.thumb_func
 442              		.type	CAN_Start, %function
 443              	CAN_Start:
 444              	.LFB3:
 296:Generated_Source\PSoC5/CAN.c **** 
 297:Generated_Source\PSoC5/CAN.c **** 
 298:Generated_Source\PSoC5/CAN.c **** /*******************************************************************************
 299:Generated_Source\PSoC5/CAN.c **** * FUNCTION NAME:   CAN_Start
 300:Generated_Source\PSoC5/CAN.c **** ********************************************************************************
 301:Generated_Source\PSoC5/CAN.c **** *
 302:Generated_Source\PSoC5/CAN.c **** * Summary:
 303:Generated_Source\PSoC5/CAN.c **** *  This function sets CAN Component into the Run mode. Starts Rate Counter if
 304:Generated_Source\PSoC5/CAN.c **** *  polling mailboxes are available.
 305:Generated_Source\PSoC5/CAN.c **** *
 306:Generated_Source\PSoC5/CAN.c **** * Parameters:
 307:Generated_Source\PSoC5/CAN.c **** *  None.
 308:Generated_Source\PSoC5/CAN.c **** *
 309:Generated_Source\PSoC5/CAN.c **** * Return:
 310:Generated_Source\PSoC5/CAN.c **** *  The indication whether the register is written and verified.
 311:Generated_Source\PSoC5/CAN.c **** *   Define                             Description
 312:Generated_Source\PSoC5/CAN.c **** *    CYRET_SUCCESS                      The function passed successfully
 313:Generated_Source\PSoC5/CAN.c **** *    CAN_FAIL              The function failed
 314:Generated_Source\PSoC5/CAN.c **** *
 315:Generated_Source\PSoC5/CAN.c **** * Global variables:
 316:Generated_Source\PSoC5/CAN.c **** *  CAN_initVar - used to check the initial configuration, modified
 317:Generated_Source\PSoC5/CAN.c **** *  on the first function call.
 318:Generated_Source\PSoC5/CAN.c **** *
 319:Generated_Source\PSoC5/CAN.c **** * Reentrant:
 320:Generated_Source\PSoC5/CAN.c **** *  No.
 321:Generated_Source\PSoC5/CAN.c **** *
 322:Generated_Source\PSoC5/CAN.c **** *******************************************************************************/
 323:Generated_Source\PSoC5/CAN.c **** uint8 CAN_Start(void) 
 324:Generated_Source\PSoC5/CAN.c **** {
 445              		.loc 1 324 0
 446              		.cfi_startproc
 447              		@ args = 0, pretend = 0, frame = 8
 448              		@ frame_needed = 1, uses_anonymous_args = 0
 449 0000 80B5     		push	{r7, lr}
 450              		.cfi_def_cfa_offset 8
 451              		.cfi_offset 7, -8
 452              		.cfi_offset 14, -4
 453 0002 82B0     		sub	sp, sp, #8
 454              		.cfi_def_cfa_offset 16
 455 0004 00AF     		add	r7, sp, #0
 456              		.cfi_def_cfa_register 7
 325:Generated_Source\PSoC5/CAN.c ****     uint8 result = CYRET_SUCCESS;
 457              		.loc 1 325 0
 458 0006 0023     		movs	r3, #0
 459 0008 FB71     		strb	r3, [r7, #7]
 326:Generated_Source\PSoC5/CAN.c **** 
 327:Generated_Source\PSoC5/CAN.c ****     if (CAN_initVar == 0u)
 460              		.loc 1 327 0
 461 000a 0B4B     		ldr	r3, .L34
ARM GAS  C:\Users\badea\AppData\Local\Temp\cc3YEltE.s 			page 15


 462 000c 1B78     		ldrb	r3, [r3]	@ zero_extendqisi2
 463 000e 002B     		cmp	r3, #0
 464 0010 03D1     		bne	.L31
 328:Generated_Source\PSoC5/CAN.c ****     {
 329:Generated_Source\PSoC5/CAN.c ****         result = CAN_Init();
 465              		.loc 1 329 0
 466 0012 FFF7FEFF 		bl	CAN_Init
 467 0016 0346     		mov	r3, r0
 468 0018 FB71     		strb	r3, [r7, #7]
 469              	.L31:
 330:Generated_Source\PSoC5/CAN.c ****     }
 331:Generated_Source\PSoC5/CAN.c **** 
 332:Generated_Source\PSoC5/CAN.c ****     if (result == CYRET_SUCCESS)
 470              		.loc 1 332 0
 471 001a FB79     		ldrb	r3, [r7, #7]	@ zero_extendqisi2
 472 001c 002B     		cmp	r3, #0
 473 001e 06D1     		bne	.L32
 333:Generated_Source\PSoC5/CAN.c ****     {
 334:Generated_Source\PSoC5/CAN.c ****         CAN_initVar = 1u;
 474              		.loc 1 334 0
 475 0020 054B     		ldr	r3, .L34
 476 0022 0122     		movs	r2, #1
 477 0024 1A70     		strb	r2, [r3]
 335:Generated_Source\PSoC5/CAN.c ****         result = CAN_Enable();
 478              		.loc 1 335 0
 479 0026 FFF7FEFF 		bl	CAN_Enable
 480 002a 0346     		mov	r3, r0
 481 002c FB71     		strb	r3, [r7, #7]
 482              	.L32:
 336:Generated_Source\PSoC5/CAN.c ****     }
 337:Generated_Source\PSoC5/CAN.c **** 
 338:Generated_Source\PSoC5/CAN.c ****     return (result);
 483              		.loc 1 338 0
 484 002e FB79     		ldrb	r3, [r7, #7]	@ zero_extendqisi2
 339:Generated_Source\PSoC5/CAN.c **** }
 485              		.loc 1 339 0
 486 0030 1846     		mov	r0, r3
 487 0032 0837     		adds	r7, r7, #8
 488              		.cfi_def_cfa_offset 8
 489 0034 BD46     		mov	sp, r7
 490              		.cfi_def_cfa_register 13
 491              		@ sp needed
 492 0036 80BD     		pop	{r7, pc}
 493              	.L35:
 494              		.align	2
 495              	.L34:
 496 0038 00000000 		.word	CAN_initVar
 497              		.cfi_endproc
 498              	.LFE3:
 499              		.size	CAN_Start, .-CAN_Start
 500              		.section	.text.CAN_Stop,"ax",%progbits
 501              		.align	2
 502              		.global	CAN_Stop
 503              		.thumb
 504              		.thumb_func
 505              		.type	CAN_Stop, %function
 506              	CAN_Stop:
ARM GAS  C:\Users\badea\AppData\Local\Temp\cc3YEltE.s 			page 16


 507              	.LFB4:
 340:Generated_Source\PSoC5/CAN.c **** 
 341:Generated_Source\PSoC5/CAN.c **** 
 342:Generated_Source\PSoC5/CAN.c **** /*******************************************************************************
 343:Generated_Source\PSoC5/CAN.c **** * FUNCTION NAME:   CAN_Stop
 344:Generated_Source\PSoC5/CAN.c **** ********************************************************************************
 345:Generated_Source\PSoC5/CAN.c **** *
 346:Generated_Source\PSoC5/CAN.c **** * Summary:
 347:Generated_Source\PSoC5/CAN.c **** *  This function sets CAN Component into the Stop mode.
 348:Generated_Source\PSoC5/CAN.c **** *
 349:Generated_Source\PSoC5/CAN.c **** * Parameters:
 350:Generated_Source\PSoC5/CAN.c **** *  None.
 351:Generated_Source\PSoC5/CAN.c **** *
 352:Generated_Source\PSoC5/CAN.c **** * Return:
 353:Generated_Source\PSoC5/CAN.c **** *  The indication whether the register is written and verified.
 354:Generated_Source\PSoC5/CAN.c **** *   Define                             Description
 355:Generated_Source\PSoC5/CAN.c **** *    CYRET_SUCCESS                      The function passed successfully
 356:Generated_Source\PSoC5/CAN.c **** *    CAN_FAIL              The function failed
 357:Generated_Source\PSoC5/CAN.c **** *
 358:Generated_Source\PSoC5/CAN.c **** * Side Effects:
 359:Generated_Source\PSoC5/CAN.c **** *  Disable power to CAN Core in case of PSoC 3/5.
 360:Generated_Source\PSoC5/CAN.c **** *  Pending message in the Tx buffer of PSoC 3/5 will not be aborted on calling
 361:Generated_Source\PSoC5/CAN.c **** *  the CAN_Stop() API. User has to abort all pending messages
 362:Generated_Source\PSoC5/CAN.c **** *  before calling the CAN_Stop() function to make sure that the
 363:Generated_Source\PSoC5/CAN.c **** *  block stops all the message transmission immediately.
 364:Generated_Source\PSoC5/CAN.c **** *
 365:Generated_Source\PSoC5/CAN.c **** *******************************************************************************/
 366:Generated_Source\PSoC5/CAN.c **** uint8 CAN_Stop(void) 
 367:Generated_Source\PSoC5/CAN.c **** {
 508              		.loc 1 367 0
 509              		.cfi_startproc
 510              		@ args = 0, pretend = 0, frame = 8
 511              		@ frame_needed = 1, uses_anonymous_args = 0
 512 0000 80B5     		push	{r7, lr}
 513              		.cfi_def_cfa_offset 8
 514              		.cfi_offset 7, -8
 515              		.cfi_offset 14, -4
 516 0002 82B0     		sub	sp, sp, #8
 517              		.cfi_def_cfa_offset 16
 518 0004 00AF     		add	r7, sp, #0
 519              		.cfi_def_cfa_register 7
 368:Generated_Source\PSoC5/CAN.c ****     uint32 timeout = CAN_MODE_STATE_STOP_TIMEOUT;
 520              		.loc 1 368 0
 521 0006 4FF4F053 		mov	r3, #7680
 522 000a 7B60     		str	r3, [r7, #4]
 369:Generated_Source\PSoC5/CAN.c ****     uint8 result = CAN_FAIL;
 523              		.loc 1 369 0
 524 000c 0123     		movs	r3, #1
 525 000e FB70     		strb	r3, [r7, #3]
 370:Generated_Source\PSoC5/CAN.c **** 
 371:Generated_Source\PSoC5/CAN.c ****     #if (CY_PSOC3 || CY_PSOC5)
 372:Generated_Source\PSoC5/CAN.c ****         uint8 enableInterrupts;
 373:Generated_Source\PSoC5/CAN.c ****     #endif /* CY_PSOC3 || CY_PSOC5 */
 374:Generated_Source\PSoC5/CAN.c **** 
 375:Generated_Source\PSoC5/CAN.c ****     /* Set CAN controller to stop mode */
 376:Generated_Source\PSoC5/CAN.c ****     CY_SET_REG32(CAN_CMD_PTR, (CY_GET_REG32(CAN_CMD_PTR) &
 526              		.loc 1 376 0
ARM GAS  C:\Users\badea\AppData\Local\Temp\cc3YEltE.s 			page 17


 527 0010 1C4A     		ldr	r2, .L42
 528 0012 1C4B     		ldr	r3, .L42
 529 0014 1B68     		ldr	r3, [r3]
 530 0016 23F00103 		bic	r3, r3, #1
 531 001a 1360     		str	r3, [r2]
 377:Generated_Source\PSoC5/CAN.c ****                                             ((uint32) (~((uint32)CAN_MODE_MASK)))));
 378:Generated_Source\PSoC5/CAN.c **** 
 379:Generated_Source\PSoC5/CAN.c ****     /* Timeout for CAN state machine to switch mode to Stop */
 380:Generated_Source\PSoC5/CAN.c ****     while ((timeout != 0u) && ((CY_GET_REG32(CAN_CMD_PTR) & CAN_MODE_MASK) != 0u))
 532              		.loc 1 380 0
 533 001c 02E0     		b	.L37
 534              	.L39:
 381:Generated_Source\PSoC5/CAN.c ****     {
 382:Generated_Source\PSoC5/CAN.c ****         timeout--;
 535              		.loc 1 382 0
 536 001e 7B68     		ldr	r3, [r7, #4]
 537 0020 013B     		subs	r3, r3, #1
 538 0022 7B60     		str	r3, [r7, #4]
 539              	.L37:
 380:Generated_Source\PSoC5/CAN.c ****     {
 540              		.loc 1 380 0
 541 0024 7B68     		ldr	r3, [r7, #4]
 542 0026 002B     		cmp	r3, #0
 543 0028 05D0     		beq	.L38
 380:Generated_Source\PSoC5/CAN.c ****     {
 544              		.loc 1 380 0 is_stmt 0 discriminator 1
 545 002a 164B     		ldr	r3, .L42
 546 002c 1B68     		ldr	r3, [r3]
 547 002e 03F00103 		and	r3, r3, #1
 548 0032 002B     		cmp	r3, #0
 549 0034 F3D1     		bne	.L39
 550              	.L38:
 383:Generated_Source\PSoC5/CAN.c ****     }
 384:Generated_Source\PSoC5/CAN.c **** 
 385:Generated_Source\PSoC5/CAN.c ****     /* Verify that bit is cleared */
 386:Generated_Source\PSoC5/CAN.c ****     if (timeout != 0u)
 551              		.loc 1 386 0 is_stmt 1
 552 0036 7B68     		ldr	r3, [r7, #4]
 553 0038 002B     		cmp	r3, #0
 554 003a 1DD0     		beq	.L40
 387:Generated_Source\PSoC5/CAN.c ****     {
 388:Generated_Source\PSoC5/CAN.c ****         result = CYRET_SUCCESS;
 555              		.loc 1 388 0
 556 003c 0023     		movs	r3, #0
 557 003e FB70     		strb	r3, [r7, #3]
 389:Generated_Source\PSoC5/CAN.c **** 
 390:Generated_Source\PSoC5/CAN.c ****         /* Disable isr */
 391:Generated_Source\PSoC5/CAN.c ****     CyIntDisable(CAN_ISR_NUMBER);
 558              		.loc 1 391 0
 559 0040 114B     		ldr	r3, .L42+4
 560 0042 4FF48032 		mov	r2, #65536
 561 0046 1A60     		str	r2, [r3]
 392:Generated_Source\PSoC5/CAN.c **** 
 393:Generated_Source\PSoC5/CAN.c ****         #if (CY_PSOC3 || CY_PSOC5)
 394:Generated_Source\PSoC5/CAN.c ****             enableInterrupts = CyEnterCriticalSection();
 562              		.loc 1 394 0
 563 0048 FFF7FEFF 		bl	CyEnterCriticalSection
ARM GAS  C:\Users\badea\AppData\Local\Temp\cc3YEltE.s 			page 18


 564 004c 0346     		mov	r3, r0
 565 004e BB70     		strb	r3, [r7, #2]
 395:Generated_Source\PSoC5/CAN.c **** 
 396:Generated_Source\PSoC5/CAN.c ****             /* Disable CAN block in Active mode */
 397:Generated_Source\PSoC5/CAN.c ****             CAN_PM_ACT_CFG_REG &= (uint8) (~CAN_ACT_PWR_EN);
 566              		.loc 1 397 0
 567 0050 0E4A     		ldr	r2, .L42+8
 568 0052 0E4B     		ldr	r3, .L42+8
 569 0054 1B78     		ldrb	r3, [r3]
 570 0056 DBB2     		uxtb	r3, r3
 571 0058 23F00103 		bic	r3, r3, #1
 572 005c DBB2     		uxtb	r3, r3
 573 005e 1370     		strb	r3, [r2]
 398:Generated_Source\PSoC5/CAN.c **** 
 399:Generated_Source\PSoC5/CAN.c ****             /* Disable CAN block in Alternate Active (Standby) mode template */
 400:Generated_Source\PSoC5/CAN.c ****             CAN_PM_STBY_CFG_REG &= (uint8) (~CAN_STBY_PWR_EN);
 574              		.loc 1 400 0
 575 0060 0B4A     		ldr	r2, .L42+12
 576 0062 0B4B     		ldr	r3, .L42+12
 577 0064 1B78     		ldrb	r3, [r3]
 578 0066 DBB2     		uxtb	r3, r3
 579 0068 23F00103 		bic	r3, r3, #1
 580 006c DBB2     		uxtb	r3, r3
 581 006e 1370     		strb	r3, [r2]
 401:Generated_Source\PSoC5/CAN.c **** 
 402:Generated_Source\PSoC5/CAN.c ****             CyExitCriticalSection(enableInterrupts);
 582              		.loc 1 402 0
 583 0070 BB78     		ldrb	r3, [r7, #2]	@ zero_extendqisi2
 584 0072 1846     		mov	r0, r3
 585 0074 FFF7FEFF 		bl	CyExitCriticalSection
 586              	.L40:
 403:Generated_Source\PSoC5/CAN.c ****         #endif /* CY_PSOC3 || CY_PSOC5 */
 404:Generated_Source\PSoC5/CAN.c ****     }
 405:Generated_Source\PSoC5/CAN.c **** 
 406:Generated_Source\PSoC5/CAN.c ****     return (result);
 587              		.loc 1 406 0
 588 0078 FB78     		ldrb	r3, [r7, #3]	@ zero_extendqisi2
 407:Generated_Source\PSoC5/CAN.c **** }
 589              		.loc 1 407 0
 590 007a 1846     		mov	r0, r3
 591 007c 0837     		adds	r7, r7, #8
 592              		.cfi_def_cfa_offset 8
 593 007e BD46     		mov	sp, r7
 594              		.cfi_def_cfa_register 13
 595              		@ sp needed
 596 0080 80BD     		pop	{r7, pc}
 597              	.L43:
 598 0082 00BF     		.align	2
 599              	.L42:
 600 0084 10A00040 		.word	1073782800
 601 0088 80E100E0 		.word	-536813184
 602 008c A6430040 		.word	1073759142
 603 0090 B6430040 		.word	1073759158
 604              		.cfi_endproc
 605              	.LFE4:
 606              		.size	CAN_Stop, .-CAN_Stop
 607              		.section	.text.CAN_GlobalIntEnable,"ax",%progbits
ARM GAS  C:\Users\badea\AppData\Local\Temp\cc3YEltE.s 			page 19


 608              		.align	2
 609              		.global	CAN_GlobalIntEnable
 610              		.thumb
 611              		.thumb_func
 612              		.type	CAN_GlobalIntEnable, %function
 613              	CAN_GlobalIntEnable:
 614              	.LFB5:
 408:Generated_Source\PSoC5/CAN.c **** 
 409:Generated_Source\PSoC5/CAN.c **** 
 410:Generated_Source\PSoC5/CAN.c **** /*******************************************************************************
 411:Generated_Source\PSoC5/CAN.c **** * FUNCTION NAME:   CAN_GlobalIntEnable
 412:Generated_Source\PSoC5/CAN.c **** ********************************************************************************
 413:Generated_Source\PSoC5/CAN.c **** *
 414:Generated_Source\PSoC5/CAN.c **** * Summary:
 415:Generated_Source\PSoC5/CAN.c **** *  This function enables Global Interrupts from CAN Core.
 416:Generated_Source\PSoC5/CAN.c **** *
 417:Generated_Source\PSoC5/CAN.c **** * Parameters:
 418:Generated_Source\PSoC5/CAN.c **** *  None.
 419:Generated_Source\PSoC5/CAN.c **** *
 420:Generated_Source\PSoC5/CAN.c **** * Return:
 421:Generated_Source\PSoC5/CAN.c **** *  The indication whether the register is written and verified.
 422:Generated_Source\PSoC5/CAN.c **** *   Define                             Description
 423:Generated_Source\PSoC5/CAN.c **** *    CYRET_SUCCESS                      The function passed successfully
 424:Generated_Source\PSoC5/CAN.c **** *    CAN_FAIL              The function failed
 425:Generated_Source\PSoC5/CAN.c **** *
 426:Generated_Source\PSoC5/CAN.c **** *******************************************************************************/
 427:Generated_Source\PSoC5/CAN.c **** uint8 CAN_GlobalIntEnable(void) 
 428:Generated_Source\PSoC5/CAN.c **** {
 615              		.loc 1 428 0
 616              		.cfi_startproc
 617              		@ args = 0, pretend = 0, frame = 8
 618              		@ frame_needed = 1, uses_anonymous_args = 0
 619              		@ link register save eliminated.
 620 0000 80B4     		push	{r7}
 621              		.cfi_def_cfa_offset 4
 622              		.cfi_offset 7, -4
 623 0002 83B0     		sub	sp, sp, #12
 624              		.cfi_def_cfa_offset 16
 625 0004 00AF     		add	r7, sp, #0
 626              		.cfi_def_cfa_register 7
 429:Generated_Source\PSoC5/CAN.c ****     uint8 result = CAN_FAIL;
 627              		.loc 1 429 0
 628 0006 0123     		movs	r3, #1
 629 0008 FB71     		strb	r3, [r7, #7]
 430:Generated_Source\PSoC5/CAN.c **** 
 431:Generated_Source\PSoC5/CAN.c ****     #if (CY_PSOC3 || CY_PSOC5)
 432:Generated_Source\PSoC5/CAN.c ****         CAN_INT_EN_REG.byte[0u] |= CAN_GLOBAL_INT_MASK;
 630              		.loc 1 432 0
 631 000a 0B4A     		ldr	r2, .L47
 632 000c 0A4B     		ldr	r3, .L47
 633 000e 1B78     		ldrb	r3, [r3]
 634 0010 DBB2     		uxtb	r3, r3
 635 0012 43F00103 		orr	r3, r3, #1
 636 0016 DBB2     		uxtb	r3, r3
 637 0018 1370     		strb	r3, [r2]
 433:Generated_Source\PSoC5/CAN.c **** 
 434:Generated_Source\PSoC5/CAN.c ****         /* Verify that bit is set */
ARM GAS  C:\Users\badea\AppData\Local\Temp\cc3YEltE.s 			page 20


 435:Generated_Source\PSoC5/CAN.c ****         if ((CAN_INT_EN_REG.byte[0u] & CAN_GLOBAL_INT_MASK) != 0u)
 638              		.loc 1 435 0
 639 001a 074B     		ldr	r3, .L47
 640 001c 1B78     		ldrb	r3, [r3]
 641 001e DBB2     		uxtb	r3, r3
 642 0020 03F00103 		and	r3, r3, #1
 643 0024 002B     		cmp	r3, #0
 644 0026 01D0     		beq	.L45
 436:Generated_Source\PSoC5/CAN.c ****         {
 437:Generated_Source\PSoC5/CAN.c ****             result = CYRET_SUCCESS;
 645              		.loc 1 437 0
 646 0028 0023     		movs	r3, #0
 647 002a FB71     		strb	r3, [r7, #7]
 648              	.L45:
 438:Generated_Source\PSoC5/CAN.c ****         }
 439:Generated_Source\PSoC5/CAN.c ****     #else  /* CY_PSOC4 */
 440:Generated_Source\PSoC5/CAN.c ****         CAN_INT_EN_REG |= CAN_GLOBAL_INT_MASK;
 441:Generated_Source\PSoC5/CAN.c ****         /* Verify that bit is set */
 442:Generated_Source\PSoC5/CAN.c ****         if ((CAN_INT_EN_REG & CAN_GLOBAL_INT_MASK) != 0u)
 443:Generated_Source\PSoC5/CAN.c ****         {
 444:Generated_Source\PSoC5/CAN.c ****             result = CYRET_SUCCESS;
 445:Generated_Source\PSoC5/CAN.c ****         }
 446:Generated_Source\PSoC5/CAN.c ****     #endif /* CY_PSOC3 || CY_PSOC5 */
 447:Generated_Source\PSoC5/CAN.c **** 
 448:Generated_Source\PSoC5/CAN.c ****     return (result);
 649              		.loc 1 448 0
 650 002c FB79     		ldrb	r3, [r7, #7]	@ zero_extendqisi2
 449:Generated_Source\PSoC5/CAN.c **** }
 651              		.loc 1 449 0
 652 002e 1846     		mov	r0, r3
 653 0030 0C37     		adds	r7, r7, #12
 654              		.cfi_def_cfa_offset 4
 655 0032 BD46     		mov	sp, r7
 656              		.cfi_def_cfa_register 13
 657              		@ sp needed
 658 0034 80BC     		pop	{r7}
 659              		.cfi_restore 7
 660              		.cfi_def_cfa_offset 0
 661 0036 7047     		bx	lr
 662              	.L48:
 663              		.align	2
 664              	.L47:
 665 0038 04A00040 		.word	1073782788
 666              		.cfi_endproc
 667              	.LFE5:
 668              		.size	CAN_GlobalIntEnable, .-CAN_GlobalIntEnable
 669              		.section	.text.CAN_GlobalIntDisable,"ax",%progbits
 670              		.align	2
 671              		.global	CAN_GlobalIntDisable
 672              		.thumb
 673              		.thumb_func
 674              		.type	CAN_GlobalIntDisable, %function
 675              	CAN_GlobalIntDisable:
 676              	.LFB6:
 450:Generated_Source\PSoC5/CAN.c **** 
 451:Generated_Source\PSoC5/CAN.c **** 
 452:Generated_Source\PSoC5/CAN.c **** /*******************************************************************************
ARM GAS  C:\Users\badea\AppData\Local\Temp\cc3YEltE.s 			page 21


 453:Generated_Source\PSoC5/CAN.c **** * FUNCTION NAME:   CAN_GlobalIntDisable
 454:Generated_Source\PSoC5/CAN.c **** ********************************************************************************
 455:Generated_Source\PSoC5/CAN.c **** *
 456:Generated_Source\PSoC5/CAN.c **** * Summary:
 457:Generated_Source\PSoC5/CAN.c **** *  This function disables Global Interrupts from CAN Core.
 458:Generated_Source\PSoC5/CAN.c **** *
 459:Generated_Source\PSoC5/CAN.c **** * Parameters:
 460:Generated_Source\PSoC5/CAN.c **** *  None.
 461:Generated_Source\PSoC5/CAN.c **** *
 462:Generated_Source\PSoC5/CAN.c **** * Return:
 463:Generated_Source\PSoC5/CAN.c **** *  The indication whether the register is written and verified.
 464:Generated_Source\PSoC5/CAN.c **** *   Define                             Description
 465:Generated_Source\PSoC5/CAN.c **** *    CYRET_SUCCESS                      The function passed successfully
 466:Generated_Source\PSoC5/CAN.c **** *    CAN_FAIL              The function failed
 467:Generated_Source\PSoC5/CAN.c **** *
 468:Generated_Source\PSoC5/CAN.c **** *******************************************************************************/
 469:Generated_Source\PSoC5/CAN.c **** uint8 CAN_GlobalIntDisable(void) 
 470:Generated_Source\PSoC5/CAN.c **** {
 677              		.loc 1 470 0
 678              		.cfi_startproc
 679              		@ args = 0, pretend = 0, frame = 8
 680              		@ frame_needed = 1, uses_anonymous_args = 0
 681              		@ link register save eliminated.
 682 0000 80B4     		push	{r7}
 683              		.cfi_def_cfa_offset 4
 684              		.cfi_offset 7, -4
 685 0002 83B0     		sub	sp, sp, #12
 686              		.cfi_def_cfa_offset 16
 687 0004 00AF     		add	r7, sp, #0
 688              		.cfi_def_cfa_register 7
 471:Generated_Source\PSoC5/CAN.c ****     uint8 result = CAN_FAIL;
 689              		.loc 1 471 0
 690 0006 0123     		movs	r3, #1
 691 0008 FB71     		strb	r3, [r7, #7]
 472:Generated_Source\PSoC5/CAN.c **** 
 473:Generated_Source\PSoC5/CAN.c ****     #if (CY_PSOC3 || CY_PSOC5)
 474:Generated_Source\PSoC5/CAN.c ****         CAN_INT_EN_REG.byte[0u] &= (uint8) (~CAN_GLOBAL_INT_MASK);
 692              		.loc 1 474 0
 693 000a 0B4A     		ldr	r2, .L52
 694 000c 0A4B     		ldr	r3, .L52
 695 000e 1B78     		ldrb	r3, [r3]
 696 0010 DBB2     		uxtb	r3, r3
 697 0012 23F00103 		bic	r3, r3, #1
 698 0016 DBB2     		uxtb	r3, r3
 699 0018 1370     		strb	r3, [r2]
 475:Generated_Source\PSoC5/CAN.c **** 
 476:Generated_Source\PSoC5/CAN.c ****         /* Verify that bit is cleared */
 477:Generated_Source\PSoC5/CAN.c ****         if ((CAN_INT_EN_REG.byte[0u] & CAN_GLOBAL_INT_MASK) == 0u)
 700              		.loc 1 477 0
 701 001a 074B     		ldr	r3, .L52
 702 001c 1B78     		ldrb	r3, [r3]
 703 001e DBB2     		uxtb	r3, r3
 704 0020 03F00103 		and	r3, r3, #1
 705 0024 002B     		cmp	r3, #0
 706 0026 01D1     		bne	.L50
 478:Generated_Source\PSoC5/CAN.c ****         {
 479:Generated_Source\PSoC5/CAN.c ****             result = CYRET_SUCCESS;
ARM GAS  C:\Users\badea\AppData\Local\Temp\cc3YEltE.s 			page 22


 707              		.loc 1 479 0
 708 0028 0023     		movs	r3, #0
 709 002a FB71     		strb	r3, [r7, #7]
 710              	.L50:
 480:Generated_Source\PSoC5/CAN.c ****         }
 481:Generated_Source\PSoC5/CAN.c ****     #else  /* CY_PSOC4 */
 482:Generated_Source\PSoC5/CAN.c ****         CAN_INT_EN_REG &= (uint32) (~((uint32) CAN_GLOBAL_INT_MASK));
 483:Generated_Source\PSoC5/CAN.c **** 
 484:Generated_Source\PSoC5/CAN.c ****         /* Verify that bit is cleared */
 485:Generated_Source\PSoC5/CAN.c ****         if ((CAN_INT_EN_REG & CAN_GLOBAL_INT_MASK) == 0u)
 486:Generated_Source\PSoC5/CAN.c ****         {
 487:Generated_Source\PSoC5/CAN.c ****             result = CYRET_SUCCESS;
 488:Generated_Source\PSoC5/CAN.c ****         }
 489:Generated_Source\PSoC5/CAN.c ****     #endif /* CY_PSOC3 || CY_PSOC5 */
 490:Generated_Source\PSoC5/CAN.c **** 
 491:Generated_Source\PSoC5/CAN.c ****     return (result);
 711              		.loc 1 491 0
 712 002c FB79     		ldrb	r3, [r7, #7]	@ zero_extendqisi2
 492:Generated_Source\PSoC5/CAN.c **** }
 713              		.loc 1 492 0
 714 002e 1846     		mov	r0, r3
 715 0030 0C37     		adds	r7, r7, #12
 716              		.cfi_def_cfa_offset 4
 717 0032 BD46     		mov	sp, r7
 718              		.cfi_def_cfa_register 13
 719              		@ sp needed
 720 0034 80BC     		pop	{r7}
 721              		.cfi_restore 7
 722              		.cfi_def_cfa_offset 0
 723 0036 7047     		bx	lr
 724              	.L53:
 725              		.align	2
 726              	.L52:
 727 0038 04A00040 		.word	1073782788
 728              		.cfi_endproc
 729              	.LFE6:
 730              		.size	CAN_GlobalIntDisable, .-CAN_GlobalIntDisable
 731              		.section	.text.CAN_SetPreScaler,"ax",%progbits
 732              		.align	2
 733              		.global	CAN_SetPreScaler
 734              		.thumb
 735              		.thumb_func
 736              		.type	CAN_SetPreScaler, %function
 737              	CAN_SetPreScaler:
 738              	.LFB7:
 493:Generated_Source\PSoC5/CAN.c **** 
 494:Generated_Source\PSoC5/CAN.c **** 
 495:Generated_Source\PSoC5/CAN.c **** /*******************************************************************************
 496:Generated_Source\PSoC5/CAN.c **** * FUNCTION NAME:   CAN_SetPreScaler
 497:Generated_Source\PSoC5/CAN.c **** ********************************************************************************
 498:Generated_Source\PSoC5/CAN.c **** *
 499:Generated_Source\PSoC5/CAN.c **** * Summary:
 500:Generated_Source\PSoC5/CAN.c **** *  This function sets PreScaler for generating the time quantum which defines
 501:Generated_Source\PSoC5/CAN.c **** *  the time quanta. The values between 0x0 and 0x7FFF are valid.
 502:Generated_Source\PSoC5/CAN.c **** *
 503:Generated_Source\PSoC5/CAN.c **** * Parameters:
 504:Generated_Source\PSoC5/CAN.c **** *  bitrate: PreScaler value.
ARM GAS  C:\Users\badea\AppData\Local\Temp\cc3YEltE.s 			page 23


 505:Generated_Source\PSoC5/CAN.c **** *   Value           Description
 506:Generated_Source\PSoC5/CAN.c **** *    0               One time quantum equals 1 clock cycle
 507:Generated_Source\PSoC5/CAN.c **** *    1               One time quantum equals 2 clock cycles
 508:Generated_Source\PSoC5/CAN.c **** *    ...             ...
 509:Generated_Source\PSoC5/CAN.c **** *    32767           One time quantum equals 32768 clock cycles
 510:Generated_Source\PSoC5/CAN.c **** *
 511:Generated_Source\PSoC5/CAN.c **** * Return:
 512:Generated_Source\PSoC5/CAN.c **** *  The indication whether the register is written and verified.
 513:Generated_Source\PSoC5/CAN.c **** *   Define                             Description
 514:Generated_Source\PSoC5/CAN.c **** *    CYRET_SUCCESS                      The function passed successfully
 515:Generated_Source\PSoC5/CAN.c **** *    CAN_FAIL              The function failed
 516:Generated_Source\PSoC5/CAN.c **** *    CAN_OUT_OF_RANGE      The function parameter is out of range
 517:Generated_Source\PSoC5/CAN.c **** *
 518:Generated_Source\PSoC5/CAN.c **** *******************************************************************************/
 519:Generated_Source\PSoC5/CAN.c **** uint8 CAN_SetPreScaler(uint16 bitrate) 
 520:Generated_Source\PSoC5/CAN.c **** {
 739              		.loc 1 520 0
 740              		.cfi_startproc
 741              		@ args = 0, pretend = 0, frame = 16
 742              		@ frame_needed = 1, uses_anonymous_args = 0
 743              		@ link register save eliminated.
 744 0000 80B4     		push	{r7}
 745              		.cfi_def_cfa_offset 4
 746              		.cfi_offset 7, -4
 747 0002 85B0     		sub	sp, sp, #20
 748              		.cfi_def_cfa_offset 24
 749 0004 00AF     		add	r7, sp, #0
 750              		.cfi_def_cfa_register 7
 751 0006 0346     		mov	r3, r0
 752 0008 FB80     		strh	r3, [r7, #6]	@ movhi
 521:Generated_Source\PSoC5/CAN.c ****     uint8 result = CAN_OUT_OF_RANGE;
 753              		.loc 1 521 0
 754 000a 0223     		movs	r3, #2
 755 000c FB73     		strb	r3, [r7, #15]
 522:Generated_Source\PSoC5/CAN.c **** 
 523:Generated_Source\PSoC5/CAN.c ****     if (bitrate <= CAN_BITRATE_MASK)
 756              		.loc 1 523 0
 757 000e B7F90630 		ldrsh	r3, [r7, #6]
 758 0012 002B     		cmp	r3, #0
 759 0014 0CDB     		blt	.L55
 524:Generated_Source\PSoC5/CAN.c ****     {
 525:Generated_Source\PSoC5/CAN.c ****         result = CAN_FAIL;
 760              		.loc 1 525 0
 761 0016 0123     		movs	r3, #1
 762 0018 FB73     		strb	r3, [r7, #15]
 526:Generated_Source\PSoC5/CAN.c **** 
 527:Generated_Source\PSoC5/CAN.c ****         #if (CY_PSOC3 || CY_PSOC5)
 528:Generated_Source\PSoC5/CAN.c ****             /* Set prescaler */
 529:Generated_Source\PSoC5/CAN.c ****             CY_SET_REG16((reg16 *) (&CAN_CFG_REG.byte[2u]), bitrate);
 763              		.loc 1 529 0
 764 001a 084A     		ldr	r2, .L57
 765 001c FB88     		ldrh	r3, [r7, #6]	@ movhi
 766 001e 1380     		strh	r3, [r2]	@ movhi
 530:Generated_Source\PSoC5/CAN.c **** 
 531:Generated_Source\PSoC5/CAN.c ****             /* Verify that prescaler is set */
 532:Generated_Source\PSoC5/CAN.c ****             if (CY_GET_REG16((reg16 *) (&CAN_CFG_REG.byte[2u])) == bitrate)
 767              		.loc 1 532 0
ARM GAS  C:\Users\badea\AppData\Local\Temp\cc3YEltE.s 			page 24


 768 0020 064B     		ldr	r3, .L57
 769 0022 1B88     		ldrh	r3, [r3]	@ movhi
 770 0024 9BB2     		uxth	r3, r3
 771 0026 FA88     		ldrh	r2, [r7, #6]
 772 0028 9A42     		cmp	r2, r3
 773 002a 01D1     		bne	.L55
 533:Generated_Source\PSoC5/CAN.c ****             {
 534:Generated_Source\PSoC5/CAN.c ****                 result = CYRET_SUCCESS;
 774              		.loc 1 534 0
 775 002c 0023     		movs	r3, #0
 776 002e FB73     		strb	r3, [r7, #15]
 777              	.L55:
 535:Generated_Source\PSoC5/CAN.c ****             }
 536:Generated_Source\PSoC5/CAN.c ****         #else  /* CY_PSOC4 */
 537:Generated_Source\PSoC5/CAN.c ****             /* Set prescaler */
 538:Generated_Source\PSoC5/CAN.c ****             CAN_CFG_REG = (CAN_CFG_REG & (uint32) (~CAN_BITRATE_MASK_SHIFTED)) |
 539:Generated_Source\PSoC5/CAN.c ****             (uint32) ((uint32) bitrate << CAN_BITRATE_SHIFT);
 540:Generated_Source\PSoC5/CAN.c **** 
 541:Generated_Source\PSoC5/CAN.c ****             /* Verify that prescaler is set */
 542:Generated_Source\PSoC5/CAN.c ****             if ((CAN_CFG_REG & CAN_BITRATE_MASK_SHIFTED) ==
 543:Generated_Source\PSoC5/CAN.c ****                ((uint32) ((uint32) bitrate << CAN_BITRATE_SHIFT)))
 544:Generated_Source\PSoC5/CAN.c ****             {
 545:Generated_Source\PSoC5/CAN.c ****                 result = CYRET_SUCCESS;
 546:Generated_Source\PSoC5/CAN.c ****             }
 547:Generated_Source\PSoC5/CAN.c ****         #endif /* CY_PSOC3 || CY_PSOC5 */
 548:Generated_Source\PSoC5/CAN.c ****     }
 549:Generated_Source\PSoC5/CAN.c **** 
 550:Generated_Source\PSoC5/CAN.c ****     return (result);
 778              		.loc 1 550 0
 779 0030 FB7B     		ldrb	r3, [r7, #15]	@ zero_extendqisi2
 551:Generated_Source\PSoC5/CAN.c **** }
 780              		.loc 1 551 0
 781 0032 1846     		mov	r0, r3
 782 0034 1437     		adds	r7, r7, #20
 783              		.cfi_def_cfa_offset 4
 784 0036 BD46     		mov	sp, r7
 785              		.cfi_def_cfa_register 13
 786              		@ sp needed
 787 0038 80BC     		pop	{r7}
 788              		.cfi_restore 7
 789              		.cfi_def_cfa_offset 0
 790 003a 7047     		bx	lr
 791              	.L58:
 792              		.align	2
 793              	.L57:
 794 003c 16A00040 		.word	1073782806
 795              		.cfi_endproc
 796              	.LFE7:
 797              		.size	CAN_SetPreScaler, .-CAN_SetPreScaler
 798              		.section	.text.CAN_SetArbiter,"ax",%progbits
 799              		.align	2
 800              		.global	CAN_SetArbiter
 801              		.thumb
 802              		.thumb_func
 803              		.type	CAN_SetArbiter, %function
 804              	CAN_SetArbiter:
 805              	.LFB8:
ARM GAS  C:\Users\badea\AppData\Local\Temp\cc3YEltE.s 			page 25


 552:Generated_Source\PSoC5/CAN.c **** 
 553:Generated_Source\PSoC5/CAN.c **** 
 554:Generated_Source\PSoC5/CAN.c **** /*******************************************************************************
 555:Generated_Source\PSoC5/CAN.c **** * FUNCTION NAME:   CAN_SetArbiter
 556:Generated_Source\PSoC5/CAN.c **** ********************************************************************************
 557:Generated_Source\PSoC5/CAN.c **** *
 558:Generated_Source\PSoC5/CAN.c **** * Summary:
 559:Generated_Source\PSoC5/CAN.c **** *  This function sets the arbitration type for transmit mailboxes. The types of
 560:Generated_Source\PSoC5/CAN.c **** *  the arbiters are Round Robin and Fixed Priority. Values 0 and 1 are valid.
 561:Generated_Source\PSoC5/CAN.c **** *
 562:Generated_Source\PSoC5/CAN.c **** * Parameters:
 563:Generated_Source\PSoC5/CAN.c **** *  arbiter: The arbitration type for transmit mailboxes.
 564:Generated_Source\PSoC5/CAN.c **** *   Value                              Description
 565:Generated_Source\PSoC5/CAN.c **** *    CAN_ROUND_ROBIN       The Round Robin arbitration
 566:Generated_Source\PSoC5/CAN.c **** *    CAN_FIXED_PRIORITY    The Fixed Priority arbitration.
 567:Generated_Source\PSoC5/CAN.c **** *
 568:Generated_Source\PSoC5/CAN.c **** * Return:
 569:Generated_Source\PSoC5/CAN.c **** *  The indication whether the register is written and verified.
 570:Generated_Source\PSoC5/CAN.c **** *   Define                             Description
 571:Generated_Source\PSoC5/CAN.c **** *    CYRET_SUCCESS                      The function passed successfully
 572:Generated_Source\PSoC5/CAN.c **** *    CAN_FAIL              The function failed
 573:Generated_Source\PSoC5/CAN.c **** *
 574:Generated_Source\PSoC5/CAN.c **** *******************************************************************************/
 575:Generated_Source\PSoC5/CAN.c **** uint8 CAN_SetArbiter(uint8 arbiter) 
 576:Generated_Source\PSoC5/CAN.c **** {
 806              		.loc 1 576 0
 807              		.cfi_startproc
 808              		@ args = 0, pretend = 0, frame = 16
 809              		@ frame_needed = 1, uses_anonymous_args = 0
 810              		@ link register save eliminated.
 811 0000 80B4     		push	{r7}
 812              		.cfi_def_cfa_offset 4
 813              		.cfi_offset 7, -4
 814 0002 85B0     		sub	sp, sp, #20
 815              		.cfi_def_cfa_offset 24
 816 0004 00AF     		add	r7, sp, #0
 817              		.cfi_def_cfa_register 7
 818 0006 0346     		mov	r3, r0
 819 0008 FB71     		strb	r3, [r7, #7]
 577:Generated_Source\PSoC5/CAN.c ****     uint8 result = CAN_FAIL;
 820              		.loc 1 577 0
 821 000a 0123     		movs	r3, #1
 822 000c FB73     		strb	r3, [r7, #15]
 578:Generated_Source\PSoC5/CAN.c **** 
 579:Generated_Source\PSoC5/CAN.c ****     #if (CY_PSOC3 || CY_PSOC5)
 580:Generated_Source\PSoC5/CAN.c ****         if (arbiter == CAN_ROUND_ROBIN)
 823              		.loc 1 580 0
 824 000e FB79     		ldrb	r3, [r7, #7]	@ zero_extendqisi2
 825 0010 002B     		cmp	r3, #0
 826 0012 11D1     		bne	.L60
 581:Generated_Source\PSoC5/CAN.c ****         {
 582:Generated_Source\PSoC5/CAN.c ****             CAN_CFG_REG.byte[1u] &= (uint8) (~CAN_ARBITRATION_MASK);
 827              		.loc 1 582 0
 828 0014 144A     		ldr	r2, .L64
 829 0016 144B     		ldr	r3, .L64
 830 0018 5B78     		ldrb	r3, [r3, #1]
 831 001a DBB2     		uxtb	r3, r3
ARM GAS  C:\Users\badea\AppData\Local\Temp\cc3YEltE.s 			page 26


 832 001c 23F01003 		bic	r3, r3, #16
 833 0020 DBB2     		uxtb	r3, r3
 834 0022 5370     		strb	r3, [r2, #1]
 583:Generated_Source\PSoC5/CAN.c **** 
 584:Generated_Source\PSoC5/CAN.c ****             /* Verify that bit is cleared */
 585:Generated_Source\PSoC5/CAN.c ****             if ((CAN_CFG_REG.byte[1u] & CAN_ARBITRATION_MASK) == 0u)
 835              		.loc 1 585 0
 836 0024 104B     		ldr	r3, .L64
 837 0026 5B78     		ldrb	r3, [r3, #1]
 838 0028 DBB2     		uxtb	r3, r3
 839 002a 03F01003 		and	r3, r3, #16
 840 002e 002B     		cmp	r3, #0
 841 0030 13D1     		bne	.L62
 586:Generated_Source\PSoC5/CAN.c ****             {
 587:Generated_Source\PSoC5/CAN.c ****                 result = CYRET_SUCCESS;
 842              		.loc 1 587 0
 843 0032 0023     		movs	r3, #0
 844 0034 FB73     		strb	r3, [r7, #15]
 845 0036 10E0     		b	.L62
 846              	.L60:
 588:Generated_Source\PSoC5/CAN.c ****             }
 589:Generated_Source\PSoC5/CAN.c ****         }
 590:Generated_Source\PSoC5/CAN.c ****         else    /* Fixed Priority */
 591:Generated_Source\PSoC5/CAN.c ****         {
 592:Generated_Source\PSoC5/CAN.c ****             CAN_CFG_REG.byte[1u] |= CAN_ARBITRATION_MASK;
 847              		.loc 1 592 0
 848 0038 0B4A     		ldr	r2, .L64
 849 003a 0B4B     		ldr	r3, .L64
 850 003c 5B78     		ldrb	r3, [r3, #1]
 851 003e DBB2     		uxtb	r3, r3
 852 0040 43F01003 		orr	r3, r3, #16
 853 0044 DBB2     		uxtb	r3, r3
 854 0046 5370     		strb	r3, [r2, #1]
 593:Generated_Source\PSoC5/CAN.c **** 
 594:Generated_Source\PSoC5/CAN.c ****             /* Verify that bit is set */
 595:Generated_Source\PSoC5/CAN.c ****             if ((CAN_CFG_REG.byte[1u] & CAN_ARBITRATION_MASK) != 0u)
 855              		.loc 1 595 0
 856 0048 074B     		ldr	r3, .L64
 857 004a 5B78     		ldrb	r3, [r3, #1]
 858 004c DBB2     		uxtb	r3, r3
 859 004e 03F01003 		and	r3, r3, #16
 860 0052 002B     		cmp	r3, #0
 861 0054 01D0     		beq	.L62
 596:Generated_Source\PSoC5/CAN.c ****             {
 597:Generated_Source\PSoC5/CAN.c ****                 result = CYRET_SUCCESS;
 862              		.loc 1 597 0
 863 0056 0023     		movs	r3, #0
 864 0058 FB73     		strb	r3, [r7, #15]
 865              	.L62:
 598:Generated_Source\PSoC5/CAN.c ****             }
 599:Generated_Source\PSoC5/CAN.c ****         }
 600:Generated_Source\PSoC5/CAN.c ****     #else  /* CY_PSOC4 */
 601:Generated_Source\PSoC5/CAN.c ****         if (arbiter == CAN_ROUND_ROBIN)
 602:Generated_Source\PSoC5/CAN.c ****         {
 603:Generated_Source\PSoC5/CAN.c ****             CAN_CFG_REG &= (uint32) (~CAN_ARBITRATION_MASK);
 604:Generated_Source\PSoC5/CAN.c **** 
 605:Generated_Source\PSoC5/CAN.c ****             /* Verify that bit is cleared */
ARM GAS  C:\Users\badea\AppData\Local\Temp\cc3YEltE.s 			page 27


 606:Generated_Source\PSoC5/CAN.c ****             if ((CAN_CFG_REG & CAN_ARBITRATION_MASK) == 0u)
 607:Generated_Source\PSoC5/CAN.c ****             {
 608:Generated_Source\PSoC5/CAN.c ****                 result = CYRET_SUCCESS;
 609:Generated_Source\PSoC5/CAN.c ****             }
 610:Generated_Source\PSoC5/CAN.c ****         }
 611:Generated_Source\PSoC5/CAN.c ****         else    /* Fixed priority */
 612:Generated_Source\PSoC5/CAN.c ****         {
 613:Generated_Source\PSoC5/CAN.c ****             CAN_CFG_REG |= CAN_ARBITRATION_MASK;
 614:Generated_Source\PSoC5/CAN.c **** 
 615:Generated_Source\PSoC5/CAN.c ****             /* Verify that bit is set */
 616:Generated_Source\PSoC5/CAN.c ****             if ((CAN_CFG_REG & CAN_ARBITRATION_MASK) != 0u)
 617:Generated_Source\PSoC5/CAN.c ****             {
 618:Generated_Source\PSoC5/CAN.c ****                 result = CYRET_SUCCESS;
 619:Generated_Source\PSoC5/CAN.c ****             }
 620:Generated_Source\PSoC5/CAN.c ****         }
 621:Generated_Source\PSoC5/CAN.c ****     #endif /* CY_PSOC3 || CY_PSOC5 */
 622:Generated_Source\PSoC5/CAN.c **** 
 623:Generated_Source\PSoC5/CAN.c ****     return (result);
 866              		.loc 1 623 0
 867 005a FB7B     		ldrb	r3, [r7, #15]	@ zero_extendqisi2
 624:Generated_Source\PSoC5/CAN.c **** }
 868              		.loc 1 624 0
 869 005c 1846     		mov	r0, r3
 870 005e 1437     		adds	r7, r7, #20
 871              		.cfi_def_cfa_offset 4
 872 0060 BD46     		mov	sp, r7
 873              		.cfi_def_cfa_register 13
 874              		@ sp needed
 875 0062 80BC     		pop	{r7}
 876              		.cfi_restore 7
 877              		.cfi_def_cfa_offset 0
 878 0064 7047     		bx	lr
 879              	.L65:
 880 0066 00BF     		.align	2
 881              	.L64:
 882 0068 14A00040 		.word	1073782804
 883              		.cfi_endproc
 884              	.LFE8:
 885              		.size	CAN_SetArbiter, .-CAN_SetArbiter
 886              		.section	.text.CAN_SetTsegSample,"ax",%progbits
 887              		.align	2
 888              		.global	CAN_SetTsegSample
 889              		.thumb
 890              		.thumb_func
 891              		.type	CAN_SetTsegSample, %function
 892              	CAN_SetTsegSample:
 893              	.LFB9:
 625:Generated_Source\PSoC5/CAN.c **** 
 626:Generated_Source\PSoC5/CAN.c **** 
 627:Generated_Source\PSoC5/CAN.c **** /*******************************************************************************
 628:Generated_Source\PSoC5/CAN.c **** * FUNCTION NAME: CAN_SetTsegSample
 629:Generated_Source\PSoC5/CAN.c **** ********************************************************************************
 630:Generated_Source\PSoC5/CAN.c **** *
 631:Generated_Source\PSoC5/CAN.c **** * Summary:
 632:Generated_Source\PSoC5/CAN.c **** *  This function configures: Time segment 1, Time segment 2, Sampling Mode
 633:Generated_Source\PSoC5/CAN.c **** *  and Synchronization Jump Width.
 634:Generated_Source\PSoC5/CAN.c **** *
ARM GAS  C:\Users\badea\AppData\Local\Temp\cc3YEltE.s 			page 28


 635:Generated_Source\PSoC5/CAN.c **** * Parameters:
 636:Generated_Source\PSoC5/CAN.c **** *  cfgTseg1: The length of time segment 1, values between 0x2 and 0xF are valid;
 637:Generated_Source\PSoC5/CAN.c **** *  cfgTseg2: The length of time segment 2, values between 0x1 and 0x7 are valid;
 638:Generated_Source\PSoC5/CAN.c **** *  sjw: Synchronization Jump Width, value between 0x0 and 0x3 are valid;
 639:Generated_Source\PSoC5/CAN.c **** *  sm: Sampling Mode.
 640:Generated_Source\PSoC5/CAN.c **** *   Define                               Description
 641:Generated_Source\PSoC5/CAN.c **** *   CAN_ONE_SAMPLE_POINT     One sampling point is used
 642:Generated_Source\PSoC5/CAN.c **** *   CAN_THREE_SAMPLE_POINTS  Three sampling points are used
 643:Generated_Source\PSoC5/CAN.c **** *
 644:Generated_Source\PSoC5/CAN.c **** * Return:
 645:Generated_Source\PSoC5/CAN.c **** *  The indication whether the register is written and verified.
 646:Generated_Source\PSoC5/CAN.c **** *   Define                             Description
 647:Generated_Source\PSoC5/CAN.c **** *    CYRET_SUCCESS                      The function passed successfully
 648:Generated_Source\PSoC5/CAN.c **** *    CAN_FAIL              The function failed
 649:Generated_Source\PSoC5/CAN.c **** *    CAN_OUT_OF_RANGE      The function parameter is out of range
 650:Generated_Source\PSoC5/CAN.c **** *
 651:Generated_Source\PSoC5/CAN.c **** *******************************************************************************/
 652:Generated_Source\PSoC5/CAN.c **** uint8 CAN_SetTsegSample(uint8 cfgTseg1, uint8 cfgTseg2, uint8 sjw, uint8 sm)
 653:Generated_Source\PSoC5/CAN.c ****                                      
 654:Generated_Source\PSoC5/CAN.c **** {
 894              		.loc 1 654 0
 895              		.cfi_startproc
 896              		@ args = 0, pretend = 0, frame = 16
 897              		@ frame_needed = 1, uses_anonymous_args = 0
 898              		@ link register save eliminated.
 899 0000 90B4     		push	{r4, r7}
 900              		.cfi_def_cfa_offset 8
 901              		.cfi_offset 4, -8
 902              		.cfi_offset 7, -4
 903 0002 84B0     		sub	sp, sp, #16
 904              		.cfi_def_cfa_offset 24
 905 0004 00AF     		add	r7, sp, #0
 906              		.cfi_def_cfa_register 7
 907 0006 0446     		mov	r4, r0
 908 0008 0846     		mov	r0, r1
 909 000a 1146     		mov	r1, r2
 910 000c 1A46     		mov	r2, r3
 911 000e 2346     		mov	r3, r4
 912 0010 FB71     		strb	r3, [r7, #7]
 913 0012 0346     		mov	r3, r0
 914 0014 BB71     		strb	r3, [r7, #6]
 915 0016 0B46     		mov	r3, r1
 916 0018 7B71     		strb	r3, [r7, #5]
 917 001a 1346     		mov	r3, r2
 918 001c 3B71     		strb	r3, [r7, #4]
 655:Generated_Source\PSoC5/CAN.c ****     uint8 result = CAN_OUT_OF_RANGE;
 919              		.loc 1 655 0
 920 001e 0223     		movs	r3, #2
 921 0020 FB73     		strb	r3, [r7, #15]
 656:Generated_Source\PSoC5/CAN.c ****     uint8 cfgTemp;
 657:Generated_Source\PSoC5/CAN.c **** 
 658:Generated_Source\PSoC5/CAN.c ****     if ((cfgTseg1 >= CAN_CFG_REG_TSEG1_LOWER_LIMIT) && (cfgTseg1 <=
 922              		.loc 1 658 0
 923 0022 FB79     		ldrb	r3, [r7, #7]	@ zero_extendqisi2
 924 0024 012B     		cmp	r3, #1
 925 0026 4CD9     		bls	.L67
 926              		.loc 1 658 0 is_stmt 0 discriminator 1
ARM GAS  C:\Users\badea\AppData\Local\Temp\cc3YEltE.s 			page 29


 927 0028 FB79     		ldrb	r3, [r7, #7]	@ zero_extendqisi2
 928 002a 0F2B     		cmp	r3, #15
 929 002c 49D8     		bhi	.L67
 659:Generated_Source\PSoC5/CAN.c ****          CAN_CFG_REG_TSEG1_UPPER_LIMIT))
 660:Generated_Source\PSoC5/CAN.c ****     {
 661:Generated_Source\PSoC5/CAN.c ****         if (((cfgTseg2 >= CAN_CFG_REG_TSEG2_LOWER_LIMIT) &&
 930              		.loc 1 661 0 is_stmt 1
 931 002e BB79     		ldrb	r3, [r7, #6]	@ zero_extendqisi2
 932 0030 012B     		cmp	r3, #1
 933 0032 02D9     		bls	.L68
 934              		.loc 1 661 0 is_stmt 0 discriminator 1
 935 0034 BB79     		ldrb	r3, [r7, #6]	@ zero_extendqisi2
 936 0036 072B     		cmp	r3, #7
 937 0038 05D9     		bls	.L69
 938              	.L68:
 662:Generated_Source\PSoC5/CAN.c ****              (cfgTseg2 <= CAN_CFG_REG_TSEG2_UPPER_LIMIT)) || ((sm == CAN_ONE_SAMPLE_POINT) &&
 939              		.loc 1 662 0 is_stmt 1
 940 003a 3B79     		ldrb	r3, [r7, #4]	@ zero_extendqisi2
 941 003c 002B     		cmp	r3, #0
 942 003e 40D1     		bne	.L67
 943              		.loc 1 662 0 is_stmt 0 discriminator 1
 944 0040 BB79     		ldrb	r3, [r7, #6]	@ zero_extendqisi2
 945 0042 012B     		cmp	r3, #1
 946 0044 3DD1     		bne	.L67
 947              	.L69:
 663:Generated_Source\PSoC5/CAN.c ****              (cfgTseg2 == CAN_CFG_REG_TSEG2_EXCEPTION)))
 664:Generated_Source\PSoC5/CAN.c ****         {
 665:Generated_Source\PSoC5/CAN.c ****             if ((sjw <= CAN_CFG_REG_SJW_LOWER_LIMIT) && (sjw <= cfgTseg1) && (sjw <= cfgTseg2))
 948              		.loc 1 665 0 is_stmt 1
 949 0046 7B79     		ldrb	r3, [r7, #5]	@ zero_extendqisi2
 950 0048 032B     		cmp	r3, #3
 951 004a 3AD8     		bhi	.L67
 952              		.loc 1 665 0 is_stmt 0 discriminator 1
 953 004c 7A79     		ldrb	r2, [r7, #5]	@ zero_extendqisi2
 954 004e FB79     		ldrb	r3, [r7, #7]	@ zero_extendqisi2
 955 0050 9A42     		cmp	r2, r3
 956 0052 36D8     		bhi	.L67
 957              		.loc 1 665 0 discriminator 2
 958 0054 7A79     		ldrb	r2, [r7, #5]	@ zero_extendqisi2
 959 0056 BB79     		ldrb	r3, [r7, #6]	@ zero_extendqisi2
 960 0058 9A42     		cmp	r2, r3
 961 005a 32D8     		bhi	.L67
 666:Generated_Source\PSoC5/CAN.c ****             {
 667:Generated_Source\PSoC5/CAN.c ****                 result = CAN_FAIL;
 962              		.loc 1 667 0 is_stmt 1
 963 005c 0123     		movs	r3, #1
 964 005e FB73     		strb	r3, [r7, #15]
 668:Generated_Source\PSoC5/CAN.c **** 
 669:Generated_Source\PSoC5/CAN.c ****                 #if (CY_PSOC3 || CY_PSOC5)
 670:Generated_Source\PSoC5/CAN.c ****                     cfgTemp = CAN_CFG_REG.byte[1];
 965              		.loc 1 670 0
 966 0060 1B4B     		ldr	r3, .L72
 967 0062 5B78     		ldrb	r3, [r3, #1]
 968 0064 BB73     		strb	r3, [r7, #14]
 671:Generated_Source\PSoC5/CAN.c ****                     cfgTemp &= (uint8) (~CAN_CFG_REG_TSEG1_MASK);
 969              		.loc 1 671 0
 970 0066 BB7B     		ldrb	r3, [r7, #14]
ARM GAS  C:\Users\badea\AppData\Local\Temp\cc3YEltE.s 			page 30


 971 0068 23F00F03 		bic	r3, r3, #15
 972 006c BB73     		strb	r3, [r7, #14]
 672:Generated_Source\PSoC5/CAN.c ****                     cfgTemp |= cfgTseg1;
 973              		.loc 1 672 0
 974 006e BA7B     		ldrb	r2, [r7, #14]
 975 0070 FB79     		ldrb	r3, [r7, #7]
 976 0072 1343     		orrs	r3, r3, r2
 977 0074 BB73     		strb	r3, [r7, #14]
 673:Generated_Source\PSoC5/CAN.c **** 
 674:Generated_Source\PSoC5/CAN.c ****                     /* Write register byte 1 */
 675:Generated_Source\PSoC5/CAN.c ****                     CAN_CFG_REG.byte[1u] = cfgTemp;
 978              		.loc 1 675 0
 979 0076 164A     		ldr	r2, .L72
 980 0078 BB7B     		ldrb	r3, [r7, #14]
 981 007a 5370     		strb	r3, [r2, #1]
 676:Generated_Source\PSoC5/CAN.c **** 
 677:Generated_Source\PSoC5/CAN.c ****                     /* Verify 1st byte of CAN_CFG_REG register */
 678:Generated_Source\PSoC5/CAN.c ****                     if (CAN_CFG_REG.byte[1u] == cfgTemp)
 982              		.loc 1 678 0
 983 007c 144B     		ldr	r3, .L72
 984 007e 5B78     		ldrb	r3, [r3, #1]
 985 0080 DBB2     		uxtb	r3, r3
 986 0082 BA7B     		ldrb	r2, [r7, #14]	@ zero_extendqisi2
 987 0084 9A42     		cmp	r2, r3
 988 0086 1CD1     		bne	.L67
 679:Generated_Source\PSoC5/CAN.c ****                     {
 680:Generated_Source\PSoC5/CAN.c ****                         cfgTemp = 0u;
 989              		.loc 1 680 0
 990 0088 0023     		movs	r3, #0
 991 008a BB73     		strb	r3, [r7, #14]
 681:Generated_Source\PSoC5/CAN.c ****                         /* Set appropriate bits */
 682:Generated_Source\PSoC5/CAN.c ****                         if (sm != CAN_ONE_SAMPLE_POINT)
 992              		.loc 1 682 0
 993 008c 3B79     		ldrb	r3, [r7, #4]	@ zero_extendqisi2
 994 008e 002B     		cmp	r3, #0
 995 0090 01D0     		beq	.L70
 683:Generated_Source\PSoC5/CAN.c ****                         {
 684:Generated_Source\PSoC5/CAN.c ****                             cfgTemp = CAN_SAMPLE_MODE_MASK;
 996              		.loc 1 684 0
 997 0092 0223     		movs	r3, #2
 998 0094 BB73     		strb	r3, [r7, #14]
 999              	.L70:
 685:Generated_Source\PSoC5/CAN.c ****                         }
 686:Generated_Source\PSoC5/CAN.c ****                         cfgTemp |= ((uint8) (cfgTseg2 << CAN_CFG_REG_TSEG2_SHIFT)) |
 1000              		.loc 1 686 0
 1001 0096 BB79     		ldrb	r3, [r7, #6]
 1002 0098 5B01     		lsls	r3, r3, #5
 1003 009a DAB2     		uxtb	r2, r3
 687:Generated_Source\PSoC5/CAN.c ****                                    ((uint8) (sjw << CAN_CFG_REG_SJW_SHIFT));
 1004              		.loc 1 687 0
 1005 009c 7B79     		ldrb	r3, [r7, #5]
 1006 009e 9B00     		lsls	r3, r3, #2
 1007 00a0 DBB2     		uxtb	r3, r3
 686:Generated_Source\PSoC5/CAN.c ****                                    ((uint8) (sjw << CAN_CFG_REG_SJW_SHIFT));
 1008              		.loc 1 686 0
 1009 00a2 1343     		orrs	r3, r3, r2
 1010 00a4 DAB2     		uxtb	r2, r3
ARM GAS  C:\Users\badea\AppData\Local\Temp\cc3YEltE.s 			page 31


 1011 00a6 BB7B     		ldrb	r3, [r7, #14]
 1012 00a8 1343     		orrs	r3, r3, r2
 1013 00aa BB73     		strb	r3, [r7, #14]
 688:Generated_Source\PSoC5/CAN.c **** 
 689:Generated_Source\PSoC5/CAN.c ****                         /* Write register byte 0 */
 690:Generated_Source\PSoC5/CAN.c ****                         CAN_CFG_REG.byte[0u] = cfgTemp;
 1014              		.loc 1 690 0
 1015 00ac 084A     		ldr	r2, .L72
 1016 00ae BB7B     		ldrb	r3, [r7, #14]
 1017 00b0 1370     		strb	r3, [r2]
 691:Generated_Source\PSoC5/CAN.c **** 
 692:Generated_Source\PSoC5/CAN.c ****                         /* Verify 1st byte of CAN_CFG_REG register */
 693:Generated_Source\PSoC5/CAN.c ****                         if (CAN_CFG_REG.byte[0u] == cfgTemp)
 1018              		.loc 1 693 0
 1019 00b2 074B     		ldr	r3, .L72
 1020 00b4 1B78     		ldrb	r3, [r3]
 1021 00b6 DBB2     		uxtb	r3, r3
 1022 00b8 BA7B     		ldrb	r2, [r7, #14]	@ zero_extendqisi2
 1023 00ba 9A42     		cmp	r2, r3
 1024 00bc 01D1     		bne	.L67
 694:Generated_Source\PSoC5/CAN.c ****                         {
 695:Generated_Source\PSoC5/CAN.c ****                             result = CYRET_SUCCESS;
 1025              		.loc 1 695 0
 1026 00be 0023     		movs	r3, #0
 1027 00c0 FB73     		strb	r3, [r7, #15]
 1028              	.L67:
 696:Generated_Source\PSoC5/CAN.c ****                         }
 697:Generated_Source\PSoC5/CAN.c ****                     }
 698:Generated_Source\PSoC5/CAN.c ****                 #else  /* CY_PSOC4 */
 699:Generated_Source\PSoC5/CAN.c ****                     cfgTemp = (uint8) (CAN_CFG_REG >> CAN_CFG_REG_TSEG1_SHIFT);
 700:Generated_Source\PSoC5/CAN.c ****                     cfgTemp &= (uint8) (~CAN_CFG_REG_TSEG1_MASK);
 701:Generated_Source\PSoC5/CAN.c ****                     cfgTemp |= cfgTseg1;
 702:Generated_Source\PSoC5/CAN.c **** 
 703:Generated_Source\PSoC5/CAN.c ****                     /* Write register byte 1 */
 704:Generated_Source\PSoC5/CAN.c ****                     CAN_CFG_REG =
 705:Generated_Source\PSoC5/CAN.c ****                     (CAN_CFG_REG & (uint32) (~((uint32) ((uint32) CAN_CFG_REG_TSEG1_MASK <<
 706:Generated_Source\PSoC5/CAN.c ****                     CAN_CFG_REG_TSEG1_SHIFT)))) |
 707:Generated_Source\PSoC5/CAN.c ****                     (uint32) ((uint32) cfgTemp << CAN_CFG_REG_TSEG1_SHIFT);
 708:Generated_Source\PSoC5/CAN.c **** 
 709:Generated_Source\PSoC5/CAN.c ****                     /* Verify 1st byte of CAN_CFG_REG register */
 710:Generated_Source\PSoC5/CAN.c ****                     if ((CAN_CFG_REG & (uint32) ((uint32) CAN_CFG_REG_TSEG1_MASK <<
 711:Generated_Source\PSoC5/CAN.c ****                        CAN_CFG_REG_TSEG1_SHIFT)) == (uint32) ((uint32) ((uint32) cfgTemp &
 712:Generated_Source\PSoC5/CAN.c ****                        CAN_CFG_REG_TSEG1_MASK) << CAN_CFG_REG_TSEG1_SHIFT))
 713:Generated_Source\PSoC5/CAN.c ****                     {
 714:Generated_Source\PSoC5/CAN.c ****                         cfgTemp = 0u;
 715:Generated_Source\PSoC5/CAN.c ****                         /* Set appropriate bits */
 716:Generated_Source\PSoC5/CAN.c ****                         if (sm != CAN_ONE_SAMPLE_POINT)
 717:Generated_Source\PSoC5/CAN.c ****                         {
 718:Generated_Source\PSoC5/CAN.c ****                             cfgTemp = CAN_SAMPLE_MODE_MASK;
 719:Generated_Source\PSoC5/CAN.c ****                         }
 720:Generated_Source\PSoC5/CAN.c ****                         cfgTemp |= ((uint8) (cfgTseg2 << CAN_CFG_REG_TSEG2_SHIFT)) |
 721:Generated_Source\PSoC5/CAN.c ****                                    ((uint8) (sjw << CAN_CFG_REG_SJW_SHIFT));
 722:Generated_Source\PSoC5/CAN.c **** 
 723:Generated_Source\PSoC5/CAN.c ****                         /* Write register byte 0 */
 724:Generated_Source\PSoC5/CAN.c ****                         CAN_CFG_REG = (CAN_CFG_REG &
 725:Generated_Source\PSoC5/CAN.c ****                         (uint32) (~((uint32) (CAN_CFG_REG_TSEG2_MASK | CAN_CFG_REG_SJW_MASK |
 726:Generated_Source\PSoC5/CAN.c ****                         CAN_SAMPLE_MODE_MASK)))) | cfgTemp;
ARM GAS  C:\Users\badea\AppData\Local\Temp\cc3YEltE.s 			page 32


 727:Generated_Source\PSoC5/CAN.c **** 
 728:Generated_Source\PSoC5/CAN.c ****                         /* Verify 1st byte of CAN_CFG_REG register */
 729:Generated_Source\PSoC5/CAN.c ****                         if ((CAN_CFG_REG & (CAN_CFG_REG_TSEG2_MASK |
 730:Generated_Source\PSoC5/CAN.c ****                            CAN_CFG_REG_SJW_MASK | CAN_SAMPLE_MODE_MASK)) == cfgTemp)
 731:Generated_Source\PSoC5/CAN.c ****                         {
 732:Generated_Source\PSoC5/CAN.c ****                             result = CYRET_SUCCESS;
 733:Generated_Source\PSoC5/CAN.c ****                         }
 734:Generated_Source\PSoC5/CAN.c ****                     }
 735:Generated_Source\PSoC5/CAN.c ****                 #endif /* CY_PSOC3 || CY_PSOC5 */
 736:Generated_Source\PSoC5/CAN.c ****             }
 737:Generated_Source\PSoC5/CAN.c ****         }
 738:Generated_Source\PSoC5/CAN.c ****     }
 739:Generated_Source\PSoC5/CAN.c **** 
 740:Generated_Source\PSoC5/CAN.c ****     return (result);
 1029              		.loc 1 740 0
 1030 00c2 FB7B     		ldrb	r3, [r7, #15]	@ zero_extendqisi2
 741:Generated_Source\PSoC5/CAN.c **** }
 1031              		.loc 1 741 0
 1032 00c4 1846     		mov	r0, r3
 1033 00c6 1037     		adds	r7, r7, #16
 1034              		.cfi_def_cfa_offset 8
 1035 00c8 BD46     		mov	sp, r7
 1036              		.cfi_def_cfa_register 13
 1037              		@ sp needed
 1038 00ca 90BC     		pop	{r4, r7}
 1039              		.cfi_restore 7
 1040              		.cfi_restore 4
 1041              		.cfi_def_cfa_offset 0
 1042 00cc 7047     		bx	lr
 1043              	.L73:
 1044 00ce 00BF     		.align	2
 1045              	.L72:
 1046 00d0 14A00040 		.word	1073782804
 1047              		.cfi_endproc
 1048              	.LFE9:
 1049              		.size	CAN_SetTsegSample, .-CAN_SetTsegSample
 1050              		.section	.text.CAN_SetRestartType,"ax",%progbits
 1051              		.align	2
 1052              		.global	CAN_SetRestartType
 1053              		.thumb
 1054              		.thumb_func
 1055              		.type	CAN_SetRestartType, %function
 1056              	CAN_SetRestartType:
 1057              	.LFB10:
 742:Generated_Source\PSoC5/CAN.c **** 
 743:Generated_Source\PSoC5/CAN.c **** 
 744:Generated_Source\PSoC5/CAN.c **** /*******************************************************************************
 745:Generated_Source\PSoC5/CAN.c **** * FUNCTION NAME:   CAN_SetRestartType
 746:Generated_Source\PSoC5/CAN.c **** ********************************************************************************
 747:Generated_Source\PSoC5/CAN.c **** *
 748:Generated_Source\PSoC5/CAN.c **** * Summary:
 749:Generated_Source\PSoC5/CAN.c **** *  This function sets the Reset type. The types of Reset are Automatic and
 750:Generated_Source\PSoC5/CAN.c **** *  Manual. Manual Reset is the recommended setting.
 751:Generated_Source\PSoC5/CAN.c **** *
 752:Generated_Source\PSoC5/CAN.c **** * Parameters:
 753:Generated_Source\PSoC5/CAN.c **** *  reset: Reset Type.
 754:Generated_Source\PSoC5/CAN.c **** *   Define                             Description
ARM GAS  C:\Users\badea\AppData\Local\Temp\cc3YEltE.s 			page 33


 755:Generated_Source\PSoC5/CAN.c **** *    CAN_MANUAL_RESTART    After Bus-Off, CAN must be restarted
 756:Generated_Source\PSoC5/CAN.c **** *                                       manually. This is the recommended
 757:Generated_Source\PSoC5/CAN.c **** *                                       setting.
 758:Generated_Source\PSoC5/CAN.c **** *    CAN_AUTO_RESTART      After Bus-Off, CAN restarts
 759:Generated_Source\PSoC5/CAN.c **** *                                       automatically after 128 groups of 11
 760:Generated_Source\PSoC5/CAN.c **** *                                       recessive bits.
 761:Generated_Source\PSoC5/CAN.c **** *
 762:Generated_Source\PSoC5/CAN.c **** * Return:
 763:Generated_Source\PSoC5/CAN.c **** *  The indication whether the register is written and verified.
 764:Generated_Source\PSoC5/CAN.c **** *   Define                             Description
 765:Generated_Source\PSoC5/CAN.c **** *    CYRET_SUCCESS                      The function passed successfully
 766:Generated_Source\PSoC5/CAN.c **** *    CAN_FAIL              The function failed
 767:Generated_Source\PSoC5/CAN.c **** *
 768:Generated_Source\PSoC5/CAN.c **** *******************************************************************************/
 769:Generated_Source\PSoC5/CAN.c **** uint8 CAN_SetRestartType(uint8 reset) 
 770:Generated_Source\PSoC5/CAN.c **** {
 1058              		.loc 1 770 0
 1059              		.cfi_startproc
 1060              		@ args = 0, pretend = 0, frame = 16
 1061              		@ frame_needed = 1, uses_anonymous_args = 0
 1062              		@ link register save eliminated.
 1063 0000 80B4     		push	{r7}
 1064              		.cfi_def_cfa_offset 4
 1065              		.cfi_offset 7, -4
 1066 0002 85B0     		sub	sp, sp, #20
 1067              		.cfi_def_cfa_offset 24
 1068 0004 00AF     		add	r7, sp, #0
 1069              		.cfi_def_cfa_register 7
 1070 0006 0346     		mov	r3, r0
 1071 0008 FB71     		strb	r3, [r7, #7]
 771:Generated_Source\PSoC5/CAN.c ****     uint8 result = CAN_FAIL;
 1072              		.loc 1 771 0
 1073 000a 0123     		movs	r3, #1
 1074 000c FB73     		strb	r3, [r7, #15]
 772:Generated_Source\PSoC5/CAN.c **** 
 773:Generated_Source\PSoC5/CAN.c ****     #if (CY_PSOC3 || CY_PSOC5)
 774:Generated_Source\PSoC5/CAN.c ****         if (reset == CAN_MANUAL_RESTART)
 1075              		.loc 1 774 0
 1076 000e FB79     		ldrb	r3, [r7, #7]	@ zero_extendqisi2
 1077 0010 002B     		cmp	r3, #0
 1078 0012 11D1     		bne	.L75
 775:Generated_Source\PSoC5/CAN.c ****         {
 776:Generated_Source\PSoC5/CAN.c ****             CAN_CFG_REG.byte[0u] &= (uint8) (~CAN_RESET_MASK);
 1079              		.loc 1 776 0
 1080 0014 144A     		ldr	r2, .L79
 1081 0016 144B     		ldr	r3, .L79
 1082 0018 1B78     		ldrb	r3, [r3]
 1083 001a DBB2     		uxtb	r3, r3
 1084 001c 23F01003 		bic	r3, r3, #16
 1085 0020 DBB2     		uxtb	r3, r3
 1086 0022 1370     		strb	r3, [r2]
 777:Generated_Source\PSoC5/CAN.c **** 
 778:Generated_Source\PSoC5/CAN.c ****             /* Verify that bit is cleared */
 779:Generated_Source\PSoC5/CAN.c ****             if ((CAN_CFG_REG.byte[0u] & CAN_RESET_MASK) == 0u)
 1087              		.loc 1 779 0
 1088 0024 104B     		ldr	r3, .L79
 1089 0026 1B78     		ldrb	r3, [r3]
ARM GAS  C:\Users\badea\AppData\Local\Temp\cc3YEltE.s 			page 34


 1090 0028 DBB2     		uxtb	r3, r3
 1091 002a 03F01003 		and	r3, r3, #16
 1092 002e 002B     		cmp	r3, #0
 1093 0030 13D1     		bne	.L77
 780:Generated_Source\PSoC5/CAN.c ****             {
 781:Generated_Source\PSoC5/CAN.c ****                 result = CYRET_SUCCESS;
 1094              		.loc 1 781 0
 1095 0032 0023     		movs	r3, #0
 1096 0034 FB73     		strb	r3, [r7, #15]
 1097 0036 10E0     		b	.L77
 1098              	.L75:
 782:Generated_Source\PSoC5/CAN.c ****             }
 783:Generated_Source\PSoC5/CAN.c ****         }
 784:Generated_Source\PSoC5/CAN.c ****         else    /* Automatic restart */
 785:Generated_Source\PSoC5/CAN.c ****         {
 786:Generated_Source\PSoC5/CAN.c ****             CAN_CFG_REG.byte[0u] |= CAN_RESET_MASK;
 1099              		.loc 1 786 0
 1100 0038 0B4A     		ldr	r2, .L79
 1101 003a 0B4B     		ldr	r3, .L79
 1102 003c 1B78     		ldrb	r3, [r3]
 1103 003e DBB2     		uxtb	r3, r3
 1104 0040 43F01003 		orr	r3, r3, #16
 1105 0044 DBB2     		uxtb	r3, r3
 1106 0046 1370     		strb	r3, [r2]
 787:Generated_Source\PSoC5/CAN.c **** 
 788:Generated_Source\PSoC5/CAN.c ****             /* Verify that bit is set */
 789:Generated_Source\PSoC5/CAN.c ****             if ((CAN_CFG_REG.byte[0u] & CAN_RESET_MASK) != 0u)
 1107              		.loc 1 789 0
 1108 0048 074B     		ldr	r3, .L79
 1109 004a 1B78     		ldrb	r3, [r3]
 1110 004c DBB2     		uxtb	r3, r3
 1111 004e 03F01003 		and	r3, r3, #16
 1112 0052 002B     		cmp	r3, #0
 1113 0054 01D0     		beq	.L77
 790:Generated_Source\PSoC5/CAN.c ****             {
 791:Generated_Source\PSoC5/CAN.c ****                 result = CYRET_SUCCESS;
 1114              		.loc 1 791 0
 1115 0056 0023     		movs	r3, #0
 1116 0058 FB73     		strb	r3, [r7, #15]
 1117              	.L77:
 792:Generated_Source\PSoC5/CAN.c ****             }
 793:Generated_Source\PSoC5/CAN.c ****         }
 794:Generated_Source\PSoC5/CAN.c ****     #else  /* CY_PSOC4 */
 795:Generated_Source\PSoC5/CAN.c ****         if (reset == CAN_MANUAL_RESTART)
 796:Generated_Source\PSoC5/CAN.c ****         {
 797:Generated_Source\PSoC5/CAN.c ****             CAN_CFG_REG &= (uint32) (~((uint32) CAN_RESET_MASK));
 798:Generated_Source\PSoC5/CAN.c **** 
 799:Generated_Source\PSoC5/CAN.c ****             /* Verify that bit is cleared */
 800:Generated_Source\PSoC5/CAN.c ****             if ((CAN_CFG_REG & CAN_RESET_MASK) == 0u)
 801:Generated_Source\PSoC5/CAN.c ****             {
 802:Generated_Source\PSoC5/CAN.c ****                 result = CYRET_SUCCESS;
 803:Generated_Source\PSoC5/CAN.c ****             }
 804:Generated_Source\PSoC5/CAN.c ****         }
 805:Generated_Source\PSoC5/CAN.c ****         else    /* Automatic restart */
 806:Generated_Source\PSoC5/CAN.c ****         {
 807:Generated_Source\PSoC5/CAN.c ****             CAN_CFG_REG |= CAN_RESET_MASK;
 808:Generated_Source\PSoC5/CAN.c **** 
ARM GAS  C:\Users\badea\AppData\Local\Temp\cc3YEltE.s 			page 35


 809:Generated_Source\PSoC5/CAN.c ****             /* Verify that bit is set */
 810:Generated_Source\PSoC5/CAN.c ****             if ((CAN_CFG_REG & CAN_RESET_MASK) != 0u)
 811:Generated_Source\PSoC5/CAN.c ****             {
 812:Generated_Source\PSoC5/CAN.c ****                 result = CYRET_SUCCESS;
 813:Generated_Source\PSoC5/CAN.c ****             }
 814:Generated_Source\PSoC5/CAN.c ****         }
 815:Generated_Source\PSoC5/CAN.c ****     #endif /* CY_PSOC3 || CY_PSOC5 */
 816:Generated_Source\PSoC5/CAN.c **** 
 817:Generated_Source\PSoC5/CAN.c ****     return (result);
 1118              		.loc 1 817 0
 1119 005a FB7B     		ldrb	r3, [r7, #15]	@ zero_extendqisi2
 818:Generated_Source\PSoC5/CAN.c **** }
 1120              		.loc 1 818 0
 1121 005c 1846     		mov	r0, r3
 1122 005e 1437     		adds	r7, r7, #20
 1123              		.cfi_def_cfa_offset 4
 1124 0060 BD46     		mov	sp, r7
 1125              		.cfi_def_cfa_register 13
 1126              		@ sp needed
 1127 0062 80BC     		pop	{r7}
 1128              		.cfi_restore 7
 1129              		.cfi_def_cfa_offset 0
 1130 0064 7047     		bx	lr
 1131              	.L80:
 1132 0066 00BF     		.align	2
 1133              	.L79:
 1134 0068 14A00040 		.word	1073782804
 1135              		.cfi_endproc
 1136              	.LFE10:
 1137              		.size	CAN_SetRestartType, .-CAN_SetRestartType
 1138              		.section	.text.CAN_SetEdgeMode,"ax",%progbits
 1139              		.align	2
 1140              		.global	CAN_SetEdgeMode
 1141              		.thumb
 1142              		.thumb_func
 1143              		.type	CAN_SetEdgeMode, %function
 1144              	CAN_SetEdgeMode:
 1145              	.LFB11:
 819:Generated_Source\PSoC5/CAN.c **** 
 820:Generated_Source\PSoC5/CAN.c **** 
 821:Generated_Source\PSoC5/CAN.c **** /*******************************************************************************
 822:Generated_Source\PSoC5/CAN.c **** * FUNCTION NAME:   CAN_SetEdgeMode
 823:Generated_Source\PSoC5/CAN.c **** ********************************************************************************
 824:Generated_Source\PSoC5/CAN.c **** *
 825:Generated_Source\PSoC5/CAN.c **** * Summary:
 826:Generated_Source\PSoC5/CAN.c **** *  This function sets Edge Mode. The modes are 'R' to 'D'(Recessive to Dominant)
 827:Generated_Source\PSoC5/CAN.c **** *  and Both edges are used.
 828:Generated_Source\PSoC5/CAN.c **** *
 829:Generated_Source\PSoC5/CAN.c **** * Parameters:
 830:Generated_Source\PSoC5/CAN.c **** *  edge: Edge Mode.
 831:Generated_Source\PSoC5/CAN.c **** *   Define                             Description
 832:Generated_Source\PSoC5/CAN.c **** *    CAN_EDGE_R_TO_D       The edge from R to D is used for
 833:Generated_Source\PSoC5/CAN.c **** *                                       synchronization
 834:Generated_Source\PSoC5/CAN.c **** *    CAN_BOTH_EDGES        Both edges are used
 835:Generated_Source\PSoC5/CAN.c **** *
 836:Generated_Source\PSoC5/CAN.c **** * Return:
 837:Generated_Source\PSoC5/CAN.c **** *  The indication whether the register is written and verified.
ARM GAS  C:\Users\badea\AppData\Local\Temp\cc3YEltE.s 			page 36


 838:Generated_Source\PSoC5/CAN.c **** *   Define                             Description
 839:Generated_Source\PSoC5/CAN.c **** *    CYRET_SUCCESS                      The function passed successfully
 840:Generated_Source\PSoC5/CAN.c **** *    CAN_FAIL              The function failed
 841:Generated_Source\PSoC5/CAN.c **** *
 842:Generated_Source\PSoC5/CAN.c **** *******************************************************************************/
 843:Generated_Source\PSoC5/CAN.c **** uint8 CAN_SetEdgeMode(uint8 edge) 
 844:Generated_Source\PSoC5/CAN.c **** {
 1146              		.loc 1 844 0
 1147              		.cfi_startproc
 1148              		@ args = 0, pretend = 0, frame = 16
 1149              		@ frame_needed = 1, uses_anonymous_args = 0
 1150              		@ link register save eliminated.
 1151 0000 80B4     		push	{r7}
 1152              		.cfi_def_cfa_offset 4
 1153              		.cfi_offset 7, -4
 1154 0002 85B0     		sub	sp, sp, #20
 1155              		.cfi_def_cfa_offset 24
 1156 0004 00AF     		add	r7, sp, #0
 1157              		.cfi_def_cfa_register 7
 1158 0006 0346     		mov	r3, r0
 1159 0008 FB71     		strb	r3, [r7, #7]
 845:Generated_Source\PSoC5/CAN.c ****     uint8 result = CAN_FAIL;
 1160              		.loc 1 845 0
 1161 000a 0123     		movs	r3, #1
 1162 000c FB73     		strb	r3, [r7, #15]
 846:Generated_Source\PSoC5/CAN.c **** 
 847:Generated_Source\PSoC5/CAN.c ****     #if (CY_PSOC3 || CY_PSOC5)
 848:Generated_Source\PSoC5/CAN.c ****         if (edge == CAN_EDGE_R_TO_D)
 1163              		.loc 1 848 0
 1164 000e FB79     		ldrb	r3, [r7, #7]	@ zero_extendqisi2
 1165 0010 002B     		cmp	r3, #0
 1166 0012 11D1     		bne	.L82
 849:Generated_Source\PSoC5/CAN.c ****         {
 850:Generated_Source\PSoC5/CAN.c ****             /* Recessive to Dominant is used for synchronization */
 851:Generated_Source\PSoC5/CAN.c ****             CAN_CFG_REG.byte[0u] &= (uint8) (~CAN_EDGE_MODE_MASK);
 1167              		.loc 1 851 0
 1168 0014 144A     		ldr	r2, .L86
 1169 0016 144B     		ldr	r3, .L86
 1170 0018 1B78     		ldrb	r3, [r3]
 1171 001a DBB2     		uxtb	r3, r3
 1172 001c 23F00103 		bic	r3, r3, #1
 1173 0020 DBB2     		uxtb	r3, r3
 1174 0022 1370     		strb	r3, [r2]
 852:Generated_Source\PSoC5/CAN.c **** 
 853:Generated_Source\PSoC5/CAN.c ****             /* Verify that bit is cleared */
 854:Generated_Source\PSoC5/CAN.c ****             if ((CAN_CFG_REG.byte[0u] & CAN_EDGE_MODE_MASK) == 0u)
 1175              		.loc 1 854 0
 1176 0024 104B     		ldr	r3, .L86
 1177 0026 1B78     		ldrb	r3, [r3]
 1178 0028 DBB2     		uxtb	r3, r3
 1179 002a 03F00103 		and	r3, r3, #1
 1180 002e 002B     		cmp	r3, #0
 1181 0030 13D1     		bne	.L84
 855:Generated_Source\PSoC5/CAN.c ****             {
 856:Generated_Source\PSoC5/CAN.c ****                 result = CYRET_SUCCESS;
 1182              		.loc 1 856 0
 1183 0032 0023     		movs	r3, #0
ARM GAS  C:\Users\badea\AppData\Local\Temp\cc3YEltE.s 			page 37


 1184 0034 FB73     		strb	r3, [r7, #15]
 1185 0036 10E0     		b	.L84
 1186              	.L82:
 857:Generated_Source\PSoC5/CAN.c ****             }
 858:Generated_Source\PSoC5/CAN.c ****         }
 859:Generated_Source\PSoC5/CAN.c ****         else
 860:Generated_Source\PSoC5/CAN.c ****         {
 861:Generated_Source\PSoC5/CAN.c ****             /* Both edges to be used */
 862:Generated_Source\PSoC5/CAN.c ****             CAN_CFG_REG.byte[0u] |= CAN_EDGE_MODE_MASK;
 1187              		.loc 1 862 0
 1188 0038 0B4A     		ldr	r2, .L86
 1189 003a 0B4B     		ldr	r3, .L86
 1190 003c 1B78     		ldrb	r3, [r3]
 1191 003e DBB2     		uxtb	r3, r3
 1192 0040 43F00103 		orr	r3, r3, #1
 1193 0044 DBB2     		uxtb	r3, r3
 1194 0046 1370     		strb	r3, [r2]
 863:Generated_Source\PSoC5/CAN.c **** 
 864:Generated_Source\PSoC5/CAN.c ****             /* Verify that bit is set */
 865:Generated_Source\PSoC5/CAN.c ****             if ((CAN_CFG_REG.byte[0u] & CAN_EDGE_MODE_MASK) != 0u)
 1195              		.loc 1 865 0
 1196 0048 074B     		ldr	r3, .L86
 1197 004a 1B78     		ldrb	r3, [r3]
 1198 004c DBB2     		uxtb	r3, r3
 1199 004e 03F00103 		and	r3, r3, #1
 1200 0052 002B     		cmp	r3, #0
 1201 0054 01D0     		beq	.L84
 866:Generated_Source\PSoC5/CAN.c ****             {
 867:Generated_Source\PSoC5/CAN.c ****                 result = CYRET_SUCCESS;
 1202              		.loc 1 867 0
 1203 0056 0023     		movs	r3, #0
 1204 0058 FB73     		strb	r3, [r7, #15]
 1205              	.L84:
 868:Generated_Source\PSoC5/CAN.c ****             }
 869:Generated_Source\PSoC5/CAN.c ****         }
 870:Generated_Source\PSoC5/CAN.c ****     #else  /* CY_PSOC4 */
 871:Generated_Source\PSoC5/CAN.c ****         if (edge == CAN_EDGE_R_TO_D)
 872:Generated_Source\PSoC5/CAN.c ****         {
 873:Generated_Source\PSoC5/CAN.c ****             /* Recessive to Dominant is used for synchronization */
 874:Generated_Source\PSoC5/CAN.c ****             CAN_CFG_REG &= (uint32) (~((uint32) CAN_EDGE_MODE_MASK));
 875:Generated_Source\PSoC5/CAN.c **** 
 876:Generated_Source\PSoC5/CAN.c ****             /* Verify that bit is cleared */
 877:Generated_Source\PSoC5/CAN.c ****             if ((CAN_CFG_REG & CAN_EDGE_MODE_MASK) == 0u)
 878:Generated_Source\PSoC5/CAN.c ****             {
 879:Generated_Source\PSoC5/CAN.c ****                 result = CYRET_SUCCESS;
 880:Generated_Source\PSoC5/CAN.c ****             }
 881:Generated_Source\PSoC5/CAN.c ****         }
 882:Generated_Source\PSoC5/CAN.c ****         else
 883:Generated_Source\PSoC5/CAN.c ****         {
 884:Generated_Source\PSoC5/CAN.c ****             /* Both edges to be used */
 885:Generated_Source\PSoC5/CAN.c ****             CAN_CFG_REG |= CAN_EDGE_MODE_MASK;
 886:Generated_Source\PSoC5/CAN.c **** 
 887:Generated_Source\PSoC5/CAN.c ****             /* Verify that bit is set */
 888:Generated_Source\PSoC5/CAN.c ****             if ((CAN_CFG_REG & CAN_EDGE_MODE_MASK) != 0u)
 889:Generated_Source\PSoC5/CAN.c ****             {
 890:Generated_Source\PSoC5/CAN.c ****                 result = CYRET_SUCCESS;
 891:Generated_Source\PSoC5/CAN.c ****             }
ARM GAS  C:\Users\badea\AppData\Local\Temp\cc3YEltE.s 			page 38


 892:Generated_Source\PSoC5/CAN.c ****         }
 893:Generated_Source\PSoC5/CAN.c ****     #endif /* CY_PSOC3 || CY_PSOC5 */
 894:Generated_Source\PSoC5/CAN.c **** 
 895:Generated_Source\PSoC5/CAN.c ****     return (result);
 1206              		.loc 1 895 0
 1207 005a FB7B     		ldrb	r3, [r7, #15]	@ zero_extendqisi2
 896:Generated_Source\PSoC5/CAN.c **** }
 1208              		.loc 1 896 0
 1209 005c 1846     		mov	r0, r3
 1210 005e 1437     		adds	r7, r7, #20
 1211              		.cfi_def_cfa_offset 4
 1212 0060 BD46     		mov	sp, r7
 1213              		.cfi_def_cfa_register 13
 1214              		@ sp needed
 1215 0062 80BC     		pop	{r7}
 1216              		.cfi_restore 7
 1217              		.cfi_def_cfa_offset 0
 1218 0064 7047     		bx	lr
 1219              	.L87:
 1220 0066 00BF     		.align	2
 1221              	.L86:
 1222 0068 14A00040 		.word	1073782804
 1223              		.cfi_endproc
 1224              	.LFE11:
 1225              		.size	CAN_SetEdgeMode, .-CAN_SetEdgeMode
 1226              		.section	.text.CAN_SetOpMode,"ax",%progbits
 1227              		.align	2
 1228              		.global	CAN_SetOpMode
 1229              		.thumb
 1230              		.thumb_func
 1231              		.type	CAN_SetOpMode, %function
 1232              	CAN_SetOpMode:
 1233              	.LFB12:
 897:Generated_Source\PSoC5/CAN.c **** 
 898:Generated_Source\PSoC5/CAN.c **** 
 899:Generated_Source\PSoC5/CAN.c **** /*******************************************************************************
 900:Generated_Source\PSoC5/CAN.c **** * FUNCTION NAME:   CAN_SetOpMode
 901:Generated_Source\PSoC5/CAN.c **** ********************************************************************************
 902:Generated_Source\PSoC5/CAN.c **** *
 903:Generated_Source\PSoC5/CAN.c **** * Summary:
 904:Generated_Source\PSoC5/CAN.c **** *  This function sets Operation Mode.
 905:Generated_Source\PSoC5/CAN.c **** *
 906:Generated_Source\PSoC5/CAN.c **** * Parameters:
 907:Generated_Source\PSoC5/CAN.c **** *  opMode: Operation Mode value.
 908:Generated_Source\PSoC5/CAN.c **** *   Define                              Description
 909:Generated_Source\PSoC5/CAN.c **** *    CAN_STOP_MODE          The CAN controller is in the Stop mode
 910:Generated_Source\PSoC5/CAN.c **** *    CAN_ACTIVE_RUN_MODE    The CAN controller is in the Active
 911:Generated_Source\PSoC5/CAN.c **** *                                        mode
 912:Generated_Source\PSoC5/CAN.c **** *    CAN_LISTEN_ONLY_MODE   The CAN controller is in the Listen
 913:Generated_Source\PSoC5/CAN.c **** *                                        Only mode: The output is held at the
 914:Generated_Source\PSoC5/CAN.c **** *                                        'R' level.
 915:Generated_Source\PSoC5/CAN.c **** *    CAN_INTERNAL_LOOP_BACK The CAN controller is in the Internal
 916:Generated_Source\PSoC5/CAN.c **** *                                        Loopback mode. This mode is used for
 917:Generated_Source\PSoC5/CAN.c **** *                                        the testing purpose and the transmitted
 918:Generated_Source\PSoC5/CAN.c **** *                                        transactions are internally routed
 919:Generated_Source\PSoC5/CAN.c **** *                                        back to the receiver logic and
 920:Generated_Source\PSoC5/CAN.c **** *                                        processed by the controller in this
ARM GAS  C:\Users\badea\AppData\Local\Temp\cc3YEltE.s 			page 39


 921:Generated_Source\PSoC5/CAN.c **** *                                        mode. Not available for PSoC3/5.
 922:Generated_Source\PSoC5/CAN.c **** *    CAN_EXTERNAL_LOOP_BACK This mode is used for the testing
 923:Generated_Source\PSoC5/CAN.c **** *                                        purpose by connecting Tx and Rx lines
 924:Generated_Source\PSoC5/CAN.c **** *                                        externally. The transmitted messages
 925:Generated_Source\PSoC5/CAN.c **** *                                        are received back and processed by the
 926:Generated_Source\PSoC5/CAN.c **** *                                        CAN controller in this mode.
 927:Generated_Source\PSoC5/CAN.c **** *                                        Not available for PSoC3/5.
 928:Generated_Source\PSoC5/CAN.c **** * Return:
 929:Generated_Source\PSoC5/CAN.c **** *  The indication whether the register is written and verified.
 930:Generated_Source\PSoC5/CAN.c **** *   Define                             Description
 931:Generated_Source\PSoC5/CAN.c **** *    CYRET_SUCCESS                      The function passed successfully
 932:Generated_Source\PSoC5/CAN.c **** *    CAN_FAIL              The function failed
 933:Generated_Source\PSoC5/CAN.c **** *
 934:Generated_Source\PSoC5/CAN.c **** * Side Effects:
 935:Generated_Source\PSoC5/CAN.c **** *  For PSoC 4 device family the function re-initializes the CAN registers.
 936:Generated_Source\PSoC5/CAN.c **** *
 937:Generated_Source\PSoC5/CAN.c **** *******************************************************************************/
 938:Generated_Source\PSoC5/CAN.c **** uint8 CAN_SetOpMode(uint8 opMode) 
 939:Generated_Source\PSoC5/CAN.c **** {
 1234              		.loc 1 939 0
 1235              		.cfi_startproc
 1236              		@ args = 0, pretend = 0, frame = 16
 1237              		@ frame_needed = 1, uses_anonymous_args = 0
 1238              		@ link register save eliminated.
 1239 0000 80B4     		push	{r7}
 1240              		.cfi_def_cfa_offset 4
 1241              		.cfi_offset 7, -4
 1242 0002 85B0     		sub	sp, sp, #20
 1243              		.cfi_def_cfa_offset 24
 1244 0004 00AF     		add	r7, sp, #0
 1245              		.cfi_def_cfa_register 7
 1246 0006 0346     		mov	r3, r0
 1247 0008 FB71     		strb	r3, [r7, #7]
 940:Generated_Source\PSoC5/CAN.c ****     #if (CY_PSOC3 || CY_PSOC5)
 941:Generated_Source\PSoC5/CAN.c ****         uint32 timeout;
 942:Generated_Source\PSoC5/CAN.c ****     #endif /* CY_PSOC3 || CY_PSOC5 */
 943:Generated_Source\PSoC5/CAN.c ****     uint8 result = CAN_FAIL;
 1248              		.loc 1 943 0
 1249 000a 0123     		movs	r3, #1
 1250 000c FB72     		strb	r3, [r7, #11]
 944:Generated_Source\PSoC5/CAN.c ****     uint8 runState = CAN_STOP_MODE;
 1251              		.loc 1 944 0
 1252 000e 0023     		movs	r3, #0
 1253 0010 BB72     		strb	r3, [r7, #10]
 945:Generated_Source\PSoC5/CAN.c **** 
 946:Generated_Source\PSoC5/CAN.c ****     #if (CY_PSOC3 || CY_PSOC5)
 947:Generated_Source\PSoC5/CAN.c ****         if (((CAN_CMD_REG.byte[0u] & CAN_ACTIVE_RUN_MODE) != 0u) ||
 1254              		.loc 1 947 0
 1255 0012 2C4B     		ldr	r3, .L101
 1256 0014 1B78     		ldrb	r3, [r3]
 1257 0016 DBB2     		uxtb	r3, r3
 1258 0018 03F00103 		and	r3, r3, #1
 1259 001c 002B     		cmp	r3, #0
 1260 001e 02D1     		bne	.L89
 1261              		.loc 1 947 0 is_stmt 0 discriminator 1
 1262 0020 FB79     		ldrb	r3, [r7, #7]	@ zero_extendqisi2
 1263 0022 012B     		cmp	r3, #1
ARM GAS  C:\Users\badea\AppData\Local\Temp\cc3YEltE.s 			page 40


 1264 0024 01D1     		bne	.L90
 1265              	.L89:
 948:Generated_Source\PSoC5/CAN.c ****             (opMode == CAN_ACTIVE_RUN_MODE))
 949:Generated_Source\PSoC5/CAN.c ****         {
 950:Generated_Source\PSoC5/CAN.c ****             runState = CAN_ACTIVE_RUN_MODE;
 1266              		.loc 1 950 0 is_stmt 1
 1267 0026 0123     		movs	r3, #1
 1268 0028 BB72     		strb	r3, [r7, #10]
 1269              	.L90:
 951:Generated_Source\PSoC5/CAN.c ****         }
 952:Generated_Source\PSoC5/CAN.c **** 
 953:Generated_Source\PSoC5/CAN.c ****         /* Set CAN to the Stop Mode */
 954:Generated_Source\PSoC5/CAN.c ****         CAN_CMD_REG.byte[0u] = CAN_STOP_MODE;
 1270              		.loc 1 954 0
 1271 002a 264B     		ldr	r3, .L101
 1272 002c 0022     		movs	r2, #0
 1273 002e 1A70     		strb	r2, [r3]
 955:Generated_Source\PSoC5/CAN.c **** 
 956:Generated_Source\PSoC5/CAN.c ****         /* Timeout for CAN state machine to switch mode to Stop */
 957:Generated_Source\PSoC5/CAN.c ****         for (timeout = CAN_MODE_STATE_STOP_TIMEOUT;
 1274              		.loc 1 957 0
 1275 0030 4FF4F053 		mov	r3, #7680
 1276 0034 FB60     		str	r3, [r7, #12]
 1277 0036 02E0     		b	.L91
 1278              	.L93:
 958:Generated_Source\PSoC5/CAN.c ****             (timeout != 0u) && ((CAN_CMD_REG.byte[0u] & CAN_ACTIVE_RUN_MODE) != 0u);
 959:Generated_Source\PSoC5/CAN.c ****              timeout--)
 1279              		.loc 1 959 0
 1280 0038 FB68     		ldr	r3, [r7, #12]
 1281 003a 013B     		subs	r3, r3, #1
 1282 003c FB60     		str	r3, [r7, #12]
 1283              	.L91:
 957:Generated_Source\PSoC5/CAN.c ****             (timeout != 0u) && ((CAN_CMD_REG.byte[0u] & CAN_ACTIVE_RUN_MODE) != 0u);
 1284              		.loc 1 957 0 discriminator 1
 1285 003e FB68     		ldr	r3, [r7, #12]
 1286 0040 002B     		cmp	r3, #0
 1287 0042 06D0     		beq	.L92
 958:Generated_Source\PSoC5/CAN.c ****             (timeout != 0u) && ((CAN_CMD_REG.byte[0u] & CAN_ACTIVE_RUN_MODE) != 0u);
 1288              		.loc 1 958 0
 1289 0044 1F4B     		ldr	r3, .L101
 1290 0046 1B78     		ldrb	r3, [r3]
 1291 0048 DBB2     		uxtb	r3, r3
 1292 004a 03F00103 		and	r3, r3, #1
 1293 004e 002B     		cmp	r3, #0
 1294 0050 F2D1     		bne	.L93
 1295              	.L92:
 960:Generated_Source\PSoC5/CAN.c ****         {
 961:Generated_Source\PSoC5/CAN.c ****         }
 962:Generated_Source\PSoC5/CAN.c **** 
 963:Generated_Source\PSoC5/CAN.c ****         if (timeout != 0u)
 1296              		.loc 1 963 0
 1297 0052 FB68     		ldr	r3, [r7, #12]
 1298 0054 002B     		cmp	r3, #0
 1299 0056 01D0     		beq	.L94
 964:Generated_Source\PSoC5/CAN.c ****         {
 965:Generated_Source\PSoC5/CAN.c ****             result = CYRET_SUCCESS;
 1300              		.loc 1 965 0
ARM GAS  C:\Users\badea\AppData\Local\Temp\cc3YEltE.s 			page 41


 1301 0058 0023     		movs	r3, #0
 1302 005a FB72     		strb	r3, [r7, #11]
 1303              	.L94:
 966:Generated_Source\PSoC5/CAN.c ****         }
 967:Generated_Source\PSoC5/CAN.c **** 
 968:Generated_Source\PSoC5/CAN.c ****         if ((result == CYRET_SUCCESS) && (opMode != CAN_STOP_MODE))
 1304              		.loc 1 968 0
 1305 005c FB7A     		ldrb	r3, [r7, #11]	@ zero_extendqisi2
 1306 005e 002B     		cmp	r3, #0
 1307 0060 29D1     		bne	.L95
 1308              		.loc 1 968 0 is_stmt 0 discriminator 1
 1309 0062 FB79     		ldrb	r3, [r7, #7]	@ zero_extendqisi2
 1310 0064 002B     		cmp	r3, #0
 1311 0066 26D0     		beq	.L95
 969:Generated_Source\PSoC5/CAN.c ****         {
 970:Generated_Source\PSoC5/CAN.c ****             if (opMode == CAN_LISTEN_ONLY_MODE)
 1312              		.loc 1 970 0 is_stmt 1
 1313 0068 FB79     		ldrb	r3, [r7, #7]	@ zero_extendqisi2
 1314 006a 022B     		cmp	r3, #2
 1315 006c 02D1     		bne	.L96
 971:Generated_Source\PSoC5/CAN.c ****             {
 972:Generated_Source\PSoC5/CAN.c ****                 CAN_CMD_REG.byte[0u] = CAN_LISTEN_ONLY_MODE;
 1316              		.loc 1 972 0
 1317 006e 154B     		ldr	r3, .L101
 1318 0070 0222     		movs	r2, #2
 1319 0072 1A70     		strb	r2, [r3]
 1320              	.L96:
 973:Generated_Source\PSoC5/CAN.c ****             }
 974:Generated_Source\PSoC5/CAN.c **** 
 975:Generated_Source\PSoC5/CAN.c ****             if (runState == CAN_ACTIVE_RUN_MODE)
 1321              		.loc 1 975 0
 1322 0074 BB7A     		ldrb	r3, [r7, #10]	@ zero_extendqisi2
 1323 0076 012B     		cmp	r3, #1
 1324 0078 1DD1     		bne	.L95
 976:Generated_Source\PSoC5/CAN.c ****             {
 977:Generated_Source\PSoC5/CAN.c ****                 CAN_CMD_REG.byte[0u] |= CAN_ACTIVE_RUN_MODE;
 1325              		.loc 1 977 0
 1326 007a 124A     		ldr	r2, .L101
 1327 007c 114B     		ldr	r3, .L101
 1328 007e 1B78     		ldrb	r3, [r3]
 1329 0080 DBB2     		uxtb	r3, r3
 1330 0082 43F00103 		orr	r3, r3, #1
 1331 0086 DBB2     		uxtb	r3, r3
 1332 0088 1370     		strb	r3, [r2]
 978:Generated_Source\PSoC5/CAN.c **** 
 979:Generated_Source\PSoC5/CAN.c ****                 /* Timeout for CAN state machine to switch mode to Run */
 980:Generated_Source\PSoC5/CAN.c ****                 for (timeout = CAN_MODE_STATE_RUN_TIMEOUT;
 1333              		.loc 1 980 0
 1334 008a 4FF41073 		mov	r3, #576
 1335 008e FB60     		str	r3, [r7, #12]
 1336 0090 02E0     		b	.L97
 1337              	.L99:
 981:Generated_Source\PSoC5/CAN.c ****                     (timeout != 0u) && ((CAN_CMD_REG.byte[0u] & CAN_MODE_MASK) == 0u);
 982:Generated_Source\PSoC5/CAN.c ****                      timeout--)
 1338              		.loc 1 982 0
 1339 0092 FB68     		ldr	r3, [r7, #12]
 1340 0094 013B     		subs	r3, r3, #1
ARM GAS  C:\Users\badea\AppData\Local\Temp\cc3YEltE.s 			page 42


 1341 0096 FB60     		str	r3, [r7, #12]
 1342              	.L97:
 980:Generated_Source\PSoC5/CAN.c ****                     (timeout != 0u) && ((CAN_CMD_REG.byte[0u] & CAN_MODE_MASK) == 0u);
 1343              		.loc 1 980 0 discriminator 1
 1344 0098 FB68     		ldr	r3, [r7, #12]
 1345 009a 002B     		cmp	r3, #0
 1346 009c 06D0     		beq	.L98
 981:Generated_Source\PSoC5/CAN.c ****                     (timeout != 0u) && ((CAN_CMD_REG.byte[0u] & CAN_MODE_MASK) == 0u);
 1347              		.loc 1 981 0
 1348 009e 094B     		ldr	r3, .L101
 1349 00a0 1B78     		ldrb	r3, [r3]
 1350 00a2 DBB2     		uxtb	r3, r3
 1351 00a4 03F00103 		and	r3, r3, #1
 1352 00a8 002B     		cmp	r3, #0
 1353 00aa F2D0     		beq	.L99
 1354              	.L98:
 983:Generated_Source\PSoC5/CAN.c ****                 {
 984:Generated_Source\PSoC5/CAN.c ****                 }
 985:Generated_Source\PSoC5/CAN.c **** 
 986:Generated_Source\PSoC5/CAN.c ****                 if (timeout == 0u)
 1355              		.loc 1 986 0
 1356 00ac FB68     		ldr	r3, [r7, #12]
 1357 00ae 002B     		cmp	r3, #0
 1358 00b0 01D1     		bne	.L95
 987:Generated_Source\PSoC5/CAN.c ****                 {
 988:Generated_Source\PSoC5/CAN.c ****                     result = CAN_FAIL;
 1359              		.loc 1 988 0
 1360 00b2 0123     		movs	r3, #1
 1361 00b4 FB72     		strb	r3, [r7, #11]
 1362              	.L95:
 989:Generated_Source\PSoC5/CAN.c ****                 }
 990:Generated_Source\PSoC5/CAN.c ****             }
 991:Generated_Source\PSoC5/CAN.c ****         }
 992:Generated_Source\PSoC5/CAN.c ****     #else  /* CY_PSOC4 */
 993:Generated_Source\PSoC5/CAN.c ****         if (((CAN_CMD_REG & CAN_MODE_MASK) != 0u) ||
 994:Generated_Source\PSoC5/CAN.c ****             (opMode == CAN_ACTIVE_RUN_MODE))
 995:Generated_Source\PSoC5/CAN.c ****         {
 996:Generated_Source\PSoC5/CAN.c ****             runState = CAN_ACTIVE_RUN_MODE;
 997:Generated_Source\PSoC5/CAN.c ****         }
 998:Generated_Source\PSoC5/CAN.c **** 
 999:Generated_Source\PSoC5/CAN.c ****         /* Sets CAN Component into the Stop mode */
1000:Generated_Source\PSoC5/CAN.c ****         if (CAN_Stop() == CYRET_SUCCESS)
1001:Generated_Source\PSoC5/CAN.c ****         {
1002:Generated_Source\PSoC5/CAN.c ****             /* Disable CAN IP Block to reset configuration before sets Operation Mode */
1003:Generated_Source\PSoC5/CAN.c ****             CAN_CNTL_REG = (uint32) (~CAN_IP_ENABLE);
1004:Generated_Source\PSoC5/CAN.c **** 
1005:Generated_Source\PSoC5/CAN.c ****             /* Enable CAN IP Block */
1006:Generated_Source\PSoC5/CAN.c ****             CAN_CNTL_REG = CAN_IP_ENABLE;
1007:Generated_Source\PSoC5/CAN.c **** 
1008:Generated_Source\PSoC5/CAN.c ****             result = CAN_Init();
1009:Generated_Source\PSoC5/CAN.c **** 
1010:Generated_Source\PSoC5/CAN.c ****             if ((result == CYRET_SUCCESS) && (opMode != CAN_STOP_MODE))
1011:Generated_Source\PSoC5/CAN.c ****             {
1012:Generated_Source\PSoC5/CAN.c ****                 if (opMode != CAN_ACTIVE_RUN_MODE)
1013:Generated_Source\PSoC5/CAN.c ****                 {
1014:Generated_Source\PSoC5/CAN.c ****                     /* Set CAN Operation Mode */
1015:Generated_Source\PSoC5/CAN.c ****                     CAN_CMD_REG |= opMode;
ARM GAS  C:\Users\badea\AppData\Local\Temp\cc3YEltE.s 			page 43


1016:Generated_Source\PSoC5/CAN.c ****                 }
1017:Generated_Source\PSoC5/CAN.c **** 
1018:Generated_Source\PSoC5/CAN.c ****                 if (runState == CAN_ACTIVE_RUN_MODE)
1019:Generated_Source\PSoC5/CAN.c ****                 {
1020:Generated_Source\PSoC5/CAN.c ****                     /* Enable component's operation */
1021:Generated_Source\PSoC5/CAN.c ****                     result = CAN_Enable();
1022:Generated_Source\PSoC5/CAN.c ****                 }
1023:Generated_Source\PSoC5/CAN.c ****             }
1024:Generated_Source\PSoC5/CAN.c ****         }
1025:Generated_Source\PSoC5/CAN.c ****     #endif /* CY_PSOC3 || CY_PSOC5 */
1026:Generated_Source\PSoC5/CAN.c **** 
1027:Generated_Source\PSoC5/CAN.c ****     return (result);
 1363              		.loc 1 1027 0
 1364 00b6 FB7A     		ldrb	r3, [r7, #11]	@ zero_extendqisi2
1028:Generated_Source\PSoC5/CAN.c **** }
 1365              		.loc 1 1028 0
 1366 00b8 1846     		mov	r0, r3
 1367 00ba 1437     		adds	r7, r7, #20
 1368              		.cfi_def_cfa_offset 4
 1369 00bc BD46     		mov	sp, r7
 1370              		.cfi_def_cfa_register 13
 1371              		@ sp needed
 1372 00be 80BC     		pop	{r7}
 1373              		.cfi_restore 7
 1374              		.cfi_def_cfa_offset 0
 1375 00c0 7047     		bx	lr
 1376              	.L102:
 1377 00c2 00BF     		.align	2
 1378              	.L101:
 1379 00c4 10A00040 		.word	1073782800
 1380              		.cfi_endproc
 1381              	.LFE12:
 1382              		.size	CAN_SetOpMode, .-CAN_SetOpMode
 1383              		.section	.text.CAN_RXRegisterInit,"ax",%progbits
 1384              		.align	2
 1385              		.global	CAN_RXRegisterInit
 1386              		.thumb
 1387              		.thumb_func
 1388              		.type	CAN_RXRegisterInit, %function
 1389              	CAN_RXRegisterInit:
 1390              	.LFB13:
1029:Generated_Source\PSoC5/CAN.c **** 
1030:Generated_Source\PSoC5/CAN.c **** 
1031:Generated_Source\PSoC5/CAN.c **** /*******************************************************************************
1032:Generated_Source\PSoC5/CAN.c **** * FUNCTION NAME:   CAN_RXRegisterInit
1033:Generated_Source\PSoC5/CAN.c **** ********************************************************************************
1034:Generated_Source\PSoC5/CAN.c **** *
1035:Generated_Source\PSoC5/CAN.c **** * Summary:
1036:Generated_Source\PSoC5/CAN.c **** *  This function writes only receive CAN registers.
1037:Generated_Source\PSoC5/CAN.c **** *
1038:Generated_Source\PSoC5/CAN.c **** * Parameters:
1039:Generated_Source\PSoC5/CAN.c **** *  regAddr: The pointer to a CAN receive register;
1040:Generated_Source\PSoC5/CAN.c **** *  config:  The value that will be written in the register.
1041:Generated_Source\PSoC5/CAN.c **** *
1042:Generated_Source\PSoC5/CAN.c **** * Return:
1043:Generated_Source\PSoC5/CAN.c **** *  The indication whether the register is written and verified.
1044:Generated_Source\PSoC5/CAN.c **** *   Define                             Description
ARM GAS  C:\Users\badea\AppData\Local\Temp\cc3YEltE.s 			page 44


1045:Generated_Source\PSoC5/CAN.c **** *    CYRET_SUCCESS                      The function passed successfully
1046:Generated_Source\PSoC5/CAN.c **** *    CAN_FAIL              The function failed
1047:Generated_Source\PSoC5/CAN.c **** *    CAN_OUT_OF_RANGE      The function parameter is out of range
1048:Generated_Source\PSoC5/CAN.c **** *
1049:Generated_Source\PSoC5/CAN.c **** *******************************************************************************/
1050:Generated_Source\PSoC5/CAN.c **** uint8 CAN_RXRegisterInit(reg32 *regAddr, uint32 config)
1051:Generated_Source\PSoC5/CAN.c ****                                       
1052:Generated_Source\PSoC5/CAN.c **** {
 1391              		.loc 1 1052 0
 1392              		.cfi_startproc
 1393              		@ args = 0, pretend = 0, frame = 16
 1394              		@ frame_needed = 1, uses_anonymous_args = 0
 1395              		@ link register save eliminated.
 1396 0000 80B4     		push	{r7}
 1397              		.cfi_def_cfa_offset 4
 1398              		.cfi_offset 7, -4
 1399 0002 85B0     		sub	sp, sp, #20
 1400              		.cfi_def_cfa_offset 24
 1401 0004 00AF     		add	r7, sp, #0
 1402              		.cfi_def_cfa_register 7
 1403 0006 7860     		str	r0, [r7, #4]
 1404 0008 3960     		str	r1, [r7]
1053:Generated_Source\PSoC5/CAN.c ****     uint8 result = CAN_OUT_OF_RANGE;
 1405              		.loc 1 1053 0
 1406 000a 0223     		movs	r3, #2
 1407 000c FB73     		strb	r3, [r7, #15]
1054:Generated_Source\PSoC5/CAN.c **** 
1055:Generated_Source\PSoC5/CAN.c ****     if ((((uint32) regAddr & CAN_REG_ADDR_MASK) >=
 1408              		.loc 1 1055 0
 1409 000e 7B68     		ldr	r3, [r7, #4]
 1410 0010 9BB2     		uxth	r3, r3
 1411 0012 4AF29F02 		movw	r2, #41119
 1412 0016 9342     		cmp	r3, r2
 1413 0018 38D9     		bls	.L104
1056:Generated_Source\PSoC5/CAN.c ****         ((uint32) CAN_RX_FIRST_REGISTER_PTR & CAN_REG_ADDR_MASK)) &&
1057:Generated_Source\PSoC5/CAN.c ****         ((((uint32) regAddr & CAN_REG_ADDR_MASK)) <=
 1414              		.loc 1 1057 0
 1415 001a 7B68     		ldr	r3, [r7, #4]
 1416 001c 9BB2     		uxth	r3, r3
1056:Generated_Source\PSoC5/CAN.c ****         ((uint32) CAN_RX_FIRST_REGISTER_PTR & CAN_REG_ADDR_MASK)) &&
 1417              		.loc 1 1056 0
 1418 001e 4AF29C22 		movw	r2, #41628
 1419 0022 9342     		cmp	r3, r2
 1420 0024 32D8     		bhi	.L104
1058:Generated_Source\PSoC5/CAN.c ****         ((uint32) CAN_RX_LAST_REGISTER_PTR & CAN_REG_ADDR_MASK)))
1059:Generated_Source\PSoC5/CAN.c ****     {
1060:Generated_Source\PSoC5/CAN.c ****         result = CAN_FAIL;
 1421              		.loc 1 1060 0
 1422 0026 0123     		movs	r3, #1
 1423 0028 FB73     		strb	r3, [r7, #15]
1061:Generated_Source\PSoC5/CAN.c **** 
1062:Generated_Source\PSoC5/CAN.c ****         if ((((uint32) regAddr & CAN_REG_ADDR_MASK) % CAN_RX_CMD_REG_WIDTH) == 0u)
 1424              		.loc 1 1062 0
 1425 002a 7B68     		ldr	r3, [r7, #4]
 1426 002c 03F01F03 		and	r3, r3, #31
 1427 0030 002B     		cmp	r3, #0
 1428 0032 19D1     		bne	.L105
ARM GAS  C:\Users\badea\AppData\Local\Temp\cc3YEltE.s 			page 45


1063:Generated_Source\PSoC5/CAN.c ****         {
1064:Generated_Source\PSoC5/CAN.c ****             config |= CAN_RX_WPN_SET;
 1429              		.loc 1 1064 0
 1430 0034 3B68     		ldr	r3, [r7]
 1431 0036 43F08013 		orr	r3, r3, #8388736
 1432 003a 3B60     		str	r3, [r7]
1065:Generated_Source\PSoC5/CAN.c **** 
1066:Generated_Source\PSoC5/CAN.c ****     /* Disable isr */
1067:Generated_Source\PSoC5/CAN.c ****     CyIntDisable(CAN_ISR_NUMBER);
 1433              		.loc 1 1067 0
 1434 003c 164B     		ldr	r3, .L108
 1435 003e 4FF48032 		mov	r2, #65536
 1436 0042 1A60     		str	r2, [r3]
1068:Generated_Source\PSoC5/CAN.c **** 
1069:Generated_Source\PSoC5/CAN.c ****             /* Write defined RX CMD registers */
1070:Generated_Source\PSoC5/CAN.c ****             CY_SET_REG32(regAddr, config);
 1437              		.loc 1 1070 0
 1438 0044 7B68     		ldr	r3, [r7, #4]
 1439 0046 3A68     		ldr	r2, [r7]
 1440 0048 1A60     		str	r2, [r3]
1071:Generated_Source\PSoC5/CAN.c **** 
1072:Generated_Source\PSoC5/CAN.c ****     /* Enable isr */
1073:Generated_Source\PSoC5/CAN.c ****     CyIntEnable(CAN_ISR_NUMBER);
 1441              		.loc 1 1073 0
 1442 004a 144B     		ldr	r3, .L108+4
 1443 004c 4FF48032 		mov	r2, #65536
 1444 0050 1A60     		str	r2, [r3]
1074:Generated_Source\PSoC5/CAN.c **** 
1075:Generated_Source\PSoC5/CAN.c ****             /* Verify register */
1076:Generated_Source\PSoC5/CAN.c ****             if ((CY_GET_REG32(regAddr) & CAN_RX_READ_BACK_MASK) ==
 1445              		.loc 1 1076 0
 1446 0052 7B68     		ldr	r3, [r7, #4]
 1447 0054 1A68     		ldr	r2, [r3]
 1448 0056 3B68     		ldr	r3, [r7]
 1449 0058 5340     		eors	r3, r3, r2
 1450 005a 03F07F13 		and	r3, r3, #8323199
 1451 005e 002B     		cmp	r3, #0
 1452 0060 14D1     		bne	.L104
1077:Generated_Source\PSoC5/CAN.c ****                 (config & CAN_RX_READ_BACK_MASK))
1078:Generated_Source\PSoC5/CAN.c ****             {
1079:Generated_Source\PSoC5/CAN.c ****                 result = CYRET_SUCCESS;
 1453              		.loc 1 1079 0
 1454 0062 0023     		movs	r3, #0
 1455 0064 FB73     		strb	r3, [r7, #15]
 1456 0066 11E0     		b	.L104
 1457              	.L105:
1080:Generated_Source\PSoC5/CAN.c ****             }
1081:Generated_Source\PSoC5/CAN.c ****         }
1082:Generated_Source\PSoC5/CAN.c ****         /* All registers except RX CMD*/
1083:Generated_Source\PSoC5/CAN.c ****         else
1084:Generated_Source\PSoC5/CAN.c ****         {
1085:Generated_Source\PSoC5/CAN.c ****     /* Disable isr */
1086:Generated_Source\PSoC5/CAN.c ****     CyIntDisable(CAN_ISR_NUMBER);
 1458              		.loc 1 1086 0
 1459 0068 0B4B     		ldr	r3, .L108
 1460 006a 4FF48032 		mov	r2, #65536
 1461 006e 1A60     		str	r2, [r3]
ARM GAS  C:\Users\badea\AppData\Local\Temp\cc3YEltE.s 			page 46


1087:Generated_Source\PSoC5/CAN.c **** 
1088:Generated_Source\PSoC5/CAN.c ****             /* Write defined CAN receive register */
1089:Generated_Source\PSoC5/CAN.c ****             CY_SET_REG32(regAddr, config);
 1462              		.loc 1 1089 0
 1463 0070 7B68     		ldr	r3, [r7, #4]
 1464 0072 3A68     		ldr	r2, [r7]
 1465 0074 1A60     		str	r2, [r3]
1090:Generated_Source\PSoC5/CAN.c **** 
1091:Generated_Source\PSoC5/CAN.c ****     /* Enable isr */
1092:Generated_Source\PSoC5/CAN.c ****     CyIntEnable(CAN_ISR_NUMBER);
 1466              		.loc 1 1092 0
 1467 0076 094B     		ldr	r3, .L108+4
 1468 0078 4FF48032 		mov	r2, #65536
 1469 007c 1A60     		str	r2, [r3]
1093:Generated_Source\PSoC5/CAN.c **** 
1094:Generated_Source\PSoC5/CAN.c ****             /* Verify register */
1095:Generated_Source\PSoC5/CAN.c ****             if (CY_GET_REG32(regAddr) == config)
 1470              		.loc 1 1095 0
 1471 007e 7B68     		ldr	r3, [r7, #4]
 1472 0080 1A68     		ldr	r2, [r3]
 1473 0082 3B68     		ldr	r3, [r7]
 1474 0084 9A42     		cmp	r2, r3
 1475 0086 01D1     		bne	.L104
1096:Generated_Source\PSoC5/CAN.c ****             {
1097:Generated_Source\PSoC5/CAN.c ****                 result = CYRET_SUCCESS;
 1476              		.loc 1 1097 0
 1477 0088 0023     		movs	r3, #0
 1478 008a FB73     		strb	r3, [r7, #15]
 1479              	.L104:
1098:Generated_Source\PSoC5/CAN.c ****             }
1099:Generated_Source\PSoC5/CAN.c ****         }
1100:Generated_Source\PSoC5/CAN.c ****     }
1101:Generated_Source\PSoC5/CAN.c **** 
1102:Generated_Source\PSoC5/CAN.c ****     return (result);
 1480              		.loc 1 1102 0
 1481 008c FB7B     		ldrb	r3, [r7, #15]	@ zero_extendqisi2
1103:Generated_Source\PSoC5/CAN.c **** }
 1482              		.loc 1 1103 0
 1483 008e 1846     		mov	r0, r3
 1484 0090 1437     		adds	r7, r7, #20
 1485              		.cfi_def_cfa_offset 4
 1486 0092 BD46     		mov	sp, r7
 1487              		.cfi_def_cfa_register 13
 1488              		@ sp needed
 1489 0094 80BC     		pop	{r7}
 1490              		.cfi_restore 7
 1491              		.cfi_def_cfa_offset 0
 1492 0096 7047     		bx	lr
 1493              	.L109:
 1494              		.align	2
 1495              	.L108:
 1496 0098 80E100E0 		.word	-536813184
 1497 009c 00E100E0 		.word	-536813312
 1498              		.cfi_endproc
 1499              	.LFE13:
 1500              		.size	CAN_RXRegisterInit, .-CAN_RXRegisterInit
 1501              		.section	.text.CAN_SetIrqMask,"ax",%progbits
ARM GAS  C:\Users\badea\AppData\Local\Temp\cc3YEltE.s 			page 47


 1502              		.align	2
 1503              		.global	CAN_SetIrqMask
 1504              		.thumb
 1505              		.thumb_func
 1506              		.type	CAN_SetIrqMask, %function
 1507              	CAN_SetIrqMask:
 1508              	.LFB14:
1104:Generated_Source\PSoC5/CAN.c **** 
1105:Generated_Source\PSoC5/CAN.c **** 
1106:Generated_Source\PSoC5/CAN.c **** /*******************************************************************************
1107:Generated_Source\PSoC5/CAN.c **** * FUNCTION NAME:   CAN_SetIrqMask
1108:Generated_Source\PSoC5/CAN.c **** ********************************************************************************
1109:Generated_Source\PSoC5/CAN.c **** *
1110:Generated_Source\PSoC5/CAN.c **** * Summary:
1111:Generated_Source\PSoC5/CAN.c **** *  This function sets to enable/disable particular interrupt sources. Interrupt
1112:Generated_Source\PSoC5/CAN.c **** *  Mask directly write to the CAN Interrupt Enable register. A particular
1113:Generated_Source\PSoC5/CAN.c **** *  interrupt source is enabled by setting its respective flag to 1.
1114:Generated_Source\PSoC5/CAN.c **** *
1115:Generated_Source\PSoC5/CAN.c **** * Parameters:
1116:Generated_Source\PSoC5/CAN.c **** *  mask: Interrupt enable/disable request. 1 bit per interrupt source.
1117:Generated_Source\PSoC5/CAN.c **** *   Define                                    Description
1118:Generated_Source\PSoC5/CAN.c **** *    CAN_GLOBAL_INT_ENABLE        Global Interrupt Enable Flag
1119:Generated_Source\PSoC5/CAN.c **** *    CAN_ARBITRATION_LOST_ENABLE  Arbitration Loss Interrupt Enable
1120:Generated_Source\PSoC5/CAN.c **** *    CAN_OVERLOAD_ERROR_ENABLE    Overload Interrupt Enable
1121:Generated_Source\PSoC5/CAN.c **** *    CAN_BIT_ERROR_ENABLE         Bit Error Interrupt Enable
1122:Generated_Source\PSoC5/CAN.c **** *    CAN_STUFF_ERROR_ENABLE       Stuff Error Interrupt Enable
1123:Generated_Source\PSoC5/CAN.c **** *    CAN_ACK_ERROR_ENABLE         Ack Error Interrupt Enable
1124:Generated_Source\PSoC5/CAN.c **** *    CAN_FORM_ERROR_ENABLE        Form Error Interrupt Enable
1125:Generated_Source\PSoC5/CAN.c **** *    CAN_CRC_ERROR_ENABLE         CRC Error Interrupt Enable
1126:Generated_Source\PSoC5/CAN.c **** *    CAN_BUS_OFF_ENABLE           Bus-Off State Interrupt Enable
1127:Generated_Source\PSoC5/CAN.c **** *    CAN_RX_MSG_LOST_ENABLE       Rx Msg Loss Interrupt Enable
1128:Generated_Source\PSoC5/CAN.c **** *    CAN_TX_MESSAGE_ENABLE        Tx Msg Sent Interrupt Enable
1129:Generated_Source\PSoC5/CAN.c **** *    CAN_RX_MESSAGE_ENABLE        Msg Received Interrupt Enable
1130:Generated_Source\PSoC5/CAN.c **** *    CAN_RTR_MESSAGE_ENABLE       RTR Auto-reply Interrupt Enable
1131:Generated_Source\PSoC5/CAN.c **** *    CAN_STUCK_AT_ZERO_ENABLE     Stuck at dominant error Interrupt
1132:Generated_Source\PSoC5/CAN.c **** *                                              Enable
1133:Generated_Source\PSoC5/CAN.c **** *    CAN_SST_FAILURE_ENABLE       SST failure Interrupt Enable
1134:Generated_Source\PSoC5/CAN.c **** *
1135:Generated_Source\PSoC5/CAN.c **** * Return:
1136:Generated_Source\PSoC5/CAN.c **** *  The indication whether the register is written and verified.
1137:Generated_Source\PSoC5/CAN.c **** *   Define                             Description
1138:Generated_Source\PSoC5/CAN.c **** *    CYRET_SUCCESS                      The function passed successfully
1139:Generated_Source\PSoC5/CAN.c **** *    CAN_FAIL              The function failed
1140:Generated_Source\PSoC5/CAN.c **** *
1141:Generated_Source\PSoC5/CAN.c **** *******************************************************************************/
1142:Generated_Source\PSoC5/CAN.c **** uint8 CAN_SetIrqMask(uint16 mask) 
1143:Generated_Source\PSoC5/CAN.c **** {
 1509              		.loc 1 1143 0
 1510              		.cfi_startproc
 1511              		@ args = 0, pretend = 0, frame = 16
 1512              		@ frame_needed = 1, uses_anonymous_args = 0
 1513              		@ link register save eliminated.
 1514 0000 80B4     		push	{r7}
 1515              		.cfi_def_cfa_offset 4
 1516              		.cfi_offset 7, -4
 1517 0002 85B0     		sub	sp, sp, #20
 1518              		.cfi_def_cfa_offset 24
ARM GAS  C:\Users\badea\AppData\Local\Temp\cc3YEltE.s 			page 48


 1519 0004 00AF     		add	r7, sp, #0
 1520              		.cfi_def_cfa_register 7
 1521 0006 0346     		mov	r3, r0
 1522 0008 FB80     		strh	r3, [r7, #6]	@ movhi
1144:Generated_Source\PSoC5/CAN.c ****     uint8 result = CAN_FAIL;
 1523              		.loc 1 1144 0
 1524 000a 0123     		movs	r3, #1
 1525 000c FB73     		strb	r3, [r7, #15]
1145:Generated_Source\PSoC5/CAN.c **** 
1146:Generated_Source\PSoC5/CAN.c ****     #if (CY_PSOC3 || CY_PSOC5)
1147:Generated_Source\PSoC5/CAN.c ****         /* Write byte 0 and 1 of CAN_INT_EN_REG register */
1148:Generated_Source\PSoC5/CAN.c ****         CY_SET_REG16((reg16 *) (&CAN_INT_EN_REG), mask);
 1526              		.loc 1 1148 0
 1527 000e 084A     		ldr	r2, .L113
 1528 0010 FB88     		ldrh	r3, [r7, #6]	@ movhi
 1529 0012 1380     		strh	r3, [r2]	@ movhi
1149:Generated_Source\PSoC5/CAN.c **** 
1150:Generated_Source\PSoC5/CAN.c ****         /* Verify CAN_INT_EN_REG register */
1151:Generated_Source\PSoC5/CAN.c ****         if (CY_GET_REG16((reg16 *) (&CAN_INT_EN_REG)) == mask)
 1530              		.loc 1 1151 0
 1531 0014 064B     		ldr	r3, .L113
 1532 0016 1B88     		ldrh	r3, [r3]	@ movhi
 1533 0018 9BB2     		uxth	r3, r3
 1534 001a FA88     		ldrh	r2, [r7, #6]
 1535 001c 9A42     		cmp	r2, r3
 1536 001e 01D1     		bne	.L111
1152:Generated_Source\PSoC5/CAN.c ****         {
1153:Generated_Source\PSoC5/CAN.c ****             result = CYRET_SUCCESS;
 1537              		.loc 1 1153 0
 1538 0020 0023     		movs	r3, #0
 1539 0022 FB73     		strb	r3, [r7, #15]
 1540              	.L111:
1154:Generated_Source\PSoC5/CAN.c ****         }
1155:Generated_Source\PSoC5/CAN.c ****     #else  /* CY_PSOC4 */
1156:Generated_Source\PSoC5/CAN.c ****         /* Write byte 0 and 1 of CAN_INT_EN_REG register */
1157:Generated_Source\PSoC5/CAN.c ****         CAN_INT_EN_REG = mask;
1158:Generated_Source\PSoC5/CAN.c **** 
1159:Generated_Source\PSoC5/CAN.c ****         /* Verify CAN_INT_EN_REG register */
1160:Generated_Source\PSoC5/CAN.c ****         if ((CAN_INT_EN_REG & CAN_REG_ADDR_MASK) == mask)
1161:Generated_Source\PSoC5/CAN.c ****         {
1162:Generated_Source\PSoC5/CAN.c ****             result = CYRET_SUCCESS;
1163:Generated_Source\PSoC5/CAN.c ****         }
1164:Generated_Source\PSoC5/CAN.c ****     #endif /* CY_PSOC3 || CY_PSOC5 */
1165:Generated_Source\PSoC5/CAN.c **** 
1166:Generated_Source\PSoC5/CAN.c ****     return (result);
 1541              		.loc 1 1166 0
 1542 0024 FB7B     		ldrb	r3, [r7, #15]	@ zero_extendqisi2
1167:Generated_Source\PSoC5/CAN.c **** }
 1543              		.loc 1 1167 0
 1544 0026 1846     		mov	r0, r3
 1545 0028 1437     		adds	r7, r7, #20
 1546              		.cfi_def_cfa_offset 4
 1547 002a BD46     		mov	sp, r7
 1548              		.cfi_def_cfa_register 13
 1549              		@ sp needed
 1550 002c 80BC     		pop	{r7}
 1551              		.cfi_restore 7
ARM GAS  C:\Users\badea\AppData\Local\Temp\cc3YEltE.s 			page 49


 1552              		.cfi_def_cfa_offset 0
 1553 002e 7047     		bx	lr
 1554              	.L114:
 1555              		.align	2
 1556              	.L113:
 1557 0030 04A00040 		.word	1073782788
 1558              		.cfi_endproc
 1559              	.LFE14:
 1560              		.size	CAN_SetIrqMask, .-CAN_SetIrqMask
 1561              		.section	.text.CAN_GetTXErrorFlag,"ax",%progbits
 1562              		.align	2
 1563              		.global	CAN_GetTXErrorFlag
 1564              		.thumb
 1565              		.thumb_func
 1566              		.type	CAN_GetTXErrorFlag, %function
 1567              	CAN_GetTXErrorFlag:
 1568              	.LFB15:
1168:Generated_Source\PSoC5/CAN.c **** 
1169:Generated_Source\PSoC5/CAN.c **** 
1170:Generated_Source\PSoC5/CAN.c **** /*******************************************************************************
1171:Generated_Source\PSoC5/CAN.c **** * FUNCTION NAME:   CAN_GetTXErrorFlag
1172:Generated_Source\PSoC5/CAN.c **** ********************************************************************************
1173:Generated_Source\PSoC5/CAN.c **** *
1174:Generated_Source\PSoC5/CAN.c **** * Summary:
1175:Generated_Source\PSoC5/CAN.c **** *  This function returns the bit that indicates if the number of TX errors
1176:Generated_Source\PSoC5/CAN.c **** *  exceeds 0x60.
1177:Generated_Source\PSoC5/CAN.c **** *
1178:Generated_Source\PSoC5/CAN.c **** * Parameters:
1179:Generated_Source\PSoC5/CAN.c **** *  None.
1180:Generated_Source\PSoC5/CAN.c **** *
1181:Generated_Source\PSoC5/CAN.c **** * Return:
1182:Generated_Source\PSoC5/CAN.c **** *  The indication whether the number of TX errors exceeds 0x60.
1183:Generated_Source\PSoC5/CAN.c **** *
1184:Generated_Source\PSoC5/CAN.c **** *******************************************************************************/
1185:Generated_Source\PSoC5/CAN.c **** uint8 CAN_GetTXErrorFlag(void) 
1186:Generated_Source\PSoC5/CAN.c **** {
 1569              		.loc 1 1186 0
 1570              		.cfi_startproc
 1571              		@ args = 0, pretend = 0, frame = 0
 1572              		@ frame_needed = 1, uses_anonymous_args = 0
 1573              		@ link register save eliminated.
 1574 0000 80B4     		push	{r7}
 1575              		.cfi_def_cfa_offset 4
 1576              		.cfi_offset 7, -4
 1577 0002 00AF     		add	r7, sp, #0
 1578              		.cfi_def_cfa_register 7
1187:Generated_Source\PSoC5/CAN.c ****     #if (CY_PSOC3 || CY_PSOC5)
1188:Generated_Source\PSoC5/CAN.c ****         /* Get state of transmit error flag */
1189:Generated_Source\PSoC5/CAN.c ****         return (((CAN_ERR_SR_REG.byte[2u] & CAN_TX_ERROR_FLAG_MASK) ==
 1579              		.loc 1 1189 0
 1580 0004 064B     		ldr	r3, .L119
 1581 0006 9B78     		ldrb	r3, [r3, #2]
 1582 0008 DBB2     		uxtb	r3, r3
 1583 000a 03F00403 		and	r3, r3, #4
 1584 000e 002B     		cmp	r3, #0
 1585 0010 01D0     		beq	.L116
 1586              		.loc 1 1189 0 is_stmt 0 discriminator 1
ARM GAS  C:\Users\badea\AppData\Local\Temp\cc3YEltE.s 			page 50


 1587 0012 0123     		movs	r3, #1
 1588 0014 00E0     		b	.L117
 1589              	.L116:
 1590              		.loc 1 1189 0 discriminator 2
 1591 0016 0023     		movs	r3, #0
 1592              	.L117:
1190:Generated_Source\PSoC5/CAN.c ****                   CAN_TX_ERROR_FLAG_MASK) ? 1u : 0u);
1191:Generated_Source\PSoC5/CAN.c ****     #else  /* CY_PSOC4 */
1192:Generated_Source\PSoC5/CAN.c ****         /* Get state of transmit error flag */
1193:Generated_Source\PSoC5/CAN.c ****         return (((CAN_ERR_SR_REG & CAN_TX_ERROR_FLAG_MASK) ==
1194:Generated_Source\PSoC5/CAN.c ****                   CAN_TX_ERROR_FLAG_MASK) ? 1u : 0u);
1195:Generated_Source\PSoC5/CAN.c ****     #endif /* CY_PSOC3 || CY_PSOC5 */
1196:Generated_Source\PSoC5/CAN.c **** 
1197:Generated_Source\PSoC5/CAN.c **** }
 1593              		.loc 1 1197 0 is_stmt 1 discriminator 4
 1594 0018 1846     		mov	r0, r3
 1595 001a BD46     		mov	sp, r7
 1596              		.cfi_def_cfa_register 13
 1597              		@ sp needed
 1598 001c 80BC     		pop	{r7}
 1599              		.cfi_restore 7
 1600              		.cfi_def_cfa_offset 0
 1601 001e 7047     		bx	lr
 1602              	.L120:
 1603              		.align	2
 1604              	.L119:
 1605 0020 0CA00040 		.word	1073782796
 1606              		.cfi_endproc
 1607              	.LFE15:
 1608              		.size	CAN_GetTXErrorFlag, .-CAN_GetTXErrorFlag
 1609              		.section	.text.CAN_GetRXErrorFlag,"ax",%progbits
 1610              		.align	2
 1611              		.global	CAN_GetRXErrorFlag
 1612              		.thumb
 1613              		.thumb_func
 1614              		.type	CAN_GetRXErrorFlag, %function
 1615              	CAN_GetRXErrorFlag:
 1616              	.LFB16:
1198:Generated_Source\PSoC5/CAN.c **** 
1199:Generated_Source\PSoC5/CAN.c **** 
1200:Generated_Source\PSoC5/CAN.c **** /*******************************************************************************
1201:Generated_Source\PSoC5/CAN.c **** * FUNCTION NAME:   CAN_GetRXErrorFlag
1202:Generated_Source\PSoC5/CAN.c **** ********************************************************************************
1203:Generated_Source\PSoC5/CAN.c **** *
1204:Generated_Source\PSoC5/CAN.c **** * Summary:
1205:Generated_Source\PSoC5/CAN.c **** *  This function returns the bit that indicates if the number of RX errors
1206:Generated_Source\PSoC5/CAN.c **** *  exceeds 0x60.
1207:Generated_Source\PSoC5/CAN.c **** *
1208:Generated_Source\PSoC5/CAN.c **** * Parameters:
1209:Generated_Source\PSoC5/CAN.c **** *  None.
1210:Generated_Source\PSoC5/CAN.c **** *
1211:Generated_Source\PSoC5/CAN.c **** * Return:
1212:Generated_Source\PSoC5/CAN.c **** *  The indication whether the number of TX errors exceeds 0x60.
1213:Generated_Source\PSoC5/CAN.c **** *
1214:Generated_Source\PSoC5/CAN.c **** *******************************************************************************/
1215:Generated_Source\PSoC5/CAN.c **** uint8 CAN_GetRXErrorFlag(void) 
1216:Generated_Source\PSoC5/CAN.c **** {
ARM GAS  C:\Users\badea\AppData\Local\Temp\cc3YEltE.s 			page 51


 1617              		.loc 1 1216 0
 1618              		.cfi_startproc
 1619              		@ args = 0, pretend = 0, frame = 0
 1620              		@ frame_needed = 1, uses_anonymous_args = 0
 1621              		@ link register save eliminated.
 1622 0000 80B4     		push	{r7}
 1623              		.cfi_def_cfa_offset 4
 1624              		.cfi_offset 7, -4
 1625 0002 00AF     		add	r7, sp, #0
 1626              		.cfi_def_cfa_register 7
1217:Generated_Source\PSoC5/CAN.c ****     #if (CY_PSOC3 || CY_PSOC5)
1218:Generated_Source\PSoC5/CAN.c ****         /* Get state of receive error flag */
1219:Generated_Source\PSoC5/CAN.c ****         return (((CAN_ERR_SR_REG.byte[2u] & CAN_RX_ERROR_FLAG_MASK) ==
 1627              		.loc 1 1219 0
 1628 0004 064B     		ldr	r3, .L125
 1629 0006 9B78     		ldrb	r3, [r3, #2]
 1630 0008 DBB2     		uxtb	r3, r3
 1631 000a 03F00803 		and	r3, r3, #8
 1632 000e 002B     		cmp	r3, #0
 1633 0010 01D0     		beq	.L122
 1634              		.loc 1 1219 0 is_stmt 0 discriminator 1
 1635 0012 0123     		movs	r3, #1
 1636 0014 00E0     		b	.L123
 1637              	.L122:
 1638              		.loc 1 1219 0 discriminator 2
 1639 0016 0023     		movs	r3, #0
 1640              	.L123:
1220:Generated_Source\PSoC5/CAN.c ****                   CAN_RX_ERROR_FLAG_MASK) ? 1u : 0u);
1221:Generated_Source\PSoC5/CAN.c ****     #else  /* CY_PSOC4 */
1222:Generated_Source\PSoC5/CAN.c ****         /* Get state of receive error flag */
1223:Generated_Source\PSoC5/CAN.c ****         return (((CAN_ERR_SR_REG & CAN_RX_ERROR_FLAG_MASK) ==
1224:Generated_Source\PSoC5/CAN.c ****                   CAN_RX_ERROR_FLAG_MASK) ? 1u : 0u);
1225:Generated_Source\PSoC5/CAN.c ****     #endif /* CY_PSOC3 || CY_PSOC5 */
1226:Generated_Source\PSoC5/CAN.c **** 
1227:Generated_Source\PSoC5/CAN.c **** }
 1641              		.loc 1 1227 0 is_stmt 1 discriminator 4
 1642 0018 1846     		mov	r0, r3
 1643 001a BD46     		mov	sp, r7
 1644              		.cfi_def_cfa_register 13
 1645              		@ sp needed
 1646 001c 80BC     		pop	{r7}
 1647              		.cfi_restore 7
 1648              		.cfi_def_cfa_offset 0
 1649 001e 7047     		bx	lr
 1650              	.L126:
 1651              		.align	2
 1652              	.L125:
 1653 0020 0CA00040 		.word	1073782796
 1654              		.cfi_endproc
 1655              	.LFE16:
 1656              		.size	CAN_GetRXErrorFlag, .-CAN_GetRXErrorFlag
 1657              		.section	.text.CAN_GetTXErrorCount,"ax",%progbits
 1658              		.align	2
 1659              		.global	CAN_GetTXErrorCount
 1660              		.thumb
 1661              		.thumb_func
 1662              		.type	CAN_GetTXErrorCount, %function
ARM GAS  C:\Users\badea\AppData\Local\Temp\cc3YEltE.s 			page 52


 1663              	CAN_GetTXErrorCount:
 1664              	.LFB17:
1228:Generated_Source\PSoC5/CAN.c **** 
1229:Generated_Source\PSoC5/CAN.c **** 
1230:Generated_Source\PSoC5/CAN.c **** /*******************************************************************************
1231:Generated_Source\PSoC5/CAN.c **** * FUNCTION NAME:   CAN_GetTXErrorCount
1232:Generated_Source\PSoC5/CAN.c **** ********************************************************************************
1233:Generated_Source\PSoC5/CAN.c **** *
1234:Generated_Source\PSoC5/CAN.c **** * Summary:
1235:Generated_Source\PSoC5/CAN.c **** *  This function returns the number of Transmit Errors.
1236:Generated_Source\PSoC5/CAN.c **** *
1237:Generated_Source\PSoC5/CAN.c **** * Parameters:
1238:Generated_Source\PSoC5/CAN.c **** *  None.
1239:Generated_Source\PSoC5/CAN.c **** *
1240:Generated_Source\PSoC5/CAN.c **** * Return:
1241:Generated_Source\PSoC5/CAN.c **** *  The number of Transmit Errors.
1242:Generated_Source\PSoC5/CAN.c **** *
1243:Generated_Source\PSoC5/CAN.c **** *******************************************************************************/
1244:Generated_Source\PSoC5/CAN.c **** uint8 CAN_GetTXErrorCount(void) 
1245:Generated_Source\PSoC5/CAN.c **** {
 1665              		.loc 1 1245 0
 1666              		.cfi_startproc
 1667              		@ args = 0, pretend = 0, frame = 0
 1668              		@ frame_needed = 1, uses_anonymous_args = 0
 1669              		@ link register save eliminated.
 1670 0000 80B4     		push	{r7}
 1671              		.cfi_def_cfa_offset 4
 1672              		.cfi_offset 7, -4
 1673 0002 00AF     		add	r7, sp, #0
 1674              		.cfi_def_cfa_register 7
1246:Generated_Source\PSoC5/CAN.c ****     #if (CY_PSOC3 || CY_PSOC5)
1247:Generated_Source\PSoC5/CAN.c ****         /* Get state of transmit error count */
1248:Generated_Source\PSoC5/CAN.c ****         return (CAN_ERR_SR_REG.byte[0u]);    /* bits 7-0 */
 1675              		.loc 1 1248 0
 1676 0004 034B     		ldr	r3, .L129
 1677 0006 1B78     		ldrb	r3, [r3]
 1678 0008 DBB2     		uxtb	r3, r3
1249:Generated_Source\PSoC5/CAN.c ****     #else  /* CY_PSOC4 */
1250:Generated_Source\PSoC5/CAN.c ****         /* Get state of transmit error count */
1251:Generated_Source\PSoC5/CAN.c ****         return ((uint8) CAN_ERR_SR_REG);    /* bits 7-0 */
1252:Generated_Source\PSoC5/CAN.c ****     #endif /* CY_PSOC3 || CY_PSOC5 */
1253:Generated_Source\PSoC5/CAN.c **** }
 1679              		.loc 1 1253 0
 1680 000a 1846     		mov	r0, r3
 1681 000c BD46     		mov	sp, r7
 1682              		.cfi_def_cfa_register 13
 1683              		@ sp needed
 1684 000e 80BC     		pop	{r7}
 1685              		.cfi_restore 7
 1686              		.cfi_def_cfa_offset 0
 1687 0010 7047     		bx	lr
 1688              	.L130:
 1689 0012 00BF     		.align	2
 1690              	.L129:
 1691 0014 0CA00040 		.word	1073782796
 1692              		.cfi_endproc
 1693              	.LFE17:
ARM GAS  C:\Users\badea\AppData\Local\Temp\cc3YEltE.s 			page 53


 1694              		.size	CAN_GetTXErrorCount, .-CAN_GetTXErrorCount
 1695              		.section	.text.CAN_GetRXErrorCount,"ax",%progbits
 1696              		.align	2
 1697              		.global	CAN_GetRXErrorCount
 1698              		.thumb
 1699              		.thumb_func
 1700              		.type	CAN_GetRXErrorCount, %function
 1701              	CAN_GetRXErrorCount:
 1702              	.LFB18:
1254:Generated_Source\PSoC5/CAN.c **** 
1255:Generated_Source\PSoC5/CAN.c **** 
1256:Generated_Source\PSoC5/CAN.c **** /*******************************************************************************
1257:Generated_Source\PSoC5/CAN.c **** * FUNCTION NAME:   CAN_GetRXErrorCount
1258:Generated_Source\PSoC5/CAN.c **** ********************************************************************************
1259:Generated_Source\PSoC5/CAN.c **** *
1260:Generated_Source\PSoC5/CAN.c **** * Summary:
1261:Generated_Source\PSoC5/CAN.c **** *  This function returns the number of Receive Errors.
1262:Generated_Source\PSoC5/CAN.c **** *
1263:Generated_Source\PSoC5/CAN.c **** * Parameters:
1264:Generated_Source\PSoC5/CAN.c **** *  None.
1265:Generated_Source\PSoC5/CAN.c **** *
1266:Generated_Source\PSoC5/CAN.c **** * Return:
1267:Generated_Source\PSoC5/CAN.c **** *  The number of Receive Errors.
1268:Generated_Source\PSoC5/CAN.c **** *
1269:Generated_Source\PSoC5/CAN.c **** *******************************************************************************/
1270:Generated_Source\PSoC5/CAN.c **** uint8 CAN_GetRXErrorCount(void) 
1271:Generated_Source\PSoC5/CAN.c **** {
 1703              		.loc 1 1271 0
 1704              		.cfi_startproc
 1705              		@ args = 0, pretend = 0, frame = 0
 1706              		@ frame_needed = 1, uses_anonymous_args = 0
 1707              		@ link register save eliminated.
 1708 0000 80B4     		push	{r7}
 1709              		.cfi_def_cfa_offset 4
 1710              		.cfi_offset 7, -4
 1711 0002 00AF     		add	r7, sp, #0
 1712              		.cfi_def_cfa_register 7
1272:Generated_Source\PSoC5/CAN.c ****     #if (CY_PSOC3 || CY_PSOC5)
1273:Generated_Source\PSoC5/CAN.c ****         /* Get state of receive error count */
1274:Generated_Source\PSoC5/CAN.c ****         return (CAN_ERR_SR_REG.byte[1u]);    /* bits 15-8 */
 1713              		.loc 1 1274 0
 1714 0004 034B     		ldr	r3, .L133
 1715 0006 5B78     		ldrb	r3, [r3, #1]
 1716 0008 DBB2     		uxtb	r3, r3
1275:Generated_Source\PSoC5/CAN.c ****     #else  /* CY_PSOC4 */
1276:Generated_Source\PSoC5/CAN.c ****         /* Get state of receive error count (bits 15-8) */
1277:Generated_Source\PSoC5/CAN.c ****         return ((uint8) (CAN_ERR_SR_REG >> CAN_ONE_BYTE_OFFSET));
1278:Generated_Source\PSoC5/CAN.c ****     #endif /* CY_PSOC3 || CY_PSOC5 */
1279:Generated_Source\PSoC5/CAN.c **** 
1280:Generated_Source\PSoC5/CAN.c **** }
 1717              		.loc 1 1280 0
 1718 000a 1846     		mov	r0, r3
 1719 000c BD46     		mov	sp, r7
 1720              		.cfi_def_cfa_register 13
 1721              		@ sp needed
 1722 000e 80BC     		pop	{r7}
 1723              		.cfi_restore 7
ARM GAS  C:\Users\badea\AppData\Local\Temp\cc3YEltE.s 			page 54


 1724              		.cfi_def_cfa_offset 0
 1725 0010 7047     		bx	lr
 1726              	.L134:
 1727 0012 00BF     		.align	2
 1728              	.L133:
 1729 0014 0CA00040 		.word	1073782796
 1730              		.cfi_endproc
 1731              	.LFE18:
 1732              		.size	CAN_GetRXErrorCount, .-CAN_GetRXErrorCount
 1733              		.section	.text.CAN_GetErrorState,"ax",%progbits
 1734              		.align	2
 1735              		.global	CAN_GetErrorState
 1736              		.thumb
 1737              		.thumb_func
 1738              		.type	CAN_GetErrorState, %function
 1739              	CAN_GetErrorState:
 1740              	.LFB19:
1281:Generated_Source\PSoC5/CAN.c **** 
1282:Generated_Source\PSoC5/CAN.c **** 
1283:Generated_Source\PSoC5/CAN.c **** /*******************************************************************************
1284:Generated_Source\PSoC5/CAN.c **** * FUNCTION NAME:   CAN_GetErrorState
1285:Generated_Source\PSoC5/CAN.c **** ********************************************************************************
1286:Generated_Source\PSoC5/CAN.c **** *
1287:Generated_Source\PSoC5/CAN.c **** * Summary:
1288:Generated_Source\PSoC5/CAN.c **** *  This function returns the error status of CAN Component.
1289:Generated_Source\PSoC5/CAN.c **** *
1290:Generated_Source\PSoC5/CAN.c **** * Parameters:
1291:Generated_Source\PSoC5/CAN.c **** *  None.
1292:Generated_Source\PSoC5/CAN.c **** *
1293:Generated_Source\PSoC5/CAN.c **** * Return:
1294:Generated_Source\PSoC5/CAN.c **** *  The error status.
1295:Generated_Source\PSoC5/CAN.c **** *
1296:Generated_Source\PSoC5/CAN.c **** *******************************************************************************/
1297:Generated_Source\PSoC5/CAN.c **** uint8 CAN_GetErrorState(void) 
1298:Generated_Source\PSoC5/CAN.c **** {
 1741              		.loc 1 1298 0
 1742              		.cfi_startproc
 1743              		@ args = 0, pretend = 0, frame = 0
 1744              		@ frame_needed = 1, uses_anonymous_args = 0
 1745              		@ link register save eliminated.
 1746 0000 80B4     		push	{r7}
 1747              		.cfi_def_cfa_offset 4
 1748              		.cfi_offset 7, -4
 1749 0002 00AF     		add	r7, sp, #0
 1750              		.cfi_def_cfa_register 7
1299:Generated_Source\PSoC5/CAN.c ****     #if (CY_PSOC3 || CY_PSOC5)
1300:Generated_Source\PSoC5/CAN.c ****         /* Get error state of receiver */
1301:Generated_Source\PSoC5/CAN.c ****         return (CAN_ERR_SR_REG.byte[2u] & CAN_ERROR_STATE_MASK);
 1751              		.loc 1 1301 0
 1752 0004 044B     		ldr	r3, .L137
 1753 0006 9B78     		ldrb	r3, [r3, #2]
 1754 0008 DBB2     		uxtb	r3, r3
 1755 000a 03F00303 		and	r3, r3, #3
 1756 000e DBB2     		uxtb	r3, r3
1302:Generated_Source\PSoC5/CAN.c ****     #else  /* CY_PSOC4 */
1303:Generated_Source\PSoC5/CAN.c ****         /* Get error state of receiver */
1304:Generated_Source\PSoC5/CAN.c ****         return ((uint8) ((CAN_ERR_SR_REG >> CAN_TWO_BYTE_OFFSET) &
ARM GAS  C:\Users\badea\AppData\Local\Temp\cc3YEltE.s 			page 55


1305:Generated_Source\PSoC5/CAN.c ****                 CAN_ERROR_STATE_MASK));
1306:Generated_Source\PSoC5/CAN.c ****     #endif /* CY_PSOC3 || CY_PSOC5 */
1307:Generated_Source\PSoC5/CAN.c **** }
 1757              		.loc 1 1307 0
 1758 0010 1846     		mov	r0, r3
 1759 0012 BD46     		mov	sp, r7
 1760              		.cfi_def_cfa_register 13
 1761              		@ sp needed
 1762 0014 80BC     		pop	{r7}
 1763              		.cfi_restore 7
 1764              		.cfi_def_cfa_offset 0
 1765 0016 7047     		bx	lr
 1766              	.L138:
 1767              		.align	2
 1768              	.L137:
 1769 0018 0CA00040 		.word	1073782796
 1770              		.cfi_endproc
 1771              	.LFE19:
 1772              		.size	CAN_GetErrorState, .-CAN_GetErrorState
 1773              		.section	.text.CAN_RxBufConfig,"ax",%progbits
 1774              		.align	2
 1775              		.global	CAN_RxBufConfig
 1776              		.thumb
 1777              		.thumb_func
 1778              		.type	CAN_RxBufConfig, %function
 1779              	CAN_RxBufConfig:
 1780              	.LFB20:
1308:Generated_Source\PSoC5/CAN.c **** 
1309:Generated_Source\PSoC5/CAN.c **** 
1310:Generated_Source\PSoC5/CAN.c **** /*******************************************************************************
1311:Generated_Source\PSoC5/CAN.c **** * FUNCTION NAME:   CAN_RxBufConfig
1312:Generated_Source\PSoC5/CAN.c **** ********************************************************************************
1313:Generated_Source\PSoC5/CAN.c **** *
1314:Generated_Source\PSoC5/CAN.c **** * Summary:
1315:Generated_Source\PSoC5/CAN.c **** *  This function configures all receive registers for a particular mailbox.
1316:Generated_Source\PSoC5/CAN.c **** *
1317:Generated_Source\PSoC5/CAN.c **** * Parameters:
1318:Generated_Source\PSoC5/CAN.c **** *  rxConfig: The pointer to a structure that contain all required values to
1319:Generated_Source\PSoC5/CAN.c **** *  configure all receive registers for a particular mailbox.
1320:Generated_Source\PSoC5/CAN.c **** *
1321:Generated_Source\PSoC5/CAN.c **** * Return:
1322:Generated_Source\PSoC5/CAN.c **** *  The indication if particular configuration has been accepted or rejected.
1323:Generated_Source\PSoC5/CAN.c **** *   Define                             Description
1324:Generated_Source\PSoC5/CAN.c **** *    CYRET_SUCCESS                      The function passed successfully
1325:Generated_Source\PSoC5/CAN.c **** *    CAN_FAIL              The function failed
1326:Generated_Source\PSoC5/CAN.c **** *
1327:Generated_Source\PSoC5/CAN.c **** *******************************************************************************/
1328:Generated_Source\PSoC5/CAN.c **** uint8 CAN_RxBufConfig(const CAN_RX_CFG *rxConfig)
1329:Generated_Source\PSoC5/CAN.c ****                                    
1330:Generated_Source\PSoC5/CAN.c **** {
 1781              		.loc 1 1330 0
 1782              		.cfi_startproc
 1783              		@ args = 0, pretend = 0, frame = 16
 1784              		@ frame_needed = 1, uses_anonymous_args = 0
 1785              		@ link register save eliminated.
 1786 0000 80B4     		push	{r7}
 1787              		.cfi_def_cfa_offset 4
ARM GAS  C:\Users\badea\AppData\Local\Temp\cc3YEltE.s 			page 56


 1788              		.cfi_offset 7, -4
 1789 0002 85B0     		sub	sp, sp, #20
 1790              		.cfi_def_cfa_offset 24
 1791 0004 00AF     		add	r7, sp, #0
 1792              		.cfi_def_cfa_register 7
 1793 0006 7860     		str	r0, [r7, #4]
1331:Generated_Source\PSoC5/CAN.c ****     uint8 result = CAN_FAIL;
 1794              		.loc 1 1331 0
 1795 0008 0123     		movs	r3, #1
 1796 000a FB73     		strb	r3, [r7, #15]
1332:Generated_Source\PSoC5/CAN.c **** 
1333:Generated_Source\PSoC5/CAN.c ****     /* Write RX CMD Register */
1334:Generated_Source\PSoC5/CAN.c ****     CY_SET_REG32((reg32 *) (&CAN_RX[rxConfig->rxmailbox].rxcmd), (rxConfig->rxcmd |
 1797              		.loc 1 1334 0
 1798 000c 7B68     		ldr	r3, [r7, #4]
 1799 000e 1B78     		ldrb	r3, [r3]	@ zero_extendqisi2
 1800 0010 5A01     		lsls	r2, r3, #5
 1801 0012 354B     		ldr	r3, .L142
 1802 0014 1344     		add	r3, r3, r2
 1803 0016 1A46     		mov	r2, r3
 1804 0018 7B68     		ldr	r3, [r7, #4]
 1805 001a 5B68     		ldr	r3, [r3, #4]
 1806 001c 43F08013 		orr	r3, r3, #8388736
 1807 0020 1360     		str	r3, [r2]
1335:Generated_Source\PSoC5/CAN.c ****                  CAN_RX_WPN_SET));
1336:Generated_Source\PSoC5/CAN.c ****     if ((CY_GET_REG32((reg32 *) (&CAN_RX[rxConfig->rxmailbox].rxcmd)) &
 1808              		.loc 1 1336 0
 1809 0022 7B68     		ldr	r3, [r7, #4]
 1810 0024 1B78     		ldrb	r3, [r3]	@ zero_extendqisi2
 1811 0026 5A01     		lsls	r2, r3, #5
 1812 0028 2F4B     		ldr	r3, .L142
 1813 002a 1344     		add	r3, r3, r2
 1814 002c 1B68     		ldr	r3, [r3]
 1815 002e 03F07F12 		and	r2, r3, #8323199
1337:Generated_Source\PSoC5/CAN.c ****          CAN_RX_READ_BACK_MASK) == (rxConfig->rxcmd & CAN_RX_WPN_CLEAR))
 1816              		.loc 1 1337 0
 1817 0032 7B68     		ldr	r3, [r7, #4]
 1818 0034 5B68     		ldr	r3, [r3, #4]
 1819 0036 23F08013 		bic	r3, r3, #8388736
1336:Generated_Source\PSoC5/CAN.c ****          CAN_RX_READ_BACK_MASK) == (rxConfig->rxcmd & CAN_RX_WPN_CLEAR))
 1820              		.loc 1 1336 0
 1821 003a 9A42     		cmp	r2, r3
 1822 003c 4DD1     		bne	.L140
1338:Generated_Source\PSoC5/CAN.c ****     {
1339:Generated_Source\PSoC5/CAN.c ****         /* Write RX AMR Register */
1340:Generated_Source\PSoC5/CAN.c ****         CY_SET_REG32((reg32 *) (&CAN_RX[rxConfig->rxmailbox].rxamr), rxConfig->rxamr);
 1823              		.loc 1 1340 0
 1824 003e 7B68     		ldr	r3, [r7, #4]
 1825 0040 1B78     		ldrb	r3, [r3]	@ zero_extendqisi2
 1826 0042 5A01     		lsls	r2, r3, #5
 1827 0044 284B     		ldr	r3, .L142
 1828 0046 1344     		add	r3, r3, r2
 1829 0048 1033     		adds	r3, r3, #16
 1830 004a 7A68     		ldr	r2, [r7, #4]
 1831 004c 9268     		ldr	r2, [r2, #8]
 1832 004e 1A60     		str	r2, [r3]
1341:Generated_Source\PSoC5/CAN.c ****         if (CY_GET_REG32((reg32 *) (&CAN_RX[rxConfig->rxmailbox].rxamr)) == rxConfig->rxamr)
ARM GAS  C:\Users\badea\AppData\Local\Temp\cc3YEltE.s 			page 57


 1833              		.loc 1 1341 0
 1834 0050 7B68     		ldr	r3, [r7, #4]
 1835 0052 1B78     		ldrb	r3, [r3]	@ zero_extendqisi2
 1836 0054 5A01     		lsls	r2, r3, #5
 1837 0056 244B     		ldr	r3, .L142
 1838 0058 1344     		add	r3, r3, r2
 1839 005a 1033     		adds	r3, r3, #16
 1840 005c 1A68     		ldr	r2, [r3]
 1841 005e 7B68     		ldr	r3, [r7, #4]
 1842 0060 9B68     		ldr	r3, [r3, #8]
 1843 0062 9A42     		cmp	r2, r3
 1844 0064 39D1     		bne	.L140
1342:Generated_Source\PSoC5/CAN.c ****         {
1343:Generated_Source\PSoC5/CAN.c ****             /* Write RX ACR Register */
1344:Generated_Source\PSoC5/CAN.c ****             CY_SET_REG32((reg32 *) (&CAN_RX[rxConfig->rxmailbox].rxacr), rxConfig->rxacr);
 1845              		.loc 1 1344 0
 1846 0066 7B68     		ldr	r3, [r7, #4]
 1847 0068 1B78     		ldrb	r3, [r3]	@ zero_extendqisi2
 1848 006a 5A01     		lsls	r2, r3, #5
 1849 006c 1E4B     		ldr	r3, .L142
 1850 006e 1344     		add	r3, r3, r2
 1851 0070 1433     		adds	r3, r3, #20
 1852 0072 7A68     		ldr	r2, [r7, #4]
 1853 0074 D268     		ldr	r2, [r2, #12]
 1854 0076 1A60     		str	r2, [r3]
1345:Generated_Source\PSoC5/CAN.c ****             if (CY_GET_REG32((reg32 *) (&CAN_RX[rxConfig->rxmailbox].rxacr)) == rxConfig->rxacr)
 1855              		.loc 1 1345 0
 1856 0078 7B68     		ldr	r3, [r7, #4]
 1857 007a 1B78     		ldrb	r3, [r3]	@ zero_extendqisi2
 1858 007c 5A01     		lsls	r2, r3, #5
 1859 007e 1A4B     		ldr	r3, .L142
 1860 0080 1344     		add	r3, r3, r2
 1861 0082 1433     		adds	r3, r3, #20
 1862 0084 1A68     		ldr	r2, [r3]
 1863 0086 7B68     		ldr	r3, [r7, #4]
 1864 0088 DB68     		ldr	r3, [r3, #12]
 1865 008a 9A42     		cmp	r2, r3
 1866 008c 25D1     		bne	.L140
1346:Generated_Source\PSoC5/CAN.c ****             {
1347:Generated_Source\PSoC5/CAN.c ****                 /* Write RX AMRD Register */
1348:Generated_Source\PSoC5/CAN.c ****                 CY_SET_REG32((reg32 *) (&CAN_RX[rxConfig->rxmailbox].rxamrd), 0xFFFFFFFFu);
 1867              		.loc 1 1348 0
 1868 008e 7B68     		ldr	r3, [r7, #4]
 1869 0090 1B78     		ldrb	r3, [r3]	@ zero_extendqisi2
 1870 0092 5A01     		lsls	r2, r3, #5
 1871 0094 144B     		ldr	r3, .L142
 1872 0096 1344     		add	r3, r3, r2
 1873 0098 1833     		adds	r3, r3, #24
 1874 009a 4FF0FF32 		mov	r2, #-1
 1875 009e 1A60     		str	r2, [r3]
1349:Generated_Source\PSoC5/CAN.c ****                 if (CY_GET_REG32((reg32 *) (&CAN_RX[rxConfig->rxmailbox].rxamrd)) == 0xFFFFFFFFu)
 1876              		.loc 1 1349 0
 1877 00a0 7B68     		ldr	r3, [r7, #4]
 1878 00a2 1B78     		ldrb	r3, [r3]	@ zero_extendqisi2
 1879 00a4 5A01     		lsls	r2, r3, #5
 1880 00a6 104B     		ldr	r3, .L142
 1881 00a8 1344     		add	r3, r3, r2
ARM GAS  C:\Users\badea\AppData\Local\Temp\cc3YEltE.s 			page 58


 1882 00aa 1833     		adds	r3, r3, #24
 1883 00ac 1B68     		ldr	r3, [r3]
 1884 00ae B3F1FF3F 		cmp	r3, #-1
 1885 00b2 12D1     		bne	.L140
1350:Generated_Source\PSoC5/CAN.c ****                 {
1351:Generated_Source\PSoC5/CAN.c ****                     /* Write RX ACRD Register */
1352:Generated_Source\PSoC5/CAN.c ****                     CY_SET_REG32((reg32 *) (&CAN_RX[rxConfig->rxmailbox].rxacrd), 0x00000000u);
 1886              		.loc 1 1352 0
 1887 00b4 7B68     		ldr	r3, [r7, #4]
 1888 00b6 1B78     		ldrb	r3, [r3]	@ zero_extendqisi2
 1889 00b8 5A01     		lsls	r2, r3, #5
 1890 00ba 0B4B     		ldr	r3, .L142
 1891 00bc 1344     		add	r3, r3, r2
 1892 00be 1C33     		adds	r3, r3, #28
 1893 00c0 0022     		movs	r2, #0
 1894 00c2 1A60     		str	r2, [r3]
1353:Generated_Source\PSoC5/CAN.c ****                     if (CY_GET_REG32((reg32 *) (&CAN_RX[rxConfig->rxmailbox].rxacrd)) == 0x00000000
 1895              		.loc 1 1353 0
 1896 00c4 7B68     		ldr	r3, [r7, #4]
 1897 00c6 1B78     		ldrb	r3, [r3]	@ zero_extendqisi2
 1898 00c8 5A01     		lsls	r2, r3, #5
 1899 00ca 074B     		ldr	r3, .L142
 1900 00cc 1344     		add	r3, r3, r2
 1901 00ce 1C33     		adds	r3, r3, #28
 1902 00d0 1B68     		ldr	r3, [r3]
 1903 00d2 002B     		cmp	r3, #0
 1904 00d4 01D1     		bne	.L140
1354:Generated_Source\PSoC5/CAN.c ****                     {
1355:Generated_Source\PSoC5/CAN.c ****                         result = CYRET_SUCCESS;
 1905              		.loc 1 1355 0
 1906 00d6 0023     		movs	r3, #0
 1907 00d8 FB73     		strb	r3, [r7, #15]
 1908              	.L140:
1356:Generated_Source\PSoC5/CAN.c ****                     }
1357:Generated_Source\PSoC5/CAN.c ****                 }
1358:Generated_Source\PSoC5/CAN.c ****             }
1359:Generated_Source\PSoC5/CAN.c ****         }
1360:Generated_Source\PSoC5/CAN.c ****     }
1361:Generated_Source\PSoC5/CAN.c **** 
1362:Generated_Source\PSoC5/CAN.c ****     return (result);
 1909              		.loc 1 1362 0
 1910 00da FB7B     		ldrb	r3, [r7, #15]	@ zero_extendqisi2
1363:Generated_Source\PSoC5/CAN.c **** }
 1911              		.loc 1 1363 0
 1912 00dc 1846     		mov	r0, r3
 1913 00de 1437     		adds	r7, r7, #20
 1914              		.cfi_def_cfa_offset 4
 1915 00e0 BD46     		mov	sp, r7
 1916              		.cfi_def_cfa_register 13
 1917              		@ sp needed
 1918 00e2 80BC     		pop	{r7}
 1919              		.cfi_restore 7
 1920              		.cfi_def_cfa_offset 0
 1921 00e4 7047     		bx	lr
 1922              	.L143:
 1923 00e6 00BF     		.align	2
 1924              	.L142:
ARM GAS  C:\Users\badea\AppData\Local\Temp\cc3YEltE.s 			page 59


 1925 00e8 A0A00040 		.word	1073782944
 1926              		.cfi_endproc
 1927              	.LFE20:
 1928              		.size	CAN_RxBufConfig, .-CAN_RxBufConfig
 1929              		.section	.text.CAN_TxBufConfig,"ax",%progbits
 1930              		.align	2
 1931              		.global	CAN_TxBufConfig
 1932              		.thumb
 1933              		.thumb_func
 1934              		.type	CAN_TxBufConfig, %function
 1935              	CAN_TxBufConfig:
 1936              	.LFB21:
1364:Generated_Source\PSoC5/CAN.c **** 
1365:Generated_Source\PSoC5/CAN.c **** 
1366:Generated_Source\PSoC5/CAN.c **** /*******************************************************************************
1367:Generated_Source\PSoC5/CAN.c **** * FUNCTION NAME:   CAN_TxBufConfig
1368:Generated_Source\PSoC5/CAN.c **** ********************************************************************************
1369:Generated_Source\PSoC5/CAN.c **** *
1370:Generated_Source\PSoC5/CAN.c **** * Summary:
1371:Generated_Source\PSoC5/CAN.c **** *  This function configures all transmit registers for a particular mailbox.
1372:Generated_Source\PSoC5/CAN.c **** *  Mailbox number contains CAN_TX_CFG structure.
1373:Generated_Source\PSoC5/CAN.c **** *
1374:Generated_Source\PSoC5/CAN.c **** * Parameters:
1375:Generated_Source\PSoC5/CAN.c **** *  txConfig: The pointer to structure that contain all required values to
1376:Generated_Source\PSoC5/CAN.c **** *  configure all transmit registers for a particular mailbox.
1377:Generated_Source\PSoC5/CAN.c **** *
1378:Generated_Source\PSoC5/CAN.c **** * Return:
1379:Generated_Source\PSoC5/CAN.c **** *  The indication if particular configuration has been accepted or rejected.
1380:Generated_Source\PSoC5/CAN.c **** *   Define                             Description
1381:Generated_Source\PSoC5/CAN.c **** *    CYRET_SUCCESS                      The function passed successfully
1382:Generated_Source\PSoC5/CAN.c **** *    CAN_FAIL              The function failed
1383:Generated_Source\PSoC5/CAN.c **** *
1384:Generated_Source\PSoC5/CAN.c **** *******************************************************************************/
1385:Generated_Source\PSoC5/CAN.c **** uint8 CAN_TxBufConfig(const CAN_TX_CFG *txConfig)
1386:Generated_Source\PSoC5/CAN.c ****                                    
1387:Generated_Source\PSoC5/CAN.c **** {
 1937              		.loc 1 1387 0
 1938              		.cfi_startproc
 1939              		@ args = 0, pretend = 0, frame = 16
 1940              		@ frame_needed = 1, uses_anonymous_args = 0
 1941              		@ link register save eliminated.
 1942 0000 80B4     		push	{r7}
 1943              		.cfi_def_cfa_offset 4
 1944              		.cfi_offset 7, -4
 1945 0002 85B0     		sub	sp, sp, #20
 1946              		.cfi_def_cfa_offset 24
 1947 0004 00AF     		add	r7, sp, #0
 1948              		.cfi_def_cfa_register 7
 1949 0006 7860     		str	r0, [r7, #4]
1388:Generated_Source\PSoC5/CAN.c ****     uint8 result = CAN_FAIL;
 1950              		.loc 1 1388 0
 1951 0008 0123     		movs	r3, #1
 1952 000a FB73     		strb	r3, [r7, #15]
1389:Generated_Source\PSoC5/CAN.c **** 
1390:Generated_Source\PSoC5/CAN.c ****     /* Write TX CMD Register */
1391:Generated_Source\PSoC5/CAN.c ****     CY_SET_REG32(CAN_TX_CMD_PTR(txConfig->txmailbox), (txConfig->txcmd | CAN_TX_WPN_SET));
 1953              		.loc 1 1391 0
ARM GAS  C:\Users\badea\AppData\Local\Temp\cc3YEltE.s 			page 60


 1954 000c 7B68     		ldr	r3, [r7, #4]
 1955 000e 1B78     		ldrb	r3, [r3]	@ zero_extendqisi2
 1956 0010 1A01     		lsls	r2, r3, #4
 1957 0012 1B4B     		ldr	r3, .L147
 1958 0014 1344     		add	r3, r3, r2
 1959 0016 1A46     		mov	r2, r3
 1960 0018 7B68     		ldr	r3, [r7, #4]
 1961 001a 5B68     		ldr	r3, [r3, #4]
 1962 001c 43F40003 		orr	r3, r3, #8388608
 1963 0020 43F00803 		orr	r3, r3, #8
 1964 0024 1360     		str	r3, [r2]
1392:Generated_Source\PSoC5/CAN.c ****     if ((CY_GET_REG32(CAN_TX_CMD_PTR(txConfig->txmailbox)) &
 1965              		.loc 1 1392 0
 1966 0026 7B68     		ldr	r3, [r7, #4]
 1967 0028 1B78     		ldrb	r3, [r3]	@ zero_extendqisi2
 1968 002a 1A01     		lsls	r2, r3, #4
 1969 002c 144B     		ldr	r3, .L147
 1970 002e 1344     		add	r3, r3, r2
 1971 0030 1B68     		ldr	r3, [r3]
 1972 0032 144A     		ldr	r2, .L147+4
 1973 0034 1A40     		ands	r2, r2, r3
1393:Generated_Source\PSoC5/CAN.c ****         CAN_TX_READ_BACK_MASK) == (txConfig->txcmd & CAN_TX_WPN_CLEAR))
 1974              		.loc 1 1393 0
 1975 0036 7B68     		ldr	r3, [r7, #4]
 1976 0038 5B68     		ldr	r3, [r3, #4]
 1977 003a 23F40003 		bic	r3, r3, #8388608
 1978 003e 23F00803 		bic	r3, r3, #8
1392:Generated_Source\PSoC5/CAN.c ****     if ((CY_GET_REG32(CAN_TX_CMD_PTR(txConfig->txmailbox)) &
 1979              		.loc 1 1392 0
 1980 0042 9A42     		cmp	r2, r3
 1981 0044 15D1     		bne	.L145
1394:Generated_Source\PSoC5/CAN.c ****     {
1395:Generated_Source\PSoC5/CAN.c ****         /* Write TX ID Register */
1396:Generated_Source\PSoC5/CAN.c ****         CY_SET_REG32(CAN_TX_ID_PTR(txConfig->txmailbox), txConfig->txid);
 1982              		.loc 1 1396 0
 1983 0046 7B68     		ldr	r3, [r7, #4]
 1984 0048 1B78     		ldrb	r3, [r3]	@ zero_extendqisi2
 1985 004a 1A01     		lsls	r2, r3, #4
 1986 004c 0C4B     		ldr	r3, .L147
 1987 004e 1344     		add	r3, r3, r2
 1988 0050 0433     		adds	r3, r3, #4
 1989 0052 7A68     		ldr	r2, [r7, #4]
 1990 0054 9268     		ldr	r2, [r2, #8]
 1991 0056 1A60     		str	r2, [r3]
1397:Generated_Source\PSoC5/CAN.c ****         if (CY_GET_REG32(CAN_TX_ID_PTR(txConfig->txmailbox)) == txConfig->txid)
 1992              		.loc 1 1397 0
 1993 0058 7B68     		ldr	r3, [r7, #4]
 1994 005a 1B78     		ldrb	r3, [r3]	@ zero_extendqisi2
 1995 005c 1A01     		lsls	r2, r3, #4
 1996 005e 084B     		ldr	r3, .L147
 1997 0060 1344     		add	r3, r3, r2
 1998 0062 0433     		adds	r3, r3, #4
 1999 0064 1A68     		ldr	r2, [r3]
 2000 0066 7B68     		ldr	r3, [r7, #4]
 2001 0068 9B68     		ldr	r3, [r3, #8]
 2002 006a 9A42     		cmp	r2, r3
 2003 006c 01D1     		bne	.L145
ARM GAS  C:\Users\badea\AppData\Local\Temp\cc3YEltE.s 			page 61


1398:Generated_Source\PSoC5/CAN.c ****         {
1399:Generated_Source\PSoC5/CAN.c ****             result = CYRET_SUCCESS;
 2004              		.loc 1 1399 0
 2005 006e 0023     		movs	r3, #0
 2006 0070 FB73     		strb	r3, [r7, #15]
 2007              	.L145:
1400:Generated_Source\PSoC5/CAN.c ****         }
1401:Generated_Source\PSoC5/CAN.c ****     }
1402:Generated_Source\PSoC5/CAN.c **** 
1403:Generated_Source\PSoC5/CAN.c ****     return (result);
 2008              		.loc 1 1403 0
 2009 0072 FB7B     		ldrb	r3, [r7, #15]	@ zero_extendqisi2
1404:Generated_Source\PSoC5/CAN.c **** }
 2010              		.loc 1 1404 0
 2011 0074 1846     		mov	r0, r3
 2012 0076 1437     		adds	r7, r7, #20
 2013              		.cfi_def_cfa_offset 4
 2014 0078 BD46     		mov	sp, r7
 2015              		.cfi_def_cfa_register 13
 2016              		@ sp needed
 2017 007a 80BC     		pop	{r7}
 2018              		.cfi_restore 7
 2019              		.cfi_def_cfa_offset 0
 2020 007c 7047     		bx	lr
 2021              	.L148:
 2022 007e 00BF     		.align	2
 2023              	.L147:
 2024 0080 20A00040 		.word	1073782816
 2025 0084 F7007F00 		.word	8323319
 2026              		.cfi_endproc
 2027              	.LFE21:
 2028              		.size	CAN_TxBufConfig, .-CAN_TxBufConfig
 2029              		.section	.rodata
 2030              		.align	2
 2031              		.type	CAN_TXConfigStruct.5045, %object
 2032              		.size	CAN_TXConfigStruct.5045, 96
 2033              	CAN_TXConfigStruct.5045:
 2034 0000 00       		.byte	0
 2035 0001 000000   		.space	3
 2036 0004 00000400 		.word	262144
 2037 0008 0000E019 		.word	434110464
 2038 000c 01       		.byte	1
 2039 000d 000000   		.space	3
 2040 0010 00000000 		.word	0
 2041 0014 00000000 		.word	0
 2042 0018 02       		.byte	2
 2043 0019 000000   		.space	3
 2044 001c 00000000 		.word	0
 2045 0020 00000000 		.word	0
 2046 0024 03       		.byte	3
 2047 0025 000000   		.space	3
 2048 0028 00000000 		.word	0
 2049 002c 00000000 		.word	0
 2050 0030 04       		.byte	4
 2051 0031 000000   		.space	3
 2052 0034 00000000 		.word	0
 2053 0038 00000000 		.word	0
ARM GAS  C:\Users\badea\AppData\Local\Temp\cc3YEltE.s 			page 62


 2054 003c 05       		.byte	5
 2055 003d 000000   		.space	3
 2056 0040 00000000 		.word	0
 2057 0044 00000000 		.word	0
 2058 0048 06       		.byte	6
 2059 0049 000000   		.space	3
 2060 004c 00000000 		.word	0
 2061 0050 00000000 		.word	0
 2062 0054 07       		.byte	7
 2063 0055 000000   		.space	3
 2064 0058 00000000 		.word	0
 2065 005c 00000000 		.word	0
 2066              		.align	2
 2067              		.type	CAN_RXConfigStruct.5044, %object
 2068              		.size	CAN_RXConfigStruct.5044, 256
 2069              	CAN_RXConfigStruct.5044:
 2070 0060 00       		.byte	0
 2071 0061 000000   		.space	3
 2072 0064 28000000 		.word	40
 2073 0068 F9FF1F00 		.word	2097145
 2074 006c 0000007D 		.word	2097152000
 2075 0070 01       		.byte	1
 2076 0071 000000   		.space	3
 2077 0074 00000000 		.word	0
 2078 0078 00000000 		.word	0
 2079 007c 00000000 		.word	0
 2080 0080 02       		.byte	2
 2081 0081 000000   		.space	3
 2082 0084 00000000 		.word	0
 2083 0088 00000000 		.word	0
 2084 008c 00000000 		.word	0
 2085 0090 03       		.byte	3
 2086 0091 000000   		.space	3
 2087 0094 00000000 		.word	0
 2088 0098 00000000 		.word	0
 2089 009c 00000000 		.word	0
 2090 00a0 04       		.byte	4
 2091 00a1 000000   		.space	3
 2092 00a4 00000000 		.word	0
 2093 00a8 00000000 		.word	0
 2094 00ac 00000000 		.word	0
 2095 00b0 05       		.byte	5
 2096 00b1 000000   		.space	3
 2097 00b4 00000000 		.word	0
 2098 00b8 00000000 		.word	0
 2099 00bc 00000000 		.word	0
 2100 00c0 06       		.byte	6
 2101 00c1 000000   		.space	3
 2102 00c4 00000000 		.word	0
 2103 00c8 00000000 		.word	0
 2104 00cc 00000000 		.word	0
 2105 00d0 07       		.byte	7
 2106 00d1 000000   		.space	3
 2107 00d4 00000000 		.word	0
 2108 00d8 00000000 		.word	0
 2109 00dc 00000000 		.word	0
 2110 00e0 08       		.byte	8
ARM GAS  C:\Users\badea\AppData\Local\Temp\cc3YEltE.s 			page 63


 2111 00e1 000000   		.space	3
 2112 00e4 00000000 		.word	0
 2113 00e8 00000000 		.word	0
 2114 00ec 00000000 		.word	0
 2115 00f0 09       		.byte	9
 2116 00f1 000000   		.space	3
 2117 00f4 00000000 		.word	0
 2118 00f8 00000000 		.word	0
 2119 00fc 00000000 		.word	0
 2120 0100 0A       		.byte	10
 2121 0101 000000   		.space	3
 2122 0104 00000000 		.word	0
 2123 0108 00000000 		.word	0
 2124 010c 00000000 		.word	0
 2125 0110 0B       		.byte	11
 2126 0111 000000   		.space	3
 2127 0114 00000000 		.word	0
 2128 0118 00000000 		.word	0
 2129 011c 00000000 		.word	0
 2130 0120 0C       		.byte	12
 2131 0121 000000   		.space	3
 2132 0124 00000000 		.word	0
 2133 0128 00000000 		.word	0
 2134 012c 00000000 		.word	0
 2135 0130 0D       		.byte	13
 2136 0131 000000   		.space	3
 2137 0134 00000000 		.word	0
 2138 0138 00000000 		.word	0
 2139 013c 00000000 		.word	0
 2140 0140 0E       		.byte	14
 2141 0141 000000   		.space	3
 2142 0144 00000000 		.word	0
 2143 0148 00000000 		.word	0
 2144 014c 00000000 		.word	0
 2145 0150 0F       		.byte	15
 2146 0151 000000   		.space	3
 2147 0154 00000000 		.word	0
 2148 0158 00000000 		.word	0
 2149 015c 00000000 		.word	0
 2150              		.text
 2151              	.Letext0:
 2152              		.file 2 "Generated_Source\\PSoC5\\cytypes.h"
 2153              		.file 3 "Generated_Source\\PSoC5\\CAN.h"