ARM GAS  C:\Users\badea\AppData\Local\Temp\cc3YEltE.s 			page 1


   1              		.syntax unified
   2              		.cpu cortex-m3
   3              		.fpu softvfp
   4              		.eabi_attribute 20, 1
   5              		.eabi_attribute 21, 1
   6              		.eabi_attribute 23, 3
   7              		.eabi_attribute 24, 1
   8              		.eabi_attribute 25, 1
   9              		.eabi_attribute 26, 1
  10              		.eabi_attribute 30, 6
  11              		.eabi_attribute 34, 1
  12              		.eabi_attribute 18, 4
  13              		.thumb
  14              		.syntax unified
  15              		.file	"CAN.c"
  16              		.text
  17              	.Ltext0:
  18              		.cfi_sections	.debug_frame
  19              		.global	CAN_initVar
  20              		.bss
  21              		.type	CAN_initVar, %object
  22              		.size	CAN_initVar, 1
  23              	CAN_initVar:
  24 0000 00       		.space	1
  25              		.section	.text.CAN_RxTxBuffersConfig,"ax",%progbits
  26              		.align	2
  27              		.global	CAN_RxTxBuffersConfig
  28              		.thumb
  29              		.thumb_func
  30              		.type	CAN_RxTxBuffersConfig, %function
  31              	CAN_RxTxBuffersConfig:
  32              	.LFB0:
  33              		.file 1 "Generated_Source\\PSoC5\\CAN.c"
   1:Generated_Source\PSoC5/CAN.c **** /*******************************************************************************
   2:Generated_Source\PSoC5/CAN.c **** * File Name: CAN.c
   3:Generated_Source\PSoC5/CAN.c **** * Version 3.0
   4:Generated_Source\PSoC5/CAN.c **** *
   5:Generated_Source\PSoC5/CAN.c **** * Description:
   6:Generated_Source\PSoC5/CAN.c **** *  The CAN Component provides functionality of Control Area Network.
   7:Generated_Source\PSoC5/CAN.c **** *  The two types of mailbox configuration available are "Full" and "Basic".
   8:Generated_Source\PSoC5/CAN.c **** *
   9:Generated_Source\PSoC5/CAN.c **** * Note:
  10:Generated_Source\PSoC5/CAN.c **** *  The CAN configuration is put as constant to ROM and can be changed
  11:Generated_Source\PSoC5/CAN.c **** *  only directly by the registers written by the user.
  12:Generated_Source\PSoC5/CAN.c **** *
  13:Generated_Source\PSoC5/CAN.c **** ********************************************************************************
  14:Generated_Source\PSoC5/CAN.c **** * Copyright 2008-2015, Cypress Semiconductor Corporation.  All rights reserved.
  15:Generated_Source\PSoC5/CAN.c **** * You may use this file only in accordance with the license, terms, conditions,
  16:Generated_Source\PSoC5/CAN.c **** * disclaimers, and limitations in the end user license agreement accompanying
  17:Generated_Source\PSoC5/CAN.c **** * the software package with which this file was provided.
  18:Generated_Source\PSoC5/CAN.c **** *******************************************************************************/
  19:Generated_Source\PSoC5/CAN.c **** 
  20:Generated_Source\PSoC5/CAN.c **** #include "CAN.h"
  21:Generated_Source\PSoC5/CAN.c **** 
  22:Generated_Source\PSoC5/CAN.c **** uint8 CAN_initVar = 0u;
  23:Generated_Source\PSoC5/CAN.c **** 
  24:Generated_Source\PSoC5/CAN.c **** 
ARM GAS  C:\Users\badea\AppData\Local\Temp\cc3YEltE.s 			page 2


  25:Generated_Source\PSoC5/CAN.c **** /*******************************************************************************
  26:Generated_Source\PSoC5/CAN.c **** * FUNCTION NAME:   CAN_RxTxBuffersConfig
  27:Generated_Source\PSoC5/CAN.c **** ********************************************************************************
  28:Generated_Source\PSoC5/CAN.c **** *
  29:Generated_Source\PSoC5/CAN.c **** * Summary:
  30:Generated_Source\PSoC5/CAN.c **** *  Inits/Restores default CAN Rx and Tx Buffers control registers configuration
  31:Generated_Source\PSoC5/CAN.c **** *  provided by the customizer.
  32:Generated_Source\PSoC5/CAN.c **** *
  33:Generated_Source\PSoC5/CAN.c **** * Parameters:
  34:Generated_Source\PSoC5/CAN.c **** *  None.
  35:Generated_Source\PSoC5/CAN.c **** *
  36:Generated_Source\PSoC5/CAN.c **** * Return:
  37:Generated_Source\PSoC5/CAN.c **** *  The indication whether the configuration has been accepted or rejected.
  38:Generated_Source\PSoC5/CAN.c **** *   Define                             Description
  39:Generated_Source\PSoC5/CAN.c **** *    CYRET_SUCCESS                      The function passed successfully
  40:Generated_Source\PSoC5/CAN.c **** *    CAN_FAIL              The function failed
  41:Generated_Source\PSoC5/CAN.c **** *
  42:Generated_Source\PSoC5/CAN.c **** * Side Effects:
  43:Generated_Source\PSoC5/CAN.c **** *  All the Rx and Tx Buffers control registers will be reset to their initial
  44:Generated_Source\PSoC5/CAN.c **** *  values.
  45:Generated_Source\PSoC5/CAN.c **** *
  46:Generated_Source\PSoC5/CAN.c **** *******************************************************************************/
  47:Generated_Source\PSoC5/CAN.c **** uint8 CAN_RxTxBuffersConfig(void) 
  48:Generated_Source\PSoC5/CAN.c **** {
  34              		.loc 1 48 0
  35              		.cfi_startproc
  36              		@ args = 0, pretend = 0, frame = 8
  37              		@ frame_needed = 1, uses_anonymous_args = 0
  38 0000 80B5     		push	{r7, lr}
  39              		.cfi_def_cfa_offset 8
  40              		.cfi_offset 7, -8
  41              		.cfi_offset 14, -4
  42 0002 82B0     		sub	sp, sp, #8
  43              		.cfi_def_cfa_offset 16
  44 0004 00AF     		add	r7, sp, #0
  45              		.cfi_def_cfa_register 7
  49:Generated_Source\PSoC5/CAN.c ****     /* Initial values of CAN RX and TX registers */
  50:Generated_Source\PSoC5/CAN.c ****     static const CAN_RX_CFG CYCODE CAN_RXConfigStruct[] =
  51:Generated_Source\PSoC5/CAN.c ****     {
  52:Generated_Source\PSoC5/CAN.c ****         { 0u, 0x28u, 0x1FFFF9u, 0x7D000000u },
  53:Generated_Source\PSoC5/CAN.c ****         { 1u, 0x0u, 0x0u, 0x0u },
  54:Generated_Source\PSoC5/CAN.c ****         { 2u, 0x0u, 0x0u, 0x0u },
  55:Generated_Source\PSoC5/CAN.c ****         { 3u, 0x0u, 0x0u, 0x0u },
  56:Generated_Source\PSoC5/CAN.c ****         { 4u, 0x0u, 0x0u, 0x0u },
  57:Generated_Source\PSoC5/CAN.c ****         { 5u, 0x0u, 0x0u, 0x0u },
  58:Generated_Source\PSoC5/CAN.c ****         { 6u, 0x0u, 0x0u, 0x0u },
  59:Generated_Source\PSoC5/CAN.c ****         { 7u, 0x0u, 0x0u, 0x0u },
  60:Generated_Source\PSoC5/CAN.c ****         { 8u, 0x0u, 0x0u, 0x0u },
  61:Generated_Source\PSoC5/CAN.c ****         { 9u, 0x0u, 0x0u, 0x0u },
  62:Generated_Source\PSoC5/CAN.c ****         { 10u, 0x0u, 0x0u, 0x0u },
  63:Generated_Source\PSoC5/CAN.c ****         { 11u, 0x0u, 0x0u, 0x0u },
  64:Generated_Source\PSoC5/CAN.c ****         { 12u, 0x0u, 0x0u, 0x0u },
  65:Generated_Source\PSoC5/CAN.c ****         { 13u, 0x0u, 0x0u, 0x0u },
  66:Generated_Source\PSoC5/CAN.c ****         { 14u, 0x0u, 0x0u, 0x0u },
  67:Generated_Source\PSoC5/CAN.c ****         { 15u, 0x0u, 0x0u, 0x0u }
  68:Generated_Source\PSoC5/CAN.c ****     };
  69:Generated_Source\PSoC5/CAN.c **** 
ARM GAS  C:\Users\badea\AppData\Local\Temp\cc3YEltE.s 			page 3


  70:Generated_Source\PSoC5/CAN.c ****     static const CAN_TX_CFG CYCODE CAN_TXConfigStruct[] =
  71:Generated_Source\PSoC5/CAN.c ****     {
  72:Generated_Source\PSoC5/CAN.c ****         { 0u, 0x40000u, 0x19E00000u },
  73:Generated_Source\PSoC5/CAN.c ****         { 1u, 0x0u, 0x0u },
  74:Generated_Source\PSoC5/CAN.c ****         { 2u, 0x0u, 0x0u },
  75:Generated_Source\PSoC5/CAN.c ****         { 3u, 0x0u, 0x0u },
  76:Generated_Source\PSoC5/CAN.c ****         { 4u, 0x0u, 0x0u },
  77:Generated_Source\PSoC5/CAN.c ****         { 5u, 0x0u, 0x0u },
  78:Generated_Source\PSoC5/CAN.c ****         { 6u, 0x0u, 0x0u },
  79:Generated_Source\PSoC5/CAN.c ****         { 7u, 0x0u, 0x0u }
  80:Generated_Source\PSoC5/CAN.c ****     };
  81:Generated_Source\PSoC5/CAN.c **** 
  82:Generated_Source\PSoC5/CAN.c ****     uint8 result = CYRET_SUCCESS;
  46              		.loc 1 82 0
  47 0006 0023     		movs	r3, #0
  48 0008 FB71     		strb	r3, [r7, #7]
  83:Generated_Source\PSoC5/CAN.c ****     uint8 i;
  84:Generated_Source\PSoC5/CAN.c **** 
  85:Generated_Source\PSoC5/CAN.c ****     /* Initialize TX mailboxes */
  86:Generated_Source\PSoC5/CAN.c ****     for (i = 0u; i < CAN_NUMBER_OF_TX_MAILBOXES; i++)
  49              		.loc 1 86 0
  50 000a 0023     		movs	r3, #0
  51 000c BB71     		strb	r3, [r7, #6]
  52 000e 12E0     		b	.L2
  53              	.L5:
  87:Generated_Source\PSoC5/CAN.c ****     {
  88:Generated_Source\PSoC5/CAN.c ****         if (CAN_TxBufConfig((const CAN_TX_CFG *)
  89:Generated_Source\PSoC5/CAN.c ****             (&CAN_TXConfigStruct[i])) != CYRET_SUCCESS)
  54              		.loc 1 89 0
  55 0010 BA79     		ldrb	r2, [r7, #6]	@ zero_extendqisi2
  88:Generated_Source\PSoC5/CAN.c ****             (&CAN_TXConfigStruct[i])) != CYRET_SUCCESS)
  56              		.loc 1 88 0
  57 0012 1346     		mov	r3, r2
  58 0014 5B00     		lsls	r3, r3, #1
  59 0016 1344     		add	r3, r3, r2
  60 0018 9B00     		lsls	r3, r3, #2
  61 001a 174A     		ldr	r2, .L11
  62 001c 1344     		add	r3, r3, r2
  63 001e 1846     		mov	r0, r3
  64 0020 FFF7FEFF 		bl	CAN_TxBufConfig
  65 0024 0346     		mov	r3, r0
  66 0026 002B     		cmp	r3, #0
  67 0028 02D0     		beq	.L3
  90:Generated_Source\PSoC5/CAN.c ****         {
  91:Generated_Source\PSoC5/CAN.c ****             result = CAN_FAIL;
  68              		.loc 1 91 0
  69 002a 0123     		movs	r3, #1
  70 002c FB71     		strb	r3, [r7, #7]
  92:Generated_Source\PSoC5/CAN.c ****             break;
  71              		.loc 1 92 0
  72 002e 05E0     		b	.L4
  73              	.L3:
  86:Generated_Source\PSoC5/CAN.c ****     {
  74              		.loc 1 86 0 discriminator 2
  75 0030 BB79     		ldrb	r3, [r7, #6]	@ zero_extendqisi2
  76 0032 0133     		adds	r3, r3, #1
  77 0034 BB71     		strb	r3, [r7, #6]
ARM GAS  C:\Users\badea\AppData\Local\Temp\cc3YEltE.s 			page 4


  78              	.L2:
  86:Generated_Source\PSoC5/CAN.c ****     {
  79              		.loc 1 86 0 is_stmt 0 discriminator 1
  80 0036 BB79     		ldrb	r3, [r7, #6]	@ zero_extendqisi2
  81 0038 072B     		cmp	r3, #7
  82 003a E9D9     		bls	.L5
  83              	.L4:
  93:Generated_Source\PSoC5/CAN.c ****         }
  94:Generated_Source\PSoC5/CAN.c ****     }
  95:Generated_Source\PSoC5/CAN.c **** 
  96:Generated_Source\PSoC5/CAN.c ****     if (result == CYRET_SUCCESS)
  84              		.loc 1 96 0 is_stmt 1
  85 003c FB79     		ldrb	r3, [r7, #7]	@ zero_extendqisi2
  86 003e 002B     		cmp	r3, #0
  87 0040 15D1     		bne	.L6
  97:Generated_Source\PSoC5/CAN.c ****     {
  98:Generated_Source\PSoC5/CAN.c ****         /* Initialize RX mailboxes */
  99:Generated_Source\PSoC5/CAN.c ****         for (i = 0u; i < CAN_NUMBER_OF_RX_MAILBOXES; i++)
  88              		.loc 1 99 0
  89 0042 0023     		movs	r3, #0
  90 0044 BB71     		strb	r3, [r7, #6]
  91 0046 0FE0     		b	.L7
  92              	.L9:
 100:Generated_Source\PSoC5/CAN.c ****         {
 101:Generated_Source\PSoC5/CAN.c ****             if (CAN_RxBufConfig((const CAN_RX_CFG *)
 102:Generated_Source\PSoC5/CAN.c ****                 (&CAN_RXConfigStruct[i])) != CYRET_SUCCESS)
  93              		.loc 1 102 0
  94 0048 BB79     		ldrb	r3, [r7, #6]	@ zero_extendqisi2
 101:Generated_Source\PSoC5/CAN.c ****                 (&CAN_RXConfigStruct[i])) != CYRET_SUCCESS)
  95              		.loc 1 101 0
  96 004a 1B01     		lsls	r3, r3, #4
  97 004c 0B4A     		ldr	r2, .L11+4
  98 004e 1344     		add	r3, r3, r2
  99 0050 1846     		mov	r0, r3
 100 0052 FFF7FEFF 		bl	CAN_RxBufConfig
 101 0056 0346     		mov	r3, r0
 102 0058 002B     		cmp	r3, #0
 103 005a 02D0     		beq	.L8
 103:Generated_Source\PSoC5/CAN.c ****             {
 104:Generated_Source\PSoC5/CAN.c ****                 result = CAN_FAIL;
 104              		.loc 1 104 0
 105 005c 0123     		movs	r3, #1
 106 005e FB71     		strb	r3, [r7, #7]
 105:Generated_Source\PSoC5/CAN.c ****                 break;
 107              		.loc 1 105 0
 108 0060 05E0     		b	.L6
 109              	.L8:
  99:Generated_Source\PSoC5/CAN.c ****         {
 110              		.loc 1 99 0 discriminator 2
 111 0062 BB79     		ldrb	r3, [r7, #6]	@ zero_extendqisi2
 112 0064 0133     		adds	r3, r3, #1
 113 0066 BB71     		strb	r3, [r7, #6]
 114              	.L7:
  99:Generated_Source\PSoC5/CAN.c ****         {
 115              		.loc 1 99 0 is_stmt 0 discriminator 1
 116 0068 BB79     		ldrb	r3, [r7, #6]	@ zero_extendqisi2
 117 006a 0F2B     		cmp	r3, #15
ARM GAS  C:\Users\badea\AppData\Local\Temp\cc3YEltE.s 			page 5


 118 006c ECD9     		bls	.L9
 119              	.L6:
 106:Generated_Source\PSoC5/CAN.c ****             }
 107:Generated_Source\PSoC5/CAN.c ****         }
 108:Generated_Source\PSoC5/CAN.c ****     }
 109:Generated_Source\PSoC5/CAN.c **** 
 110:Generated_Source\PSoC5/CAN.c ****     return (result);
 120              		.loc 1 110 0 is_stmt 1
 121 006e FB79     		ldrb	r3, [r7, #7]	@ zero_extendqisi2
 111:Generated_Source\PSoC5/CAN.c **** }
 122              		.loc 1 111 0
 123 0070 1846     		mov	r0, r3
 124 0072 0837     		adds	r7, r7, #8
 125              		.cfi_def_cfa_offset 8
 126 0074 BD46     		mov	sp, r7
 127              		.cfi_def_cfa_register 13
 128              		@ sp needed
 129 0076 80BD     		pop	{r7, pc}
 130              	.L12:
 131              		.align	2
 132              	.L11:
 133 0078 00000000 		.word	CAN_TXConfigStruct.5045
 134 007c 60000000 		.word	CAN_RXConfigStruct.5044
 135              		.cfi_endproc
 136              	.LFE0:
 137              		.size	CAN_RxTxBuffersConfig, .-CAN_RxTxBuffersConfig
 138              		.section	.text.CAN_Init,"ax",%progbits
 139              		.align	2
 140              		.global	CAN_Init
 141              		.thumb
 142              		.thumb_func
 143              		.type	CAN_Init, %function
 144              	CAN_Init:
 145              	.LFB1:
 112:Generated_Source\PSoC5/CAN.c **** 
 113:Generated_Source\PSoC5/CAN.c **** 
 114:Generated_Source\PSoC5/CAN.c **** /*******************************************************************************
 115:Generated_Source\PSoC5/CAN.c **** * FUNCTION NAME:   CAN_Init
 116:Generated_Source\PSoC5/CAN.c **** ********************************************************************************
 117:Generated_Source\PSoC5/CAN.c **** *
 118:Generated_Source\PSoC5/CAN.c **** * Summary:
 119:Generated_Source\PSoC5/CAN.c **** *  Inits/Restores default CAN configuration provided by the customizer.
 120:Generated_Source\PSoC5/CAN.c **** *
 121:Generated_Source\PSoC5/CAN.c **** * Parameters:
 122:Generated_Source\PSoC5/CAN.c **** *  None.
 123:Generated_Source\PSoC5/CAN.c **** *
 124:Generated_Source\PSoC5/CAN.c **** * Return:
 125:Generated_Source\PSoC5/CAN.c **** *  The indication whether the configuration has been accepted or rejected.
 126:Generated_Source\PSoC5/CAN.c **** *   Define                             Description
 127:Generated_Source\PSoC5/CAN.c **** *    CYRET_SUCCESS                      The function passed successfully
 128:Generated_Source\PSoC5/CAN.c **** *    CAN_FAIL              The function failed
 129:Generated_Source\PSoC5/CAN.c **** *
 130:Generated_Source\PSoC5/CAN.c **** * Side Effects:
 131:Generated_Source\PSoC5/CAN.c **** *  All the registers will be reset to their initial values. This will
 132:Generated_Source\PSoC5/CAN.c **** *  re-initialize the component with the following exceptions - it will not clear
 133:Generated_Source\PSoC5/CAN.c **** *  data from the mailboxes.
 134:Generated_Source\PSoC5/CAN.c **** *  Enable power to the CAN Core.
ARM GAS  C:\Users\badea\AppData\Local\Temp\cc3YEltE.s 			page 6


 135:Generated_Source\PSoC5/CAN.c **** *
 136:Generated_Source\PSoC5/CAN.c **** *******************************************************************************/
 137:Generated_Source\PSoC5/CAN.c **** uint8 CAN_Init(void) 
 138:Generated_Source\PSoC5/CAN.c **** {
 146              		.loc 1 138 0
 147              		.cfi_startproc
 148              		@ args = 0, pretend = 0, frame = 8
 149              		@ frame_needed = 1, uses_anonymous_args = 0
 150 0000 80B5     		push	{r7, lr}
 151              		.cfi_def_cfa_offset 8
 152              		.cfi_offset 7, -8
 153              		.cfi_offset 14, -4
 154 0002 82B0     		sub	sp, sp, #8
 155              		.cfi_def_cfa_offset 16
 156 0004 00AF     		add	r7, sp, #0
 157              		.cfi_def_cfa_register 7
 139:Generated_Source\PSoC5/CAN.c ****     uint32 timeout = CAN_MODE_STATE_STOP_TIMEOUT;
 158              		.loc 1 139 0
 159 0006 4FF4F053 		mov	r3, #7680
 160 000a 7B60     		str	r3, [r7, #4]
 140:Generated_Source\PSoC5/CAN.c ****     uint8 result = CAN_FAIL;
 161              		.loc 1 140 0
 162 000c 0123     		movs	r3, #1
 163 000e FB70     		strb	r3, [r7, #3]
 141:Generated_Source\PSoC5/CAN.c ****     uint8 localResult = CAN_FAIL;
 164              		.loc 1 141 0
 165 0010 0123     		movs	r3, #1
 166 0012 BB70     		strb	r3, [r7, #2]
 142:Generated_Source\PSoC5/CAN.c **** 
 143:Generated_Source\PSoC5/CAN.c ****     #if (CY_PSOC3 || CY_PSOC5)
 144:Generated_Source\PSoC5/CAN.c ****         uint8 enableInterrupts;
 145:Generated_Source\PSoC5/CAN.c **** 
 146:Generated_Source\PSoC5/CAN.c ****         enableInterrupts = CyEnterCriticalSection();
 167              		.loc 1 146 0
 168 0014 FFF7FEFF 		bl	CyEnterCriticalSection
 169 0018 0346     		mov	r3, r0
 170 001a 7B70     		strb	r3, [r7, #1]
 147:Generated_Source\PSoC5/CAN.c ****         /* Enable CAN block in Active mode */
 148:Generated_Source\PSoC5/CAN.c ****         CAN_PM_ACT_CFG_REG |= CAN_ACT_PWR_EN;
 171              		.loc 1 148 0
 172 001c 3D4A     		ldr	r2, .L20
 173 001e 3D4B     		ldr	r3, .L20
 174 0020 1B78     		ldrb	r3, [r3]
 175 0022 DBB2     		uxtb	r3, r3
 176 0024 43F00103 		orr	r3, r3, #1
 177 0028 DBB2     		uxtb	r3, r3
 178 002a 1370     		strb	r3, [r2]
 149:Generated_Source\PSoC5/CAN.c ****         /* Enable CAN block in Alternate Active (Standby) mode */
 150:Generated_Source\PSoC5/CAN.c ****         CAN_PM_STBY_CFG_REG |= CAN_STBY_PWR_EN;
 179              		.loc 1 150 0
 180 002c 3A4A     		ldr	r2, .L20+4
 181 002e 3A4B     		ldr	r3, .L20+4
 182 0030 1B78     		ldrb	r3, [r3]
 183 0032 DBB2     		uxtb	r3, r3
 184 0034 43F00103 		orr	r3, r3, #1
 185 0038 DBB2     		uxtb	r3, r3
 186 003a 1370     		strb	r3, [r2]
ARM GAS  C:\Users\badea\AppData\Local\Temp\cc3YEltE.s 			page 7


 151:Generated_Source\PSoC5/CAN.c ****         CyExitCriticalSection(enableInterrupts);
 187              		.loc 1 151 0
 188 003c 7B78     		ldrb	r3, [r7, #1]	@ zero_extendqisi2
 189 003e 1846     		mov	r0, r3
 190 0040 FFF7FEFF 		bl	CyExitCriticalSection
 152:Generated_Source\PSoC5/CAN.c **** 
 153:Generated_Source\PSoC5/CAN.c ****         /* Sets CAN controller to stop mode */
 154:Generated_Source\PSoC5/CAN.c ****         CAN_CMD_REG.byte[0u] &= (uint8) (~CAN_MODE_MASK);
 191              		.loc 1 154 0
 192 0044 354A     		ldr	r2, .L20+8
 193 0046 354B     		ldr	r3, .L20+8
 194 0048 1B78     		ldrb	r3, [r3]
 195 004a DBB2     		uxtb	r3, r3
 196 004c 23F00103 		bic	r3, r3, #1
 197 0050 DBB2     		uxtb	r3, r3
 198 0052 1370     		strb	r3, [r2]
 155:Generated_Source\PSoC5/CAN.c **** 
 156:Generated_Source\PSoC5/CAN.c ****         /* Timeout for CAN state machine to switch mode to Stop */
 157:Generated_Source\PSoC5/CAN.c ****         while ((timeout != 0u) && ((CAN_CMD_REG.byte[0u] & CAN_MODE_MASK) != 0u))
 199              		.loc 1 157 0
 200 0054 02E0     		b	.L14
 201              	.L16:
 158:Generated_Source\PSoC5/CAN.c ****         {
 159:Generated_Source\PSoC5/CAN.c ****             timeout--;
 202              		.loc 1 159 0
 203 0056 7B68     		ldr	r3, [r7, #4]
 204 0058 013B     		subs	r3, r3, #1
 205 005a 7B60     		str	r3, [r7, #4]
 206              	.L14:
 157:Generated_Source\PSoC5/CAN.c ****         {
 207              		.loc 1 157 0
 208 005c 7B68     		ldr	r3, [r7, #4]
 209 005e 002B     		cmp	r3, #0
 210 0060 06D0     		beq	.L15
 157:Generated_Source\PSoC5/CAN.c ****         {
 211              		.loc 1 157 0 is_stmt 0 discriminator 1
 212 0062 2E4B     		ldr	r3, .L20+8
 213 0064 1B78     		ldrb	r3, [r3]
 214 0066 DBB2     		uxtb	r3, r3
 215 0068 03F00103 		and	r3, r3, #1
 216 006c 002B     		cmp	r3, #0
 217 006e F2D1     		bne	.L16
 218              	.L15:
 160:Generated_Source\PSoC5/CAN.c ****         }
 161:Generated_Source\PSoC5/CAN.c ****     #else  /* CY_PSOC4 */
 162:Generated_Source\PSoC5/CAN.c ****         /* Enable CAN IP Block */
 163:Generated_Source\PSoC5/CAN.c ****         CAN_CNTL_REG = CAN_IP_ENABLE;
 164:Generated_Source\PSoC5/CAN.c **** 
 165:Generated_Source\PSoC5/CAN.c ****         /* Sets CAN controller to stop mode */
 166:Generated_Source\PSoC5/CAN.c ****         CAN_CMD_REG &= (uint32) (~((uint32) CAN_MODE_MASK));
 167:Generated_Source\PSoC5/CAN.c **** 
 168:Generated_Source\PSoC5/CAN.c ****         /* Timeout for CAN state machine to switch mode to Stop */
 169:Generated_Source\PSoC5/CAN.c ****         while ((timeout != 0u) && ((CAN_CMD_REG & CAN_MODE_MASK) != 0u))
 170:Generated_Source\PSoC5/CAN.c ****         {
 171:Generated_Source\PSoC5/CAN.c ****             timeout--;
 172:Generated_Source\PSoC5/CAN.c ****         }
 173:Generated_Source\PSoC5/CAN.c ****     #endif /* CY_PSOC3 || CY_PSOC5 */
ARM GAS  C:\Users\badea\AppData\Local\Temp\cc3YEltE.s 			page 8


 174:Generated_Source\PSoC5/CAN.c ****         if (timeout != 0u)
 219              		.loc 1 174 0 is_stmt 1
 220 0070 7B68     		ldr	r3, [r7, #4]
 221 0072 002B     		cmp	r3, #0
 222 0074 49D0     		beq	.L17
 175:Generated_Source\PSoC5/CAN.c ****         {
 176:Generated_Source\PSoC5/CAN.c ****             /* Disable Interrupt. */
 177:Generated_Source\PSoC5/CAN.c ****         CyIntDisable(CAN_ISR_NUMBER);
 223              		.loc 1 177 0
 224 0076 2A4B     		ldr	r3, .L20+12
 225 0078 4FF48032 		mov	r2, #65536
 226 007c 1A60     		str	r2, [r3]
 178:Generated_Source\PSoC5/CAN.c **** 
 179:Generated_Source\PSoC5/CAN.c ****         /* Set the ISR to point to the CAN_ISR Interrupt. */
 180:Generated_Source\PSoC5/CAN.c ****         (void) CyIntSetVector(CAN_ISR_NUMBER, & CAN_ISR);
 227              		.loc 1 180 0
 228 007e 2949     		ldr	r1, .L20+16
 229 0080 1020     		movs	r0, #16
 230 0082 FFF7FEFF 		bl	CyIntSetVector
 181:Generated_Source\PSoC5/CAN.c **** 
 182:Generated_Source\PSoC5/CAN.c ****         /* Set the priority. */
 183:Generated_Source\PSoC5/CAN.c ****         CyIntSetPriority(CAN_ISR_NUMBER, CAN_ISR_PRIORITY);
 231              		.loc 1 183 0
 232 0086 0721     		movs	r1, #7
 233 0088 1020     		movs	r0, #16
 234 008a FFF7FEFF 		bl	CyIntSetPriority
 184:Generated_Source\PSoC5/CAN.c **** 
 185:Generated_Source\PSoC5/CAN.c ****             if (CAN_SetPreScaler(CAN_BITRATE) == CYRET_SUCCESS)
 235              		.loc 1 185 0
 236 008e 0220     		movs	r0, #2
 237 0090 FFF7FEFF 		bl	CAN_SetPreScaler
 238 0094 0346     		mov	r3, r0
 239 0096 002B     		cmp	r3, #0
 240 0098 1CD1     		bne	.L18
 186:Generated_Source\PSoC5/CAN.c ****             {
 187:Generated_Source\PSoC5/CAN.c ****                 if (CAN_SetArbiter(CAN_ARBITER) == CYRET_SUCCESS)
 241              		.loc 1 187 0
 242 009a 0020     		movs	r0, #0
 243 009c FFF7FEFF 		bl	CAN_SetArbiter
 244 00a0 0346     		mov	r3, r0
 245 00a2 002B     		cmp	r3, #0
 246 00a4 16D1     		bne	.L18
 188:Generated_Source\PSoC5/CAN.c ****                 {
 189:Generated_Source\PSoC5/CAN.c ****                     #if (!(CY_PSOC3 || CY_PSOC5))
 190:Generated_Source\PSoC5/CAN.c ****                         if (CAN_SetSwapDataEndianness(CAN_SWAP_DATA_END) == CYRET_SUCCESS)
 191:Generated_Source\PSoC5/CAN.c ****                     #endif /* (!(CY_PSOC3 || CY_PSOC5)) */
 192:Generated_Source\PSoC5/CAN.c ****                         {
 193:Generated_Source\PSoC5/CAN.c ****                             if (CAN_SetTsegSample(CAN_CFG_REG_TSEG1,
 247              		.loc 1 193 0
 248 00a6 0023     		movs	r3, #0
 249 00a8 0322     		movs	r2, #3
 250 00aa 0421     		movs	r1, #4
 251 00ac 0920     		movs	r0, #9
 252 00ae FFF7FEFF 		bl	CAN_SetTsegSample
 253 00b2 0346     		mov	r3, r0
 254 00b4 002B     		cmp	r3, #0
 255 00b6 0DD1     		bne	.L18
ARM GAS  C:\Users\badea\AppData\Local\Temp\cc3YEltE.s 			page 9


 194:Generated_Source\PSoC5/CAN.c ****                                 CAN_CFG_REG_TSEG2, CAN_CFG_REG_SJW,
 195:Generated_Source\PSoC5/CAN.c ****                                 CAN_SAMPLING_MODE) == CYRET_SUCCESS)
 196:Generated_Source\PSoC5/CAN.c ****                             {
 197:Generated_Source\PSoC5/CAN.c ****                                 if (CAN_SetRestartType(CAN_RESET_TYPE) == CYRET_SUCCESS)
 256              		.loc 1 197 0
 257 00b8 0020     		movs	r0, #0
 258 00ba FFF7FEFF 		bl	CAN_SetRestartType
 259 00be 0346     		mov	r3, r0
 260 00c0 002B     		cmp	r3, #0
 261 00c2 07D1     		bne	.L18
 198:Generated_Source\PSoC5/CAN.c ****                                 {
 199:Generated_Source\PSoC5/CAN.c ****                                     if (CAN_SetEdgeMode(CAN_SYNC_EDGE) == CYRET_SUCCESS)
 262              		.loc 1 199 0
 263 00c4 0020     		movs	r0, #0
 264 00c6 FFF7FEFF 		bl	CAN_SetEdgeMode
 265 00ca 0346     		mov	r3, r0
 266 00cc 002B     		cmp	r3, #0
 267 00ce 01D1     		bne	.L18
 200:Generated_Source\PSoC5/CAN.c ****                                     {
 201:Generated_Source\PSoC5/CAN.c ****                                         localResult = CYRET_SUCCESS;
 268              		.loc 1 201 0
 269 00d0 0023     		movs	r3, #0
 270 00d2 BB70     		strb	r3, [r7, #2]
 271              	.L18:
 202:Generated_Source\PSoC5/CAN.c ****                                     }
 203:Generated_Source\PSoC5/CAN.c ****                                 }
 204:Generated_Source\PSoC5/CAN.c ****                             }
 205:Generated_Source\PSoC5/CAN.c ****                         }
 206:Generated_Source\PSoC5/CAN.c ****                 }
 207:Generated_Source\PSoC5/CAN.c ****             }
 208:Generated_Source\PSoC5/CAN.c **** 
 209:Generated_Source\PSoC5/CAN.c ****             if (localResult == CYRET_SUCCESS)
 272              		.loc 1 209 0
 273 00d4 BB78     		ldrb	r3, [r7, #2]	@ zero_extendqisi2
 274 00d6 002B     		cmp	r3, #0
 275 00d8 17D1     		bne	.L17
 210:Generated_Source\PSoC5/CAN.c ****             {
 211:Generated_Source\PSoC5/CAN.c ****                 if (CAN_RxTxBuffersConfig() == CYRET_SUCCESS)
 276              		.loc 1 211 0
 277 00da FFF7FEFF 		bl	CAN_RxTxBuffersConfig
 278 00de 0346     		mov	r3, r0
 279 00e0 002B     		cmp	r3, #0
 280 00e2 12D1     		bne	.L17
 212:Generated_Source\PSoC5/CAN.c ****                 {
 213:Generated_Source\PSoC5/CAN.c ****                     /* Write IRQ Mask */
 214:Generated_Source\PSoC5/CAN.c ****                     if (CAN_SetIrqMask(CAN_INIT_INTERRUPT_MASK) ==
 281              		.loc 1 214 0
 282 00e4 41F20100 		movw	r0, #4097
 283 00e8 FFF7FEFF 		bl	CAN_SetIrqMask
 284 00ec 0346     		mov	r3, r0
 285 00ee 002B     		cmp	r3, #0
 286 00f0 0BD1     		bne	.L17
 215:Generated_Source\PSoC5/CAN.c ****                         CYRET_SUCCESS)
 216:Generated_Source\PSoC5/CAN.c ****                     {
 217:Generated_Source\PSoC5/CAN.c ****                         /* Set CAN Operation Mode to Active mode always */
 218:Generated_Source\PSoC5/CAN.c ****                         #if (CY_PSOC3 || CY_PSOC5)
 219:Generated_Source\PSoC5/CAN.c ****                             CAN_CMD_REG.byte[0u] = CAN_INITIAL_MODE;
ARM GAS  C:\Users\badea\AppData\Local\Temp\cc3YEltE.s 			page 10


 287              		.loc 1 219 0
 288 00f2 0A4B     		ldr	r3, .L20+8
 289 00f4 0022     		movs	r2, #0
 290 00f6 1A70     		strb	r2, [r3]
 220:Generated_Source\PSoC5/CAN.c ****                             if ((CAN_CMD_REG.byte[0u] & CAN_MODE_MASK) == 0u)
 291              		.loc 1 220 0
 292 00f8 084B     		ldr	r3, .L20+8
 293 00fa 1B78     		ldrb	r3, [r3]
 294 00fc DBB2     		uxtb	r3, r3
 295 00fe 03F00103 		and	r3, r3, #1
 296 0102 002B     		cmp	r3, #0
 297 0104 01D1     		bne	.L17
 221:Generated_Source\PSoC5/CAN.c ****                         #else  /* CY_PSOC4 */
 222:Generated_Source\PSoC5/CAN.c ****                             CAN_CMD_REG &= (uint32) (~((uint32) CAN_OPMODE_FIELD_MASK));
 223:Generated_Source\PSoC5/CAN.c ****                             if ((CAN_CMD_REG & CAN_OPMODE_FIELD_MASK) == 0u)
 224:Generated_Source\PSoC5/CAN.c ****                         #endif /* CY_PSOC3 || CY_PSOC5 */
 225:Generated_Source\PSoC5/CAN.c ****                             {
 226:Generated_Source\PSoC5/CAN.c ****                                 result = CYRET_SUCCESS;
 298              		.loc 1 226 0
 299 0106 0023     		movs	r3, #0
 300 0108 FB70     		strb	r3, [r7, #3]
 301              	.L17:
 227:Generated_Source\PSoC5/CAN.c ****                             }
 228:Generated_Source\PSoC5/CAN.c ****                     }
 229:Generated_Source\PSoC5/CAN.c ****                 }
 230:Generated_Source\PSoC5/CAN.c ****             }
 231:Generated_Source\PSoC5/CAN.c ****         }
 232:Generated_Source\PSoC5/CAN.c **** 
 233:Generated_Source\PSoC5/CAN.c ****     return (result);
 302              		.loc 1 233 0
 303 010a FB78     		ldrb	r3, [r7, #3]	@ zero_extendqisi2
 234:Generated_Source\PSoC5/CAN.c **** }
 304              		.loc 1 234 0
 305 010c 1846     		mov	r0, r3
 306 010e 0837     		adds	r7, r7, #8
 307              		.cfi_def_cfa_offset 8
 308 0110 BD46     		mov	sp, r7
 309              		.cfi_def_cfa_register 13
 310              		@ sp needed
 311 0112 80BD     		pop	{r7, pc}
 312              	.L21:
 313              		.align	2
 314              	.L20:
 315 0114 A6430040 		.word	1073759142
 316 0118 B6430040 		.word	1073759158
 317 011c 10A00040 		.word	1073782800
 318 0120 80E100E0 		.word	-536813184
 319 0124 00000000 		.word	CAN_ISR
 320              		.cfi_endproc
 321              	.LFE1:
 322              		.size	CAN_Init, .-CAN_Init
 323              		.section	.text.CAN_Enable,"ax",%progbits
 324              		.align	2
 325              		.global	CAN_Enable
 326              		.thumb
 327              		.thumb_func
 328              		.type	CAN_Enable, %function
ARM GAS  C:\Users\badea\AppData\Local\Temp\cc3YEltE.s 			page 11


 329              	CAN_Enable:
 330              	.LFB2:
 235:Generated_Source\PSoC5/CAN.c **** 
 236:Generated_Source\PSoC5/CAN.c **** 
 237:Generated_Source\PSoC5/CAN.c **** /*******************************************************************************
 238:Generated_Source\PSoC5/CAN.c **** * Function Name: CAN_Enable
 239:Generated_Source\PSoC5/CAN.c **** ********************************************************************************
 240:Generated_Source\PSoC5/CAN.c **** *
 241:Generated_Source\PSoC5/CAN.c **** * Summary:
 242:Generated_Source\PSoC5/CAN.c **** *  This function enables the CAN Component and ISR of CAN Component.
 243:Generated_Source\PSoC5/CAN.c **** *
 244:Generated_Source\PSoC5/CAN.c **** * Parameters:
 245:Generated_Source\PSoC5/CAN.c **** *  None.
 246:Generated_Source\PSoC5/CAN.c **** *
 247:Generated_Source\PSoC5/CAN.c **** * Return:
 248:Generated_Source\PSoC5/CAN.c **** *  The indication whether the register is written and verified.
 249:Generated_Source\PSoC5/CAN.c **** *   Define                             Description
 250:Generated_Source\PSoC5/CAN.c **** *    CYRET_SUCCESS                      The function passed successfully
 251:Generated_Source\PSoC5/CAN.c **** *    CAN_FAIL              The function failed
 252:Generated_Source\PSoC5/CAN.c **** *
 253:Generated_Source\PSoC5/CAN.c **** *******************************************************************************/
 254:Generated_Source\PSoC5/CAN.c **** uint8 CAN_Enable(void) 
 255:Generated_Source\PSoC5/CAN.c **** {
 331              		.loc 1 255 0
 332              		.cfi_startproc
 333              		@ args = 0, pretend = 0, frame = 8
 334              		@ frame_needed = 1, uses_anonymous_args = 0
 335 0000 80B5     		push	{r7, lr}
 336              		.cfi_def_cfa_offset 8
 337              		.cfi_offset 7, -8
 338              		.cfi_offset 14, -4
 339 0002 82B0     		sub	sp, sp, #8
 340              		.cfi_def_cfa_offset 16
 341 0004 00AF     		add	r7, sp, #0
 342              		.cfi_def_cfa_register 7
 256:Generated_Source\PSoC5/CAN.c ****     uint32 timeout = CAN_MODE_STATE_RUN_TIMEOUT;
 343              		.loc 1 256 0
 344 0006 4FF41073 		mov	r3, #576
 345 000a 7B60     		str	r3, [r7, #4]
 257:Generated_Source\PSoC5/CAN.c ****     uint8 result = CAN_FAIL;
 346              		.loc 1 257 0
 347 000c 0123     		movs	r3, #1
 348 000e FB70     		strb	r3, [r7, #3]
 258:Generated_Source\PSoC5/CAN.c **** 
 259:Generated_Source\PSoC5/CAN.c ****     #if (CY_PSOC3 || CY_PSOC5)
 260:Generated_Source\PSoC5/CAN.c ****         uint8 enableInterrupts;
 261:Generated_Source\PSoC5/CAN.c **** 
 262:Generated_Source\PSoC5/CAN.c ****         enableInterrupts = CyEnterCriticalSection();
 349              		.loc 1 262 0
 350 0010 FFF7FEFF 		bl	CyEnterCriticalSection
 351 0014 0346     		mov	r3, r0
 352 0016 BB70     		strb	r3, [r7, #2]
 263:Generated_Source\PSoC5/CAN.c **** 
 264:Generated_Source\PSoC5/CAN.c ****         /* Enable CAN block in Active mode */
 265:Generated_Source\PSoC5/CAN.c ****         CAN_PM_ACT_CFG_REG |= CAN_ACT_PWR_EN;
 353              		.loc 1 265 0
 354 0018 1D4A     		ldr	r2, .L28
ARM GAS  C:\Users\badea\AppData\Local\Temp\cc3YEltE.s 			page 12


 355 001a 1D4B     		ldr	r3, .L28
 356 001c 1B78     		ldrb	r3, [r3]
 357 001e DBB2     		uxtb	r3, r3
 358 0020 43F00103 		orr	r3, r3, #1
 359 0024 DBB2     		uxtb	r3, r3
 360 0026 1370     		strb	r3, [r2]
 266:Generated_Source\PSoC5/CAN.c **** 
 267:Generated_Source\PSoC5/CAN.c ****         /* Enable CAN block in Alternate Active (Standby) mode */
 268:Generated_Source\PSoC5/CAN.c ****         CAN_PM_STBY_CFG_REG |= CAN_STBY_PWR_EN;
 361              		.loc 1 268 0
 362 0028 1A4A     		ldr	r2, .L28+4
 363 002a 1A4B     		ldr	r3, .L28+4
 364 002c 1B78     		ldrb	r3, [r3]
 365 002e DBB2     		uxtb	r3, r3
 366 0030 43F00103 		orr	r3, r3, #1
 367 0034 DBB2     		uxtb	r3, r3
 368 0036 1370     		strb	r3, [r2]
 269:Generated_Source\PSoC5/CAN.c **** 
 270:Generated_Source\PSoC5/CAN.c ****         CyExitCriticalSection(enableInterrupts);
 369              		.loc 1 270 0
 370 0038 BB78     		ldrb	r3, [r7, #2]	@ zero_extendqisi2
 371 003a 1846     		mov	r0, r3
 372 003c FFF7FEFF 		bl	CyExitCriticalSection
 271:Generated_Source\PSoC5/CAN.c ****     #endif /* CY_PSOC3 || CY_PSOC5 */
 272:Generated_Source\PSoC5/CAN.c **** 
 273:Generated_Source\PSoC5/CAN.c ****     /* Clear interrupts status */
 274:Generated_Source\PSoC5/CAN.c ****     CY_SET_REG32(CAN_INT_SR_PTR, CAN_INIT_INTERRUPT_MASK);
 373              		.loc 1 274 0
 374 0040 154B     		ldr	r3, .L28+8
 375 0042 41F20102 		movw	r2, #4097
 376 0046 1A60     		str	r2, [r3]
 275:Generated_Source\PSoC5/CAN.c ****     (void) CAN_GlobalIntEnable();
 377              		.loc 1 275 0
 378 0048 FFF7FEFF 		bl	CAN_GlobalIntEnable
 276:Generated_Source\PSoC5/CAN.c **** 
 277:Generated_Source\PSoC5/CAN.c ****     /* Enable isr */
 278:Generated_Source\PSoC5/CAN.c ****     CyIntEnable(CAN_ISR_NUMBER);
 379              		.loc 1 278 0
 380 004c 134B     		ldr	r3, .L28+12
 381 004e 4FF48032 		mov	r2, #65536
 382 0052 1A60     		str	r2, [r3]
 279:Generated_Source\PSoC5/CAN.c **** 
 280:Generated_Source\PSoC5/CAN.c ****     /* Sets CAN controller to run mode */
 281:Generated_Source\PSoC5/CAN.c ****     CY_SET_REG32(CAN_CMD_PTR, CY_GET_REG32(CAN_CMD_PTR) | CAN_MODE_MASK);
 383              		.loc 1 281 0
 384 0054 124A     		ldr	r2, .L28+16
 385 0056 124B     		ldr	r3, .L28+16
 386 0058 1B68     		ldr	r3, [r3]
 387 005a 43F00103 		orr	r3, r3, #1
 388 005e 1360     		str	r3, [r2]
 282:Generated_Source\PSoC5/CAN.c **** 
 283:Generated_Source\PSoC5/CAN.c ****     /* Timeout for CAN state machine to switch mode to Run */
 284:Generated_Source\PSoC5/CAN.c ****     while ((timeout != 0u) && ((CY_GET_REG32(CAN_CMD_PTR) & CAN_MODE_MASK) == 0u))
 389              		.loc 1 284 0
 390 0060 02E0     		b	.L23
 391              	.L25:
 285:Generated_Source\PSoC5/CAN.c ****     {
ARM GAS  C:\Users\badea\AppData\Local\Temp\cc3YEltE.s 			page 13


 286:Generated_Source\PSoC5/CAN.c ****         timeout--;
 392              		.loc 1 286 0
 393 0062 7B68     		ldr	r3, [r7, #4]
 394 0064 013B     		subs	r3, r3, #1
 395 0066 7B60     		str	r3, [r7, #4]
 396              	.L23:
 284:Generated_Source\PSoC5/CAN.c ****     {
 397              		.loc 1 284 0
 398 0068 7B68     		ldr	r3, [r7, #4]
 399 006a 002B     		cmp	r3, #0
 400 006c 05D0     		beq	.L24
 284:Generated_Source\PSoC5/CAN.c ****     {
 401              		.loc 1 284 0 is_stmt 0 discriminator 1
 402 006e 0C4B     		ldr	r3, .L28+16
 403 0070 1B68     		ldr	r3, [r3]
 404 0072 03F00103 		and	r3, r3, #1
 405 0076 002B     		cmp	r3, #0
 406 0078 F3D0     		beq	.L25
 407              	.L24:
 287:Generated_Source\PSoC5/CAN.c ****     }
 288:Generated_Source\PSoC5/CAN.c **** 
 289:Generated_Source\PSoC5/CAN.c ****     if (timeout != 0u)
 408              		.loc 1 289 0 is_stmt 1
 409 007a 7B68     		ldr	r3, [r7, #4]
 410 007c 002B     		cmp	r3, #0
 411 007e 01D0     		beq	.L26
 290:Generated_Source\PSoC5/CAN.c ****     {
 291:Generated_Source\PSoC5/CAN.c ****         result = CYRET_SUCCESS;
 412              		.loc 1 291 0
 413 0080 0023     		movs	r3, #0
 414 0082 FB70     		strb	r3, [r7, #3]
 415              	.L26:
 292:Generated_Source\PSoC5/CAN.c ****     }
 293:Generated_Source\PSoC5/CAN.c **** 
 294:Generated_Source\PSoC5/CAN.c ****     return (result);
 416              		.loc 1 294 0
 417 0084 FB78     		ldrb	r3, [r7, #3]	@ zero_extendqisi2
 295:Generated_Source\PSoC5/CAN.c **** }
 418              		.loc 1 295 0
 419 0086 1846     		mov	r0, r3
 420 0088 0837     		adds	r7, r7, #8
 421              		.cfi_def_cfa_offset 8
 422 008a BD46     		mov	sp, r7
 423              		.cfi_def_cfa_register 13
 424              		@ sp needed
 425 008c 80BD     		pop	{r7, pc}
 426              	.L29:
 427 008e 00BF     		.align	2
 428              	.L28:
 429 0090 A6430040 		.word	1073759142
 430 0094 B6430040 		.word	1073759158
 431 0098 00A00040 		.word	1073782784
 432 009c 00E100E0 		.word	-536813312
 433 00a0 10A00040 		.word	1073782800
 434              		.cfi_endproc
 435              	.LFE2:
 436              		.size	CAN_Enable, .-CAN_Enable
ARM GAS  C:\Users\badea\AppData\Local\Temp\cc3YEltE.s 			page 14


 437              		.section	.text.CAN_Start,"ax",%progbits
 438              		.align	2
 439              		.global	CAN_Start
 440              		.thumb
 441              		.thumb_func
 442              		.type	CAN_Start, %function
 443              	CAN_Start:
 444              	.LFB3:
 296:Generated_Source\PSoC5/CAN.c **** 
 297:Generated_Source\PSoC5/CAN.c **** 
 298:Generated_Source\PSoC5/CAN.c **** /*******************************************************************************
 299:Generated_Source\PSoC5/CAN.c **** * FUNCTION NAME:   CAN_Start
 300:Generated_Source\PSoC5/CAN.c **** ********************************************************************************
 301:Generated_Source\PSoC5/CAN.c **** *
 302:Generated_Source\PSoC5/CAN.c **** * Summary:
 303:Generated_Source\PSoC5/CAN.c **** *  This function sets CAN Component into the Run mode. Starts Rate Counter if
 304:Generated_Source\PSoC5/CAN.c **** *  polling mailboxes are available.
 305:Generated_Source\PSoC5/CAN.c **** *
 306:Generated_Source\PSoC5/CAN.c **** * Parameters:
 307:Generated_Source\PSoC5/CAN.c **** *  None.
 308:Generated_Source\PSoC5/CAN.c **** *
 309:Generated_Source\PSoC5/CAN.c **** * Return:
 310:Generated_Source\PSoC5/CAN.c **** *  The indication whether the register is written and verified.
 311:Generated_Source\PSoC5/CAN.c **** *   Define                             Description
 312:Generated_Source\PSoC5/CAN.c **** *    CYRET_SUCCESS                      The function passed successfully
 313:Generated_Source\PSoC5/CAN.c **** *    CAN_FAIL              The function failed
 314:Generated_Source\PSoC5/CAN.c **** *
 315:Generated_Source\PSoC5/CAN.c **** * Global variables:
 316:Generated_Source\PSoC5/CAN.c **** *  CAN_initVar - used to check the initial configuration, modified
 317:Generated_Source\PSoC5/CAN.c **** *  on the first function call.
 318:Generated_Source\PSoC5/CAN.c **** *
 319:Generated_Source\PSoC5/CAN.c **** * Reentrant:
 320:Generated_Source\PSoC5/CAN.c **** *  No.
 321:Generated_Source\PSoC5/CAN.c **** *
 322:Generated_Source\PSoC5/CAN.c **** *******************************************************************************/
 323:Generated_Source\PSoC5/CAN.c **** uint8 CAN_Start(void) 
 324:Generated_Source\PSoC5/CAN.c **** {
 445              		.loc 1 324 0
 446              		.cfi_startproc
 447              		@ args = 0, pretend = 0, frame = 8
 448              		@ frame_needed = 1, uses_anonymous_args = 0
 449 0000 80B5     		push	{r7, lr}
 450              		.cfi_def_cfa_offset 8
 451              		.cfi_offset 7, -8
 452              		.cfi_offset 14, -4
 453 0002 82B0     		sub	sp, sp, #8
 454              		.cfi_def_cfa_offset 16
 455 0004 00AF     		add	r7, sp, #0
 456              		.cfi_def_cfa_register 7
 325:Generated_Source\PSoC5/CAN.c ****     uint8 result = CYRET_SUCCESS;
 457              		.loc 1 325 0
 458 0006 0023     		movs	r3, #0
 459 0008 FB71     		strb	r3, [r7, #7]
 326:Generated_Source\PSoC5/CAN.c **** 
 327:Generated_Source\PSoC5/CAN.c ****     if (CAN_initVar == 0u)
 460              		.loc 1 327 0
 461 000a 0B4B     		ldr	r3, .L34
ARM GAS  C:\Users\badea\AppData\Local\Temp\cc3YEltE.s 			page 15


 462 000c 1B78     		ldrb	r3, [r3]	@ zero_extendqisi2
 463 000e 002B     		cmp	r3, #0
 464 0010 03D1     		bne	.L31
 328:Generated_Source\PSoC5/CAN.c ****     {
 329:Generated_Source\PSoC5/CAN.c ****         result = CAN_Init();
 465              		.loc 1 329 0
 466 0012 FFF7FEFF 		bl	CAN_Init
 467 0016 0346     		mov	r3, r0
 468 0018 FB71     		strb	r3, [r7, #7]
 469              	.L31:
 330:Generated_Source\PSoC5/CAN.c ****     }
 331:Generated_Source\PSoC5/CAN.c **** 
 332:Generated_Source\PSoC5/CAN.c ****     if (result == CYRET_SUCCESS)
 470              		.loc 1 332 0
 471 001a FB79     		ldrb	r3, [r7, #7]	@ zero_extendqisi2
 472 001c 002B     		cmp	r3, #0
 473 001e 06D1     		bne	.L32
 333:Generated_Source\PSoC5/CAN.c ****     {
 334:Generated_Source\PSoC5/CAN.c ****         CAN_initVar = 1u;
 474              		.loc 1 334 0
 475 0020 054B     		ldr	r3, .L34
 476 0022 0122     		movs	r2, #1
 477 0024 1A70     		strb	r2, [r3]
 335:Generated_Source\PSoC5/CAN.c ****         result = CAN_Enable();
 478              		.loc 1 335 0
 479 0026 FFF7FEFF 		bl	CAN_Enable
 480 002a 0346     		mov	r3, r0
 481 002c FB71     		strb	r3, [r7, #7]
 482              	.L32:
 336:Generated_Source\PSoC5/CAN.c ****     }
 337:Generated_Source\PSoC5/CAN.c **** 
 338:Generated_Source\PSoC5/CAN.c ****     return (result);
 483              		.loc 1 338 0
 484 002e FB79     		ldrb	r3, [r7, #7]	@ zero_extendqisi2
 339:Generated_Source\PSoC5/CAN.c **** }
 485              		.loc 1 339 0
 486 0030 1846     		mov	r0, r3
 487 0032 0837     		adds	r7, r7, #8
 488              		.cfi_def_cfa_offset 8
 489 0034 BD46     		mov	sp, r7
 490              		.cfi_def_cfa_register 13
 491              		@ sp needed
 492 0036 80BD     		pop	{r7, pc}
 493              	.L35:
 494              		.align	2
 495              	.L34:
 496 0038 00000000 		.word	CAN_initVar
 497              		.cfi_endproc
 498              	.LFE3:
 499              		.size	CAN_Start, .-CAN_Start
 500              		.section	.text.CAN_Stop,"ax",%progbits
 501              		.align	2
 502              		.global	CAN_Stop
 503              		.thumb
 504              		.thumb_func
 505              		.type	CAN_Stop, %function
 506              	CAN_Stop:
ARM GAS  C:\Users\badea\AppData\Local\Temp\cc3YEltE.s 			page 16


 507              	.LFB4:
 340:Generated_Source\PSoC5/CAN.c **** 
 341:Generated_Source\PSoC5/CAN.c **** 
 342:Generated_Source\PSoC5/CAN.c **** /*******************************************************************************
 343:Generated_Source\PSoC5/CAN.c **** * FUNCTION NAME:   CAN_Stop
 344:Generated_Source\PSoC5/CAN.c **** ********************************************************************************
 345:Generated_Source\PSoC5/CAN.c **** *
 346:Generated_Source\PSoC5/CAN.c **** * Summary:
 347:Generated_Source\PSoC5/CAN.c **** *  This function sets CAN Component into the Stop mode.
 348:Generated_Source\PSoC5/CAN.c **** *
 349:Generated_Source\PSoC5/CAN.c **** * Parameters:
 350:Generated_Source\PSoC5/CAN.c **** *  None.
 351:Generated_Source\PSoC5/CAN.c **** *
 352:Generated_Source\PSoC5/CAN.c **** * Return:
 353:Generated_Source\PSoC5/CAN.c **** *  The indication whether the register is written and verified.
 354:Generated_Source\PSoC5/CAN.c **** *   Define                             Description
 355:Generated_Source\PSoC5/CAN.c **** *    CYRET_SUCCESS                      The function passed successfully
 356:Generated_Source\PSoC5/CAN.c **** *    CAN_FAIL              The function failed
 357:Generated_Source\PSoC5/CAN.c **** *
 358:Generated_Source\PSoC5/CAN.c **** * Side Effects:
 359:Generated_Source\PSoC5/CAN.c **** *  Disable power to CAN Core in case of PSoC 3/5.
 360:Generated_Source\PSoC5/CAN.c **** *  Pending message in the Tx buffer of PSoC 3/5 will not be aborted on calling
 361:Generated_Source\PSoC5/CAN.c **** *  the CAN_Stop() API. User has to abort all pending messages
 362:Generated_Source\PSoC5/CAN.c **** *  before calling the CAN_Stop() function to make sure that the
 363:Generated_Source\PSoC5/CAN.c **** *  block stops all the message transmission immediately.
 364:Generated_Source\PSoC5/CAN.c **** *
 365:Generated_Source\PSoC5/CAN.c **** *******************************************************************************/
 366:Generated_Source\PSoC5/CAN.c **** uint8 CAN_Stop(void) 
 367:Generated_Source\PSoC5/CAN.c **** {
 508              		.loc 1 367 0
 509              		.cfi_startproc
 510              		@ args = 0, pretend = 0, frame = 8
 511              		@ frame_needed = 1, uses_anonymous_args = 0
 512 0000 80B5     		push	{r7, lr}
 513              		.cfi_def_cfa_offset 8
 514              		.cfi_offset 7, -8
 515              		.cfi_offset 14, -4
 516 0002 82B0     		sub	sp, sp, #8
 517              		.cfi_def_cfa_offset 16
 518 0004 00AF     		add	r7, sp, #0
 519              		.cfi_def_cfa_register 7
 368:Generated_Source\PSoC5/CAN.c ****     uint32 timeout = CAN_MODE_STATE_STOP_TIMEOUT;
 520              		.loc 1 368 0
 521 0006 4FF4F053 		mov	r3, #7680
 522 000a 7B60     		str	r3, [r7, #4]
 369:Generated_Source\PSoC5/CAN.c ****     uint8 result = CAN_FAIL;
 523              		.loc 1 369 0
 524 000c 0123     		movs	r3, #1
 525 000e FB70     		strb	r3, [r7, #3]
 370:Generated_Source\PSoC5/CAN.c **** 
 371:Generated_Source\PSoC5/CAN.c ****     #if (CY_PSOC3 || CY_PSOC5)
 372:Generated_Source\PSoC5/CAN.c ****         uint8 enableInterrupts;
 373:Generated_Source\PSoC5/CAN.c ****     #endif /* CY_PSOC3 || CY_PSOC5 */
 374:Generated_Source\PSoC5/CAN.c **** 
 375:Generated_Source\PSoC5/CAN.c ****     /* Set CAN controller to stop mode */
 376:Generated_Source\PSoC5/CAN.c ****     CY_SET_REG32(CAN_CMD_PTR, (CY_GET_REG32(CAN_CMD_PTR) &
 526              		.loc 1 376 0
ARM GAS  C:\Users\badea\AppData\Local\Temp\cc3YEltE.s 			page 17


 527 0010 1C4A     		ldr	r2, .L42
 528 0012 1C4B     		ldr	r3, .L42
 529 0014 1B68     		ldr	r3, [r3]
 530 0016 23F00103 		bic	r3, r3, #1
 531 001a 1360     		str	r3, [r2]
 377:Generated_Source\PSoC5/CAN.c ****                                             ((uint32) (~((uint32)CAN_MODE_MASK)))));
 378:Generated_Source\PSoC5/CAN.c **** 
 379:Generated_Source\PSoC5/CAN.c ****     /* Timeout for CAN state machine to switch mode to Stop */
 380:Generated_Source\PSoC5/CAN.c ****     while ((timeout != 0u) && ((CY_GET_REG32(CAN_CMD_PTR) & CAN_MODE_MASK) != 0u))
 532              		.loc 1 380 0
 533 001c 02E0     		b	.L37
 534              	.L39:
 381:Generated_Source\PSoC5/CAN.c ****     {
 382:Generated_Source\PSoC5/CAN.c ****         timeout--;
 535              		.loc 1 382 0
 536 001e 7B68     		ldr	r3, [r7, #4]
 537 0020 013B     		subs	r3, r3, #1
 538 0022 7B60     		str	r3, [r7, #4]
 539              	.L37:
 380:Generated_Source\PSoC5/CAN.c ****     {
 540              		.loc 1 380 0
 541 0024 7B68     		ldr	r3, [r7, #4]
 542 0026 002B     		cmp	r3, #0
 543 0028 05D0     		beq	.L38
 380:Generated_Source\PSoC5/CAN.c ****     {
 544              		.loc 1 380 0 is_stmt 0 discriminator 1
 545 002a 164B     		ldr	r3, .L42
 546 002c 1B68     		ldr	r3, [r3]
 547 002e 03F00103 		and	r3, r3, #1
 548 0032 002B     		cmp	r3, #0
 549 0034 F3D1     		bne	.L39
 550              	.L38:
 383:Generated_Source\PSoC5/CAN.c ****     }
 384:Generated_Source\PSoC5/CAN.c **** 
 385:Generated_Source\PSoC5/CAN.c ****     /* Verify that bit is cleared */
 386:Generated_Source\PSoC5/CAN.c ****     if (timeout != 0u)
 551              		.loc 1 386 0 is_stmt 1
 552 0036 7B68     		ldr	r3, [r7, #4]
 553 0038 002B     		cmp	r3, #0
 554 003a 1DD0     		beq	.L40
 387:Generated_Source\PSoC5/CAN.c ****     {
 388:Generated_Source\PSoC5/CAN.c ****         result = CYRET_SUCCESS;
 555              		.loc 1 388 0
 556 003c 0023     		movs	r3, #0
 557 003e FB70     		strb	r3, [r7, #3]
 389:Generated_Source\PSoC5/CAN.c **** 
 390:Generated_Source\PSoC5/CAN.c ****         /* Disable isr */
 391:Generated_Source\PSoC5/CAN.c ****     CyIntDisable(CAN_ISR_NUMBER);
 558              		.loc 1 391 0
 559 0040 114B     		ldr	r3, .L42+4
 560 0042 4FF48032 		mov	r2, #65536
 561 0046 1A60     		str	r2, [r3]
 392:Generated_Source\PSoC5/CAN.c **** 
 393:Generated_Source\PSoC5/CAN.c ****         #if (CY_PSOC3 || CY_PSOC5)
 394:Generated_Source\PSoC5/CAN.c ****             enableInterrupts = CyEnterCriticalSection();
 562              		.loc 1 394 0
 563 0048 FFF7FEFF 		bl	CyEnterCriticalSection
ARM GAS  C:\Users\badea\AppData\Local\Temp\cc3YEltE.s 			page 18


 564 004c 0346     		mov	r3, r0
 565 004e BB70     		strb	r3, [r7, #2]
 395:Generated_Source\PSoC5/CAN.c **** 
 396:Generated_Source\PSoC5/CAN.c ****             /* Disable CAN block in Active mode */
 397:Generated_Source\PSoC5/CAN.c ****             CAN_PM_ACT_CFG_REG &= (uint8) (~CAN_ACT_PWR_EN);
 566              		.loc 1 397 0
 567 0050 0E4A     		ldr	r2, .L42+8
 568 0052 0E4B     		ldr	r3, .L42+8
 569 0054 1B78     		ldrb	r3, [r3]
 570 0056 DBB2     		uxtb	r3, r3
 571 0058 23F00103 		bic	r3, r3, #1
 572 005c DBB2     		uxtb	r3, r3
 573 005e 1370     		strb	r3, [r2]
 398:Generated_Source\PSoC5/CAN.c **** 
 399:Generated_Source\PSoC5/CAN.c ****             /* Disable CAN block in Alternate Active (Standby) mode template */
 400:Generated_Source\PSoC5/CAN.c ****             CAN_PM_STBY_CFG_REG &= (uint8) (~CAN_STBY_PWR_EN);
 574              		.loc 1 400 0
 575 0060 0B4A     		ldr	r2, .L42+12
 576 0062 0B4B     		ldr	r3, .L42+12
 577 0064 1B78     		ldrb	r3, [r3]
 578 0066 DBB2     		uxtb	r3, r3
 579 0068 23F00103 		bic	r3, r3, #1
 580 006c DBB2     		uxtb	r3, r3
 581 006e 1370     		strb	r3, [r2]
 401:Generated_Source\PSoC5/CAN.c **** 
 402:Generated_Source\PSoC5/CAN.c ****             CyExitCriticalSection(enableInterrupts);
 582              		.loc 1 402 0
 583 0070 BB78     		ldrb	r3, [r7, #2]	@ zero_extendqisi2
 584 0072 1846     		mov	r0, r3
 585 0074 FFF7FEFF 		bl	CyExitCriticalSection
 586              	.L40:
 403:Generated_Source\PSoC5/CAN.c ****         #endif /* CY_PSOC3 || CY_PSOC5 */
 404:Generated_Source\PSoC5/CAN.c ****     }
 405:Generated_Source\PSoC5/CAN.c **** 
 406:Generated_Source\PSoC5/CAN.c ****     return (result);
 587              		.loc 1 406 0
 588 0078 FB78     		ldrb	r3, [r7, #3]	@ zero_extendqisi2
 407:Generated_Source\PSoC5/CAN.c **** }
 589              		.loc 1 407 0
 590 007a 1846     		mov	r0, r3
 591 007c 0837     		adds	r7, r7, #8
 592              		.cfi_def_cfa_offset 8
 593 007e BD46     		mov	sp, r7
 594              		.cfi_def_cfa_register 13
 595              		@ sp needed
 596 0080 80BD     		pop	{r7, pc}
 597              	.L43:
 598 0082 00BF     		.align	2
 599              	.L42:
 600 0084 10A00040 		.word	1073782800
 601 0088 80E100E0 		.word	-536813184
 602 008c A6430040 		.word	1073759142
 603 0090 B6430040 		.word	1073759158
 604              		.cfi_endproc
 605              	.LFE4:
 606              		.size	CAN_Stop, .-CAN_Stop
 607              		.section	.text.CAN_GlobalIntEnable,"ax",%progbits
ARM GAS  C:\Users\badea\AppData\Local\Temp\cc3YEltE.s 			page 19


 608              		.align	2
 609              		.global	CAN_GlobalIntEnable
 610              		.thumb
 611              		.thumb_func
 612              		.type	CAN_GlobalIntEnable, %function
 613              	CAN_GlobalIntEnable:
 614              	.LFB5:
 408:Generated_Source\PSoC5/CAN.c **** 
 409:Generated_Source\PSoC5/CAN.c **** 
 410:Generated_Source\PSoC5/CAN.c **** /*******************************************************************************
 411:Generated_Source\PSoC5/CAN.c **** * FUNCTION NAME:   CAN_GlobalIntEnable
 412:Generated_Source\PSoC5/CAN.c **** ********************************************************************************
 413:Generated_Source\PSoC5/CAN.c **** *
 414:Generated_Source\PSoC5/CAN.c **** * Summary:
 415:Generated_Source\PSoC5/CAN.c **** *  This function enables Global Interrupts from CAN Core.
 416:Generated_Source\PSoC5/CAN.c **** *
 417:Generated_Source\PSoC5/CAN.c **** * Parameters:
 418:Generated_Source\PSoC5/CAN.c **** *  None.
 419:Generated_Source\PSoC5/CAN.c **** *
 420:Generated_Source\PSoC5/CAN.c **** * Return:
 421:Generated_Source\PSoC5/CAN.c **** *  The indication whether the register is written and verified.
 422:Generated_Source\PSoC5/CAN.c **** *   Define                             Description
 423:Generated_Source\PSoC5/CAN.c **** *    CYRET_SUCCESS                      The function passed successfully
 424:Generated_Source\PSoC5/CAN.c **** *    CAN_FAIL              The function failed
 425:Generated_Source\PSoC5/CAN.c **** *
 426:Generated_Source\PSoC5/CAN.c **** *******************************************************************************/
 427:Generated_Source\PSoC5/CAN.c **** uint8 CAN_GlobalIntEnable(void) 
 428:Generated_Source\PSoC5/CAN.c **** {
 615              		.loc 1 428 0
 616              		.cfi_startproc
 617              		@ args = 0, pretend = 0, frame = 8
 618              		@ frame_needed = 1, uses_anonymous_args = 0
 619              		@ link register save eliminated.
 620 0000 80B4     		push	{r7}
 621              		.cfi_def_cfa_offset 4
 622              		.cfi_offset 7, -4
 623 0002 83B0     		sub	sp, sp, #12
 624              		.cfi_def_cfa_offset 16
 625 0004 00AF     		add	r7, sp, #0
 626              		.cfi_def_cfa_register 7
 429:Generated_Source\PSoC5/CAN.c ****     uint8 result = CAN_FAIL;
 627              		.loc 1 429 0
 628 0006 0123     		movs	r3, #1
 629 0008 FB71     		strb	r3, [r7, #7]
 430:Generated_Source\PSoC5/CAN.c **** 
 431:Generated_Source\PSoC5/CAN.c ****     #if (CY_PSOC3 || CY_PSOC5)
 432:Generated_Source\PSoC5/CAN.c ****         CAN_INT_EN_REG.byte[0u] |= CAN_GLOBAL_INT_MASK;
 630              		.loc 1 432 0
 631 000a 0B4A     		ldr	r2, .L47
 632 000c 0A4B     		ldr	r3, .L47
 633 000e 1B78     		ldrb	r3, [r3]
 634 0010 DBB2     		uxtb	r3, r3
 635 0012 43F00103 		orr	r3, r3, #1
 636 0016 DBB2     		uxtb	r3, r3
 637 0018 1370     		strb	r3, [r2]
 433:Generated_Source\PSoC5/CAN.c **** 
 434:Generated_Source\PSoC5/CAN.c ****         /* Verify that bit is set */
ARM GAS  C:\Users\badea\AppData\Local\Temp\cc3YEltE.s 			page 20


 435:Generated_Source\PSoC5/CAN.c ****         if ((CAN_INT_EN_REG.byte[0u] & CAN_GLOBAL_INT_MASK) != 0u)
 638              		.loc 1 435 0
 639 001a 074B     		ldr	r3, .L47
 640 001c 1B78     		ldrb	r3, [r3]
 641 001e DBB2     		uxtb	r3, r3
 642 0020 03F00103 		and	r3, r3, #1
 643 0024 002B     		cmp	r3, #0
 644 0026 01D0     		beq	.L45
 436:Generated_Source\PSoC5/CAN.c ****         {
 437:Generated_Source\PSoC5/CAN.c ****             result = CYRET_SUCCESS;
 645              		.loc 1 437 0
 646 0028 0023     		movs	r3, #0
 647 002a FB71     		strb	r3, [r7, #7]
 648              	.L45:
 438:Generated_Source\PSoC5/CAN.c ****         }
 439:Generated_Source\PSoC5/CAN.c ****     #else  /* CY_PSOC4 */
 440:Generated_Source\PSoC5/CAN.c ****         CAN_INT_EN_REG |= CAN_GLOBAL_INT_MASK;
 441:Generated_Source\PSoC5/CAN.c ****         /* Verify that bit is set */
 442:Generated_Source\PSoC5/CAN.c ****         if ((CAN_INT_EN_REG & CAN_GLOBAL_INT_MASK) != 0u)
 443:Generated_Source\PSoC5/CAN.c ****         {
 444:Generated_Source\PSoC5/CAN.c ****             result = CYRET_SUCCESS;
 445:Generated_Source\PSoC5/CAN.c ****         }
 446:Generated_Source\PSoC5/CAN.c ****     #endif /* CY_PSOC3 || CY_PSOC5 */
 447:Generated_Source\PSoC5/CAN.c **** 
 448:Generated_Source\PSoC5/CAN.c ****     return (result);
 649              		.loc 1 448 0
 650 002c FB79     		ldrb	r3, [r7, #7]	@ zero_extendqisi2
 449:Generated_Source\PSoC5/CAN.c **** }
 651              		.loc 1 449 0
 652 002e 1846     		mov	r0, r3
 653 0030 0C37     		adds	r7, r7, #12
 654              		.cfi_def_cfa_offset 4
 655 0032 BD46     		mov	sp, r7
 656              		.cfi_def_cfa_register 13
 657              		@ sp needed
 658 0034 80BC     		pop	{r7}
 659              		.cfi_restore 7
 660              		.cfi_def_cfa_offset 0
 661 0036 7047     		bx	lr
 662              	.L48:
 663              		.align	2
 664              	.L47:
 665 0038 04A00040 		.word	1073782788
 666              		.cfi_endproc
 667              	.LFE5:
 668              		.size	CAN_GlobalIntEnable, .-CAN_GlobalIntEnable
 669              		.section	.text.CAN_GlobalIntDisable,"ax",%progbits
 670              		.align	2
 671              		.global	CAN_GlobalIntDisable
 672              		.thumb
 673              		.thumb_func
 674              		.type	CAN_GlobalIntDisable, %function
 675              	CAN_GlobalIntDisable:
 676              	.LFB6:
 450:Generated_Source\PSoC5/CAN.c **** 
 451:Generated_Source\PSoC5/CAN.c **** 
 452:Generated_Source\PSoC5/CAN.c **** /*******************************************************************************
ARM GAS  C:\Users\badea\AppData\Local\Temp\cc3YEltE.s 			page 21


 453:Generated_Source\PSoC5/CAN.c **** * FUNCTION NAME:   CAN_GlobalIntDisable
 454:Generated_Source\PSoC5/CAN.c **** ********************************************************************************
 455:Generated_Source\PSoC5/CAN.c **** *
 456:Generated_Source\PSoC5/CAN.c **** * Summary:
 457:Generated_Source\PSoC5/CAN.c **** *  This function disables Global Interrupts from CAN Core.
 458:Generated_Source\PSoC5/CAN.c **** *
 459:Generated_Source\PSoC5/CAN.c **** * Parameters:
 460:Generated_Source\PSoC5/CAN.c **** *  None.
 461:Generated_Source\PSoC5/CAN.c **** *
 462:Generated_Source\PSoC5/CAN.c **** * Return:
 463:Generated_Source\PSoC5/CAN.c **** *  The indication whether the register is written and verified.
 464:Generated_Source\PSoC5/CAN.c **** *   Define                             Description
 465:Generated_Source\PSoC5/CAN.c **** *    CYRET_SUCCESS                      The function passed successfully
 466:Generated_Source\PSoC5/CAN.c **** *    CAN_FAIL              The function failed
 467:Generated_Source\PSoC5/CAN.c **** *
 468:Generated_Source\PSoC5/CAN.c **** *******************************************************************************/
 469:Generated_Source\PSoC5/CAN.c **** uint8 CAN_GlobalIntDisable(void) 
 470:Generated_Source\PSoC5/CAN.c **** {
 677              		.loc 1 470 0
 678              		.cfi_startproc
 679              		@ args = 0, pretend = 0, frame = 8
 680              		@ frame_needed = 1, uses_anonymous_args = 0
 681              		@ link register save eliminated.
 682 0000 80B4     		push	{r7}
 683              		.cfi_def_cfa_offset 4
 684              		.cfi_offset 7, -4
 685 0002 83B0     		sub	sp, sp, #12
 686              		.cfi_def_cfa_offset 16
 687 0004 00AF     		add	r7, sp, #0
 688              		.cfi_def_cfa_register 7
 471:Generated_Source\PSoC5/CAN.c ****     uint8 result = CAN_FAIL;
 689              		.loc 1 471 0
 690 0006 0123     		movs	r3, #1
 691 0008 FB71     		strb	r3, [r7, #7]
 472:Generated_Source\PSoC5/CAN.c **** 
 473:Generated_Source\PSoC5/CAN.c ****     #if (CY_PSOC3 || CY_PSOC5)
 474:Generated_Source\PSoC5/CAN.c ****         CAN_INT_EN_REG.byte[0u] &= (uint8) (~CAN_GLOBAL_INT_MASK);
 692              		.loc 1 474 0
 693 000a 0B4A     		ldr	r2, .L52
 694 000c 0A4B     		ldr	r3, .L52
 695 000e 1B78     		ldrb	r3, [r3]
 696 0010 DBB2     		uxtb	r3, r3
 697 0012 23F00103 		bic	r3, r3, #1
 698 0016 DBB2     		uxtb	r3, r3
 699 0018 1370     		strb	r3, [r2]
 475:Generated_Source\PSoC5/CAN.c **** 
 476:Generated_Source\PSoC5/CAN.c ****         /* Verify that bit is cleared */
 477:Generated_Source\PSoC5/CAN.c ****         if ((CAN_INT_EN_REG.byte[0u] & CAN_GLOBAL_INT_MASK) == 0u)
 700              		.loc 1 477 0
 701 001a 074B     		ldr	r3, .L52
 702 001c 1B78     		ldrb	r3, [r3]
 703 001e DBB2     		uxtb	r3, r3
 704 0020 03F00103 		and	r3, r3, #1
 705 0024 002B     		cmp	r3, #0
 706 0026 01D1     		bne	.L50
 478:Generated_Source\PSoC5/CAN.c ****         {
 479:Generated_Source\PSoC5/CAN.c ****             result = CYRET_SUCCESS;
ARM GAS  C:\Users\badea\AppData\Local\Temp\cc3YEltE.s 			page 22


 707              		.loc 1 479 0
 708 0028 0023     		movs	r3, #0
 709 002a FB71     		strb	r3, [r7, #7]
 710              	.L50:
 480:Generated_Source\PSoC5/CAN.c ****         }
 481:Generated_Source\PSoC5/CAN.c ****     #else  /* CY_PSOC4 */
 482:Generated_Source\PSoC5/CAN.c ****         CAN_INT_EN_REG &= (uint32) (~((uint32) CAN_GLOBAL_INT_MASK));
 483:Generated_Source\PSoC5/CAN.c **** 
 484:Generated_Source\PSoC5/CAN.c ****         /* Verify that bit is cleared */
 485:Generated_Source\PSoC5/CAN.c ****         if ((CAN_INT_EN_REG & CAN_GLOBAL_INT_MASK) == 0u)
 486:Generated_Source\PSoC5/CAN.c ****         {
 487:Generated_Source\PSoC5/CAN.c ****             result = CYRET_SUCCESS;
 488:Generated_Source\PSoC5/CAN.c ****         }
 489:Generated_Source\PSoC5/CAN.c ****     #endif /* CY_PSOC3 || CY_PSOC5 */
 490:Generated_Source\PSoC5/CAN.c **** 
 491:Generated_Source\PSoC5/CAN.c ****     return (result);
 711              		.loc 1 491 0
 712 002c FB79     		ldrb	r3, [r7, #7]	@ zero_extendqisi2
 492:Generated_Source\PSoC5/CAN.c **** }
 713              		.loc 1 492 0
 714 002e 1846     		mov	r0, r3
 715 0030 0C37     		adds	r7, r7, #12
 716              		.cfi_def_cfa_offset 4
 717 0032 BD46     		mov	sp, r7
 718              		.cfi_def_cfa_register 13
 719              		@ sp needed
 720 0034 80BC     		pop	{r7}
 721              		.cfi_restore 7
 722              		.cfi_def_cfa_offset 0
 723 0036 7047     		bx	lr
 724              	.L53:
 725              		.align	2
 726              	.L52:
 727 0038 04A00040 		.word	1073782788
 728              		.cfi_endproc
 729              	.LFE6:
 730              		.size	CAN_GlobalIntDisable, .-CAN_GlobalIntDisable
 731              		.section	.text.CAN_SetPreScaler,"ax",%progbits
 732              		.align	2
 733              		.global	CAN_SetPreScaler
 734              		.thumb
 735              		.thumb_func
 736              		.type	CAN_SetPreScaler, %function
 737              	CAN_SetPreScaler:
 738              	.LFB7:
 493:Generated_Source\PSoC5/CAN.c **** 
 494:Generated_Source\PSoC5/CAN.c **** 
 495:Generated_Source\PSoC5/CAN.c **** /*******************************************************************************
 496:Generated_Source\PSoC5/CAN.c **** * FUNCTION NAME:   CAN_SetPreScaler
 497:Generated_Source\PSoC5/CAN.c **** ********************************************************************************
 498:Generated_Source\PSoC5/CAN.c **** *
 499:Generated_Source\PSoC5/CAN.c **** * Summary:
 500:Generated_Source\PSoC5/CAN.c **** *  This function sets PreScaler for generating the time quantum which defines
 501:Generated_Source\PSoC5/CAN.c **** *  the time quanta. The values between 0x0 and 0x7FFF are valid.
 502:Generated_Source\PSoC5/CAN.c **** *
 503:Generated_Source\PSoC5/CAN.c **** * Parameters:
 504:Generated_Source\PSoC5/CAN.c **** *  bitrate: PreScaler value.
ARM GAS  C:\Users\badea\AppData\Local\Temp\cc3YEltE.s 			page 23


 505:Generated_Source\PSoC5/CAN.c **** *   Value           Description
 506:Generated_Source\PSoC5/CAN.c **** *    0               One time quantum equals 1 clock cycle
 507:Generated_Source\PSoC5/CAN.c **** *    1               One time quantum equals 2 clock cycles
 508:Generated_Source\PSoC5/CAN.c **** *    ...             ...
 509:Generated_Source\PSoC5/CAN.c **** *    32767           One time quantum equals 32768 clock cycles
 510:Generated_Source\PSoC5/CAN.c **** *
 511:Generated_Source\PSoC5/CAN.c **** * Return:
 512:Generated_Source\PSoC5/CAN.c **** *  The indication whether the register is written and verified.
 513:Generated_Source\PSoC5/CAN.c **** *   Define                             Description
 514:Generated_Source\PSoC5/CAN.c **** *    CYRET_SUCCESS                      The function passed successfully
 515:Generated_Source\PSoC5/CAN.c **** *    CAN_FAIL              The function failed
 516:Generated_Source\PSoC5/CAN.c **** *    CAN_OUT_OF_RANGE      The function parameter is out of range
 517:Generated_Source\PSoC5/CAN.c **** *
 518:Generated_Source\PSoC5/CAN.c **** *******************************************************************************/
 519:Generated_Source\PSoC5/CAN.c **** uint8 CAN_SetPreScaler(uint16 bitrate) 
 520:Generated_Source\PSoC5/CAN.c **** {
 739              		.loc 1 520 0
 740              		.cfi_startproc
 741              		@ args = 0, pretend = 0, frame = 16
 742              		@ frame_needed = 1, uses_anonymous_args = 0
 743              		@ link register save eliminated.
 744 0000 80B4     		push	{r7}
 745              		.cfi_def_cfa_offset 4
 746              		.cfi_offset 7, -4
 747 0002 85B0     		sub	sp, sp, #20
 748              		.cfi_def_cfa_offset 24
 749 0004 00AF     		add	r7, sp, #0
 750              		.cfi_def_cfa_register 7
 751 0006 0346     		mov	r3, r0
 752 0008 FB80     		strh	r3, [r7, #6]	@ movhi
 521:Generated_Source\PSoC5/CAN.c ****     uint8 result = CAN_OUT_OF_RANGE;
 753              		.loc 1 521 0
 754 000a 0223     		movs	r3, #2
 755 000c FB73     		strb	r3, [r7, #15]
 522:Generated_Source\PSoC5/CAN.c **** 
 523:Generated_Source\PSoC5/CAN.c ****     if (bitrate <= CAN_BITRATE_MASK)
 756              		.loc 1 523 0
 757 000e B7F90630 		ldrsh	r3, [r7, #6]
 758 0012 002B     		cmp	r3, #0
 759 0014 0CDB     		blt	.L55
 524:Generated_Source\PSoC5/CAN.c ****     {
 525:Generated_Source\PSoC5/CAN.c ****         result = CAN_FAIL;
 760              		.loc 1 525 0
 761 0016 0123     		movs	r3, #1
 762 0018 FB73     		strb	r3, [r7, #15]
 526:Generated_Source\PSoC5/CAN.c **** 
 527:Generated_Source\PSoC5/CAN.c ****         #if (CY_PSOC3 || CY_PSOC5)
 528:Generated_Source\PSoC5/CAN.c ****             /* Set prescaler */
 529:Generated_Source\PSoC5/CAN.c ****             CY_SET_REG16((reg16 *) (&CAN_CFG_REG.byte[2u]), bitrate);
 763              		.loc 1 529 0
 764 001a 084A     		ldr	r2, .L57
 765 001c FB88     		ldrh	r3, [r7, #6]	@ movhi
 766 001e 1380     		strh	r3, [r2]	@ movhi
 530:Generated_Source\PSoC5/CAN.c **** 
 531:Generated_Source\PSoC5/CAN.c ****             /* Verify that prescaler is set */
 532:Generated_Source\PSoC5/CAN.c ****             if (CY_GET_REG16((reg16 *) (&CAN_CFG_REG.byte[2u])) == bitrate)
 767              		.loc 1 532 0
ARM GAS  C:\Users\badea\AppData\Local\Temp\cc3YEltE.s 			page 24


 768 0020 064B     		ldr	r3, .L57
 769 0022 1B88     		ldrh	r3, [r3]	@ movhi
 770 0024 9BB2     		uxth	r3, r3
 771 0026 FA88     		ldrh	r2, [r7, #6]
 772 0028 9A42     		cmp	r2, r3
 773 002a 01D1     		bne	.L55
 533:Generated_Source\PSoC5/CAN.c ****             {
 534:Generated_Source\PSoC5/CAN.c ****                 result = CYRET_SUCCESS;
 774              		.loc 1 534 0
 775 002c 0023     		movs	r3, #0
 776 002e FB73     		strb	r3, [r7, #15]
 777              	.L55:
 535:Generated_Source\PSoC5/CAN.c ****             }
 536:Generated_Source\PSoC5/CAN.c ****         #else  /* CY_PSOC4 */
 537:Generated_Source\PSoC5/CAN.c ****             /* Set prescaler */
 538:Generated_Source\PSoC5/CAN.c ****             CAN_CFG_REG = (CAN_CFG_REG & (uint32) (~CAN_BITRATE_MASK_SHIFTED)) |
 539:Generated_Source\PSoC5/CAN.c ****             (uint32) ((uint32) bitrate << CAN_BITRATE_SHIFT);
 540:Generated_Source\PSoC5/CAN.c **** 
 541:Generated_Source\PSoC5/CAN.c ****             /* Verify that prescaler is set */
 542:Generated_Source\PSoC5/CAN.c ****             if ((CAN_CFG_REG & CAN_BITRATE_MASK_SHIFTED) ==
 543:Generated_Source\PSoC5/CAN.c ****                ((uint32) ((uint32) bitrate << CAN_BITRATE_SHIFT)))
 544:Generated_Source\PSoC5/CAN.c ****             {
 545:Generated_Source\PSoC5/CAN.c ****                 result = CYRET_SUCCESS;
 546:Generated_Source\PSoC5/CAN.c ****             }
 547:Generated_Source\PSoC5/CAN.c ****         #endif /* CY_PSOC3 || CY_PSOC5 */
 548:Generated_Source\PSoC5/CAN.c ****     }
 549:Generated_Source\PSoC5/CAN.c **** 
 550:Generated_Source\PSoC5/CAN.c ****     return (result);
 778              		.loc 1 550 0
 779 0030 FB7B     		ldrb	r3, [r7, #15]	@ zero_extendqisi2
 551:Generated_Source\PSoC5/CAN.c **** }
 780              		.loc 1 551 0
 781 0032 1846     		mov	r0, r3
 782 0034 1437     		adds	r7, r7, #20
 783              		.cfi_def_cfa_offset 4
 784 0036 BD46     		mov	sp, r7
 785              		.cfi_def_cfa_register 13
 786              		@ sp needed
 787 0038 80BC     		pop	{r7}
 788              		.cfi_restore 7
 789              		.cfi_def_cfa_offset 0
 790 003a 7047     		bx	lr
 791              	.L58:
 792              		.align	2
 793              	.L57:
 794 003c 16A00040 		.word	1073782806
 795              		.cfi_endproc
 796              	.LFE7:
 797              		.size	CAN_SetPreScaler, .-CAN_SetPreScaler
 798              		.section	.text.CAN_SetArbiter,"ax",%progbits
 799              		.align	2
 800              		.global	CAN_SetArbiter
 801              		.thumb
 802              		.thumb_func
 803              		.type	CAN_SetArbiter, %function
 804              	CAN_SetArbiter:
 805              	.LFB8:
ARM GAS  C:\Users\badea\AppData\Local\Temp\cc3YEltE.s 			page 25


 552:Generated_Source\PSoC5/CAN.c **** 
 553:Generated_Source\PSoC5/CAN.c **** 
 554:Generated_Source\PSoC5/CAN.c **** /*******************************************************************************
 555:Generated_Source\PSoC5/CAN.c **** * FUNCTION NAME:   CAN_SetArbiter
 556:Generated_Source\PSoC5/CAN.c **** ********************************************************************************
 557:Generated_Source\PSoC5/CAN.c **** *
 558:Generated_Source\PSoC5/CAN.c **** * Summary:
 559:Generated_Source\PSoC5/CAN.c **** *  This function sets the arbitration type for transmit mailboxes. The types of
 560:Generated_Source\PSoC5/CAN.c **** *  the arbiters are Round Robin and Fixed Priority. Values 0 and 1 are valid.
 561:Generated_Source\PSoC5/CAN.c **** *
 562:Generated_Source\PSoC5/CAN.c **** * Parameters:
 563:Generated_Source\PSoC5/CAN.c **** *  arbiter: The arbitration type for transmit mailboxes.
 564:Generated_Source\PSoC5/CAN.c **** *   Value                              Description
 565:Generated_Source\PSoC5/CAN.c **** *    CAN_ROUND_ROBIN       The Round Robin arbitration
 566:Generated_Source\PSoC5/CAN.c **** *    CAN_FIXED_PRIORITY    The Fixed Priority arbitration.
 567:Generated_Source\PSoC5/CAN.c **** *
 568:Generated_Source\PSoC5/CAN.c **** * Return:
 569:Generated_Source\PSoC5/CAN.c **** *  The indication whether the register is written and verified.
 570:Generated_Source\PSoC5/CAN.c **** *   Define                             Description
 571:Generated_Source\PSoC5/CAN.c **** *    CYRET_SUCCESS                      The function passed successfully
 572:Generated_Source\PSoC5/CAN.c **** *    CAN_FAIL              The function failed
 573:Generated_Source\PSoC5/CAN.c **** *
 574:Generated_Source\PSoC5/CAN.c **** *******************************************************************************/
 575:Generated_Source\PSoC5/CAN.c **** uint8 CAN_SetArbiter(uint8 arbiter) 
 576:Generated_Source\PSoC5/CAN.c **** {
 806              		.loc 1 576 0
 807              		.cfi_startproc
 808              		@ args = 0, pretend = 0, frame = 16
 809              		@ frame_needed = 1, uses_anonymous_args = 0
 810              		@ link register save eliminated.
 811 0000 80B4     		push	{r7}
 812              		.cfi_def_cfa_offset 4
 813              		.cfi_offset 7, -4
 814 0002 85B0     		sub	sp, sp, #20
 815              		.cfi_def_cfa_offset 24
 816 0004 00AF     		add	r7, sp, #0
 817              		.cfi_def_cfa_register 7
 818 0006 0346     		mov	r3, r0
 819 0008 FB71     		strb	r3, [r7, #7]
 577:Generated_Source\PSoC5/CAN.c ****     uint8 result = CAN_FAIL;
 820              		.loc 1 577 0
 821 000a 0123     		movs	r3, #1
 822 000c FB73     		strb	r3, [r7, #15]
 578:Generated_Source\PSoC5/CAN.c **** 
 579:Generated_Source\PSoC5/CAN.c ****     #if (CY_PSOC3 || CY_PSOC5)
 580:Generated_Source\PSoC5/CAN.c ****         if (arbiter == CAN_ROUND_ROBIN)
 823              		.loc 1 580 0
 824 000e FB79     		ldrb	r3, [r7, #7]	@ zero_extendqisi2
 825 0010 002B     		cmp	r3, #0
 826 0012 11D1     		bne	.L60
 581:Generated_Source\PSoC5/CAN.c ****         {
 582:Generated_Source\PSoC5/CAN.c ****             CAN_CFG_REG.byte[1u] &= (uint8) (~CAN_ARBITRATION_MASK);
 827              		.loc 1 582 0
 828 0014 144A     		ldr	r2, .L64
 829 0016 144B     		ldr	r3, .L64
 830 0018 5B78     		ldrb	r3, [r3, #1]
 831 001a DBB2     		uxtb	r3, r3
ARM GAS  C:\Users\badea\AppData\Local\Temp\cc3YEltE.s 			page 26


 832 001c 23F01003 		bic	r3, r3, #16
 833 0020 DBB2     		uxtb	r3, r3
 834 0022 5370     		strb	r3, [r2, #1]
 583:Generated_Source\PSoC5/CAN.c **** 
 584:Generated_Source\PSoC5/CAN.c ****             /* Verify that bit is cleared */
 585:Generated_Source\PSoC5/CAN.c ****             if ((CAN_CFG_REG.byte[1u] & CAN_ARBITRATION_MASK) == 0u)
 835              		.loc 1 585 0
 836 0024 104B     		ldr	r3, .L64
 837 0026 5B78     		ldrb	r3, [r3, #1]
 838 0028 DBB2     		uxtb	r3, r3
 839 002a 03F01003 		and	r3, r3, #16
 840 002e 002B     		cmp	r3, #0
 841 0030 13D1     		bne	.L62
 586:Generated_Source\PSoC5/CAN.c ****             {
 587:Generated_Source\PSoC5/CAN.c ****                 result = CYRET_SUCCESS;
 842              		.loc 1 587 0
 843 0032 0023     		movs	r3, #0
 844 0034 FB73     		strb	r3, [r7, #15]
 845 0036 10E0     		b	.L62
 846              	.L60:
 588:Generated_Source\PSoC5/CAN.c ****             }
 589:Generated_Source\PSoC5/CAN.c ****         }
 590:Generated_Source\PSoC5/CAN.c ****         else    /* Fixed Priority */
 591:Generated_Source\PSoC5/CAN.c ****         {
 592:Generated_Source\PSoC5/CAN.c ****             CAN_CFG_REG.byte[1u] |= CAN_ARBITRATION_MASK;
 847              		.loc 1 592 0
 848 0038 0B4A     		ldr	r2, .L64
 849 003a 0B4B     		ldr	r3, .L64
 850 003c 5B78     		ldrb	r3, [r3, #1]
 851 003e DBB2     		uxtb	r3, r3
 852 0040 43F01003 		orr	r3, r3, #16
 853 0044 DBB2     		uxtb	r3, r3
 854 0046 5370     		strb	r3, [r2, #1]
 593:Generated_Source\PSoC5/CAN.c **** 
 594:Generated_Source\PSoC5/CAN.c ****             /* Verify that bit is set */
 595:Generated_Source\PSoC5/CAN.c ****             if ((CAN_CFG_REG.byte[1u] & CAN_ARBITRATION_MASK) != 0u)
 855              		.loc 1 595 0
 856 0048 074B     		ldr	r3, .L64
 857 004a 5B78     		ldrb	r3, [r3, #1]
 858 004c DBB2     		uxtb	r3, r3
 859 004e 03F01003 		and	r3, r3, #16
 860 0052 002B     		cmp	r3, #0
 861 0054 01D0     		beq	.L62
 596:Generated_Source\PSoC5/CAN.c ****             {
 597:Generated_Source\PSoC5/CAN.c ****                 result = CYRET_SUCCESS;
 862              		.loc 1 597 0
 863 0056 0023     		movs	r3, #0
 864 0058 FB73     		strb	r3, [r7, #15]
 865              	.L62:
 598:Generated_Source\PSoC5/CAN.c ****             }
 599:Generated_Source\PSoC5/CAN.c ****         }
 600:Generated_Source\PSoC5/CAN.c ****     #else  /* CY_PSOC4 */
 601:Generated_Source\PSoC5/CAN.c ****         if (arbiter == CAN_ROUND_ROBIN)
 602:Generated_Source\PSoC5/CAN.c ****         {
 603:Generated_Source\PSoC5/CAN.c ****             CAN_CFG_REG &= (uint32) (~CAN_ARBITRATION_MASK);
 604:Generated_Source\PSoC5/CAN.c **** 
 605:Generated_Source\PSoC5/CAN.c ****             /* Verify that bit is cleared */
ARM GAS  C:\Users\badea\AppData\Local\Temp\cc3YEltE.s 			page 27


 606:Generated_Source\PSoC5/CAN.c ****             if ((CAN_CFG_REG & CAN_ARBITRATION_MASK) == 0u)
 607:Generated_Source\PSoC5/CAN.c ****             {
 608:Generated_Source\PSoC5/CAN.c ****                 result = CYRET_SUCCESS;
 609:Generated_Source\PSoC5/CAN.c ****             }
 610:Generated_Source\PSoC5/CAN.c ****         }
 611:Generated_Source\PSoC5/CAN.c ****         else    /* Fixed priority */
 612:Generated_Source\PSoC5/CAN.c ****         {
 613:Generated_Source\PSoC5/CAN.c ****             CAN_CFG_REG |= CAN_ARBITRATION_MASK;
 614:Generated_Source\PSoC5/CAN.c **** 
 615:Generated_Source\PSoC5/CAN.c ****             /* Verify that bit is set */
 616:Generated_Source\PSoC5/CAN.c ****             if ((CAN_CFG_REG & CAN_ARBITRATION_MASK) != 0u)
 617:Generated_Source\PSoC5/CAN.c ****             {
 618:Generated_Source\PSoC5/CAN.c ****                 result = CYRET_SUCCESS;
 619:Generated_Source\PSoC5/CAN.c ****             }
 620:Generated_Source\PSoC5/CAN.c ****         }
 621:Generated_Source\PSoC5/CAN.c ****     #endif /* CY_PSOC3 || CY_PSOC5 */
 622:Generated_Source\PSoC5/CAN.c **** 
 623:Generated_Source\PSoC5/CAN.c ****     return (result);
 866              		.loc 1 623 0
 867 005a FB7B     		ldrb	r3, [r7, #15]	@ zero_extendqisi2
 624:Generated_Source\PSoC5/CAN.c **** }
 868              		.loc 1 624 0
 869 005c 1846     		mov	r0, r3
 870 005e 1437     		adds	r7, r7, #20
 871              		.cfi_def_cfa_offset 4
 872 0060 BD46     		mov	sp, r7
 873              		.cfi_def_cfa_register 13
 874              		@ sp needed
 875 0062 80BC     		pop	{r7}
 876              		.cfi_restore 7
 877              		.cfi_def_cfa_offset 0
 878 0064 7047     		bx	lr
 879              	.L65:
 880 0066 00BF     		.align	2
 881              	.L64:
 882 0068 14A00040 		.word	1073782804
 883              		.cfi_endproc
 884              	.LFE8:
 885              		.size	CAN_SetArbiter, .-CAN_SetArbiter
 886              		.section	.text.CAN_SetTsegSample,"ax",%progbits
 887              		.align	2
 888              		.global	CAN_SetTsegSample
 889              		.thumb
 890              		.thumb_func
 891              		.type	CAN_SetTsegSample, %function
 892              	CAN_SetTsegSample:
 893              	.LFB9:
 625:Generated_Source\PSoC5/CAN.c **** 
 626:Generated_Source\PSoC5/CAN.c **** 
 627:Generated_Source\PSoC5/CAN.c **** /*******************************************************************************
 628:Generated_Source\PSoC5/CAN.c **** * FUNCTION NAME: CAN_SetTsegSample
 629:Generated_Source\PSoC5/CAN.c **** ********************************************************************************
 630:Generated_Source\PSoC5/CAN.c **** *
 631:Generated_Source\PSoC5/CAN.c **** * Summary:
 632:Generated_Source\PSoC5/CAN.c **** *  This function configures: Time segment 1, Time segment 2, Sampling Mode
 633:Generated_Source\PSoC5/CAN.c **** *  and Synchronization Jump Width.
 634:Generated_Source\PSoC5/CAN.c **** *
ARM GAS  C:\Users\badea\AppData\Local\Temp\cc3YEltE.s 			page 28


 635:Generated_Source\PSoC5/CAN.c **** * Parameters:
 636:Generated_Source\PSoC5/CAN.c **** *  cfgTseg1: The length of time segment 1, values between 0x2 and 0xF are valid;
 637:Generated_Source\PSoC5/CAN.c **** *  cfgTseg2: The length of time segment 2, values between 0x1 and 0x7 are valid;
 638:Generated_Source\PSoC5/CAN.c **** *  sjw: Synchronization Jump Width, value between 0x0 and 0x3 are valid;
 639:Generated_Source\PSoC5/CAN.c **** *  sm: Sampling Mode.
 640:Generated_Source\PSoC5/CAN.c **** *   Define                               Description
 641:Generated_Source\PSoC5/CAN.c **** *   CAN_ONE_SAMPLE_POINT     One sampling point is used
 642:Generated_Source\PSoC5/CAN.c **** *   CAN_THREE_SAMPLE_POINTS  Three sampling points are used
 643:Generated_Source\PSoC5/CAN.c **** *
 644:Generated_Source\PSoC5/CAN.c **** * Return:
 645:Generated_Source\PSoC5/CAN.c **** *  The indication whether the register is written and verified.
 646:Generated_Source\PSoC5/CAN.c **** *   Define                             Description
 647:Generated_Source\PSoC5/CAN.c **** *    CYRET_SUCCESS                      The function passed successfully
 648:Generated_Source\PSoC5/CAN.c **** *    CAN_FAIL              The function failed
 649:Generated_Source\PSoC5/CAN.c **** *    CAN_OUT_OF_RANGE      The function parameter is out of range
 650:Generated_Source\PSoC5/CAN.c **** *
 651:Generated_Source\PSoC5/CAN.c **** *******************************************************************************/
 652:Generated_Source\PSoC5/CAN.c **** uint8 CAN_SetTsegSample(uint8 cfgTseg1, uint8 cfgTseg2, uint8 sjw, uint8 sm)
 653:Generated_Source\PSoC5/CAN.c ****                                      
 654:Generated_Source\PSoC5/CAN.c **** {
 894              		.loc 1 654 0
 895              		.cfi_startproc
 896              		@ args = 0, pretend = 0, frame = 16
 897              		@ frame_needed = 1, uses_anonymous_args = 0
 898              		@ link register save eliminated.
 899 0000 90B4     		push	{r4, r7}
 900              		.cfi_def_cfa_offset 8
 901              		.cfi_offset 4, -8
 902              		.cfi_offset 7, -4
 903 0002 84B0     		sub	sp, sp, #16
 904              		.cfi_def_cfa_offset 24
 905 0004 00AF     		add	r7, sp, #0
 906              		.cfi_def_cfa_register 7
 907 0006 0446     		mov	r4, r0
 908 0008 0846     		mov	r0, r1
 909 000a 1146     		mov	r1, r2
 910 000c 1A46     		mov	r2, r3
 911 000e 2346     		mov	r3, r4
 912 0010 FB71     		strb	r3, [r7, #7]
 913 0012 0346     		mov	r3, r0
 914 0014 BB71     		strb	r3, [r7, #6]
 915 0016 0B46     		mov	r3, r1
 916 0018 7B71     		strb	r3, [r7, #5]
 917 001a 1346     		mov	r3, r2
 918 001c 3B71     		strb	r3, [r7, #4]
 655:Generated_Source\PSoC5/CAN.c ****     uint8 result = CAN_OUT_OF_RANGE;
 919              		.loc 1 655 0
 920 001e 0223     		movs	r3, #2
 921 0020 FB73     		strb	r3, [r7, #15]
 656:Generated_Source\PSoC5/CAN.c ****     uint8 cfgTemp;
 657:Generated_Source\PSoC5/CAN.c **** 
 658:Generated_Source\PSoC5/CAN.c ****     if ((cfgTseg1 >= CAN_CFG_REG_TSEG1_LOWER_LIMIT) && (cfgTseg1 <=
 922              		.loc 1 658 0
 923 0022 FB79     		ldrb	r3, [r7, #7]	@ zero_extendqisi2
 924 0024 012B     		cmp	r3, #1
 925 0026 4CD9     		bls	.L67
 926              		.loc 1 658 0 is_stmt 0 discriminator 1
ARM GAS  C:\Users\badea\AppData\Local\Temp\cc3YEltE.s 			page 29


 927 0028 FB79     		ldrb	r3, [r7, #7]	@ zero_extendqisi2
 928 002a 0F2B     		cmp	r3, #15
 929 002c 49D8     		bhi	.L67
 659:Generated_Source\PSoC5/CAN.c ****          CAN_CFG_REG_TSEG1_UPPER_LIMIT))
 660:Generated_Source\PSoC5/CAN.c ****     {
 661:Generated_Source\PSoC5/CAN.c ****         if (((cfgTseg2 >= CAN_CFG_REG_TSEG2_LOWER_LIMIT) &&
 930              		.loc 1 661 0 is_stmt 1
 931 002e BB79     		ldrb	r3, [r7, #6]	@ zero_extendqisi2
 932 0030 012B     		cmp	r3, #1
 933 0032 02D9     		bls	.L68
 934              		.loc 1 661 0 is_stmt 0 discriminator 1
 935 0034 BB79     		ldrb	r3, [r7, #6]	@ zero_extendqisi2
 936 0036 072B     		cmp	r3, #7
 937 0038 05D9     		bls	.L69
 938              	.L68:
 662:Generated_Source\PSoC5/CAN.c ****              (cfgTseg2 <= CAN_CFG_REG_TSEG2_UPPER_LIMIT)) || ((sm == CAN_ONE_SAMPLE_POINT) &&
 939              		.loc 1 662 0 is_stmt 1
 940 003a 3B79     		ldrb	r3, [r7, #4]	@ zero_extendqisi2
 941 003c 002B     		cmp	r3, #0
 942 003e 40D1     		bne	.L67
 943              		.loc 1 662 0 is_stmt 0 discriminator 1
 944 0040 BB79     		ldrb	r3, [r7, #6]	@ zero_extendqisi2
 945 0042 012B     		cmp	r3, #1
 946 0044 3DD1     		bne	.L67
 947              	.L69:
 663:Generated_Source\PSoC5/CAN.c ****              (cfgTseg2 == CAN_CFG_REG_TSEG2_EXCEPTION)))
 664:Generated_Source\PSoC5/CAN.c ****         {
 665:Generated_Source\PSoC5/CAN.c ****             if ((sjw <= CAN_CFG_REG_SJW_LOWER_LIMIT) && (sjw <= cfgTseg1) && (sjw <= cfgTseg2))
 948              		.loc 1 665 0 is_stmt 1
 949 0046 7B79     		ldrb	r3, [r7, #5]	@ zero_extendqisi2
 950 0048 032B     		cmp	r3, #3
 951 004a 3AD8     		bhi	.L67
 952              		.loc 1 665 0 is_stmt 0 discriminator 1
 953 004c 7A79     		ldrb	r2, [r7, #5]	@ zero_extendqisi2
 954 004e FB79     		ldrb	r3, [r7, #7]	@ zero_extendqisi2
 955 0050 9A42     		cmp	r2, r3
 956 0052 36D8     		bhi	.L67
 957              		.loc 1 665 0 discriminator 2
 958 0054 7A79     		ldrb	r2, [r7, #5]	@ zero_extendqisi2
 959 0056 BB79     		ldrb	r3, [r7, #6]	@ zero_extendqisi2
 960 0058 9A42     		cmp	r2, r3
 961 005a 32D8     		bhi	.L67
 666:Generated_Source\PSoC5/CAN.c ****             {
 667:Generated_Source\PSoC5/CAN.c ****                 result = CAN_FAIL;
 962              		.loc 1 667 0 is_stmt 1
 963 005c 0123     		movs	r3, #1
 964 005e FB73     		strb	r3, [r7, #15]
 668:Generated_Source\PSoC5/CAN.c **** 
 669:Generated_Source\PSoC5/CAN.c ****                 #if (CY_PSOC3 || CY_PSOC5)
 670:Generated_Source\PSoC5/CAN.c ****                     cfgTemp = CAN_CFG_REG.byte[1];
 965              		.loc 1 670 0
 966 0060 1B4B     		ldr	r3, .L72
 967 0062 5B78     		ldrb	r3, [r3, #1]
 968 0064 BB73     		strb	r3, [r7, #14]
 671:Generated_Source\PSoC5/CAN.c ****                     cfgTemp &= (uint8) (~CAN_CFG_REG_TSEG1_MASK);
 969              		.loc 1 671 0
 970 0066 BB7B     		ldrb	r3, [r7, #14]
ARM GAS  C:\Users\badea\AppData\Local\Temp\cc3YEltE.s 			page 30


 971 0068 23F00F03 		bic	r3, r3, #15
 972 006c BB73     		strb	r3, [r7, #14]
 672:Generated_Source\PSoC5/CAN.c ****                     cfgTemp |= cfgTseg1;
 973              		.loc 1 672 0
 974 006e BA7B     		ldrb	r2, [r7, #14]
 975 0070 FB79     		ldrb	r3, [r7, #7]
 976 0072 1343     		orrs	r3, r3, r2
 977 0074 BB73     		strb	r3, [r7, #14]
 673:Generated_Source\PSoC5/CAN.c **** 
 674:Generated_Source\PSoC5/CAN.c ****                     /* Write register byte 1 */
 675:Generated_Source\PSoC5/CAN.c ****                     CAN_CFG_REG.byte[1u] = cfgTemp;
 978              		.loc 1 675 0
 979 0076 164A     		ldr	r2, .L72
 980 0078 BB7B     		ldrb	r3, [r7, #14]
 981 007a 5370     		strb	r3, [r2, #1]
 676:Generated_Source\PSoC5/CAN.c **** 
 677:Generated_Source\PSoC5/CAN.c ****                     /* Verify 1st byte of CAN_CFG_REG register */
 678:Generated_Source\PSoC5/CAN.c ****                     if (CAN_CFG_REG.byte[1u] == cfgTemp)
 982              		.loc 1 678 0
 983 007c 144B     		ldr	r3, .L72
 984 007e 5B78     		ldrb	r3, [r3, #1]
 985 0080 DBB2     		uxtb	r3, r3
 986 0082 BA7B     		ldrb	r2, [r7, #14]	@ zero_extendqisi2
 987 0084 9A42     		cmp	r2, r3
 988 0086 1CD1     		bne	.L67
 679:Generated_Source\PSoC5/CAN.c ****                     {
 680:Generated_Source\PSoC5/CAN.c ****                         cfgTemp = 0u;
 989              		.loc 1 680 0
 990 0088 0023     		movs	r3, #0
 991 008a BB73     		strb	r3, [r7, #14]
 681:Generated_Source\PSoC5/CAN.c ****                         /* Set appropriate bits */
 682:Generated_Source\PSoC5/CAN.c ****                         if (sm != CAN_ONE_SAMPLE_POINT)
 992              		.loc 1 682 0
 993 008c 3B79     		ldrb	r3, [r7, #4]	@ zero_extendqisi2
 994 008e 002B     		cmp	r3, #0
 995 0090 01D0     		beq	.L70
 683:Generated_Source\PSoC5/CAN.c ****                         {
 684:Generated_Source\PSoC5/CAN.c ****                             cfgTemp = CAN_SAMPLE_MODE_MASK;
 996              		.loc 1 684 0
 997 0092 0223     		movs	r3, #2
 998 0094 BB73     		strb	r3, [r7, #14]
 999              	.L70:
 685:Generated_Source\PSoC5/CAN.c ****                         }
 686:Generated_Source\PSoC5/CAN.c ****                         cfgTemp |= ((uint8) (cfgTseg2 << CAN_CFG_REG_TSEG2_SHIFT)) |
 1000              		.loc 1 686 0
 1001 0096 BB79     		ldrb	r3, [r7, #6]
 1002 0098 5B01     		lsls	r3, r3, #5
 1003 009a DAB2     		uxtb	r2, r3
 687:Generated_Source\PSoC5/CAN.c ****                                    ((uint8) (sjw << CAN_CFG_REG_SJW_SHIFT));
 1004              		.loc 1 687 0
 1005 009c 7B79     		ldrb	r3, [r7, #5]
 1006 009e 9B00     		lsls	r3, r3, #2
 1007 00a0 DBB2     		uxtb	r3, r3
 686:Generated_Source\PSoC5/CAN.c ****                                    ((uint8) (sjw << CAN_CFG_REG_SJW_SHIFT));
 1008              		.loc 1 686 0
 1009 00a2 1343     		orrs	r3, r3, r2
 1010 00a4 DAB2     		uxtb	r2, r3
ARM GAS  C:\Users\badea\AppData\Local\Temp\cc3YEltE.s 			page 31


 1011 00a6 BB7B     		ldrb	r3, [r7, #14]
 1012 00a8 1343     		orrs	r3, r3, r2
 1013 00aa BB73     		strb	r3, [r7, #14]
 688:Generated_Source\PSoC5/CAN.c **** 
 689:Generated_Source\PSoC5/CAN.c ****                         /* Write register byte 0 */
 690:Generated_Source\PSoC5/CAN.c ****                         CAN_CFG_REG.byte[0u] = cfgTemp;
 1014              		.loc 1 690 0
 1015 00ac 084A     		ldr	r2, .L72
 1016 00ae BB7B     		ldrb	r3, [r7, #14]
 1017 00b0 1370     		strb	r3, [r2]
 691:Generated_Source\PSoC5/CAN.c **** 
 692:Generated_Source\PSoC5/CAN.c ****                         /* Verify 1st byte of CAN_CFG_REG register */
 693:Generated_Source\PSoC5/CAN.c ****                         if (CAN_CFG_REG.byte[0u] == cfgTemp)
 1018              		.loc 1 693 0
 1019 00b2 074B     		ldr	r3, .L72
 1020 00b4 1B78     		ldrb	r3, [r3]
 1021 00b6 DBB2     		uxtb	r3, r3
 1022 00b8 BA7B     		ldrb	r2, [r7, #14]	@ zero_extendqisi2
 1023 00ba 9A42     		cmp	r2, r3
 1024 00bc 01D1     		bne	.L67
 694:Generated_Source\PSoC5/CAN.c ****                         {
 695:Generated_Source\PSoC5/CAN.c ****                             result = CYRET_SUCCESS;
 1025              		.loc 1 695 0
 1026 00be 0023     		movs	r3, #0
 1027 00c0 FB73     		strb	r3, [r7, #15]
 1028              	.L67:
 696:Generated_Source\PSoC5/CAN.c ****                         }
 697:Generated_Source\PSoC5/CAN.c ****                     }
 698:Generated_Source\PSoC5/CAN.c ****                 #else  /* CY_PSOC4 */
 699:Generated_Source\PSoC5/CAN.c ****                     cfgTemp = (uint8) (CAN_CFG_REG >> CAN_CFG_REG_TSEG1_SHIFT);
 700:Generated_Source\PSoC5/CAN.c ****                     cfgTemp &= (uint8) (~CAN_CFG_REG_TSEG1_MASK);
 701:Generated_Source\PSoC5/CAN.c ****                     cfgTemp |= cfgTseg1;
 702:Generated_Source\PSoC5/CAN.c **** 
 703:Generated_Source\PSoC5/CAN.c ****                     /* Write register byte 1 */
 704:Generated_Source\PSoC5/CAN.c ****                     CAN_CFG_REG =
 705:Generated_Source\PSoC5/CAN.c ****                     (CAN_CFG_REG & (uint32) (~((uint32) ((uint32) CAN_CFG_REG_TSEG1_MASK <<
 706:Generated_Source\PSoC5/CAN.c ****                     CAN_CFG_REG_TSEG1_SHIFT)))) |
 707:Generated_Source\PSoC5/CAN.c ****                     (uint32) ((uint32) cfgTemp << CAN_CFG_REG_TSEG1_SHIFT);
 708:Generated_Source\PSoC5/CAN.c **** 
 709:Generated_Source\PSoC5/CAN.c ****                     /* Verify 1st byte of CAN_CFG_REG register */
 710:Generated_Source\PSoC5/CAN.c ****                     if ((CAN_CFG_REG & (uint32) ((uint32) CAN_CFG_REG_TSEG1_MASK <<
 711:Generated_Source\PSoC5/CAN.c ****                        CAN_CFG_REG_TSEG1_SHIFT)) == (uint32) ((uint32) ((uint32) cfgTemp &
 712:Generated_Source\PSoC5/CAN.c ****                        CAN_CFG_REG_TSEG1_MASK) << CAN_CFG_REG_TSEG1_SHIFT))
 713:Generated_Source\PSoC5/CAN.c ****                     {
 714:Generated_Source\PSoC5/CAN.c ****                         cfgTemp = 0u;
 715:Generated_Source\PSoC5/CAN.c ****                         /* Set appropriate bits */
 716:Generated_Source\PSoC5/CAN.c ****                         if (sm != CAN_ONE_SAMPLE_POINT)
 717:Generated_Source\PSoC5/CAN.c ****                         {
 718:Generated_Source\PSoC5/CAN.c ****                             cfgTemp = CAN_SAMPLE_MODE_MASK;
 719:Generated_Source\PSoC5/CAN.c ****                         }
 720:Generated_Source\PSoC5/CAN.c ****                         cfgTemp |= ((uint8) (cfgTseg2 << CAN_CFG_REG_TSEG2_SHIFT)) |
 721:Generated_Source\PSoC5/CAN.c ****                                    ((uint8) (sjw << CAN_CFG_REG_SJW_SHIFT));
 722:Generated_Source\PSoC5/CAN.c **** 
 723:Generated_Source\PSoC5/CAN.c ****                         /* Write register byte 0 */
 724:Generated_Source\PSoC5/CAN.c ****                         CAN_CFG_REG = (CAN_CFG_REG &
 725:Generated_Source\PSoC5/CAN.c ****                         (uint32) (~((uint32) (CAN_CFG_REG_TSEG2_MASK | CAN_CFG_REG_SJW_MASK |
 726:Generated_Source\PSoC5/CAN.c ****                         CAN_SAMPLE_MODE_MASK)))) | cfgTemp;
ARM GAS  C:\Users\badea\AppData\Local\Temp\cc3YEltE.s 			page 32


 727:Generated_Source\PSoC5/CAN.c **** 
 728:Generated_Source\PSoC5/CAN.c ****                         /* Verify 1st byte of CAN_CFG_REG register */
 729:Generated_Source\PSoC5/CAN.c ****                         if ((CAN_CFG_REG & (CAN_CFG_REG_TSEG2_MASK |
 730:Generated_Source\PSoC5/CAN.c ****                            CAN_CFG_REG_SJW_MASK | CAN_SAMPLE_MODE_MASK)) == cfgTemp)
 731:Generated_Source\PSoC5/CAN.c ****                         {
 732:Generated_Source\PSoC5/CAN.c ****                             result = CYRET_SUCCESS;
 733:Generated_Source\PSoC5/CAN.c ****                         }
 734:Generated_Source\PSoC5/CAN.c ****                     }
 735:Generated_Source\PSoC5/CAN.c ****                 #endif /* CY_PSOC3 || CY_PSOC5 */
 736:Generated_Source\PSoC5/CAN.c ****             }
 737:Generated_Source\PSoC5/CAN.c ****         }
 738:Generated_Source\PSoC5/CAN.c ****     }
 739:Generated_Source\PSoC5/CAN.c **** 
 740:Generated_Source\PSoC5/CAN.c ****     return (result);
 1029              		.loc 1 740 0
 1030 00c2 FB7B     		ldrb	r3, [r7, #15]	@ zero_extendqisi2
 741:Generated_Source\PSoC5/CAN.c **** }
 1031              		.loc 1 741 0
 1032 00c4 1846     		mov	r0, r3
 1033 00c6 1037     		adds	r7, r7, #16
 1034              		.cfi_def_cfa_offset 8
 1035 00c8 BD46     		mov	sp, r7
 1036              		.cfi_def_cfa_register 13
 1037              		@ sp needed
 1038 00ca 90BC     		pop	{r4, r7}
 1039              		.cfi_restore 7
 1040              		.cfi_restore 4
 1041              		.cfi_def_cfa_offset 0
 1042 00cc 7047     		bx	lr
 1043              	.L73:
 1044 00ce 00BF     		.align	2
 1045              	.L72:
 1046 00d0 14A00040 		.word	1073782804
 1047              		.cfi_endproc
 1048              	.LFE9:
 1049              		.size	CAN_SetTsegSample, .-CAN_SetTsegSample
 1050              		.section	.text.CAN_SetRestartType,"ax",%progbits
 1051              		.align	2
 1052              		.global	CAN_SetRestartType
 1053              		.thumb
 1054              		.thumb_func
 1055              		.type	CAN_SetRestartType, %function
 1056              	CAN_SetRestartType:
 1057              	.LFB10:
 742:Generated_Source\PSoC5/CAN.c **** 
 743:Generated_Source\PSoC5/CAN.c **** 
 744:Generated_Source\PSoC5/CAN.c **** /*******************************************************************************
 745:Generated_Source\PSoC5/CAN.c **** * FUNCTION NAME:   CAN_SetRestartType
 746:Generated_Source\PSoC5/CAN.c **** ********************************************************************************
 747:Generated_Source\PSoC5/CAN.c **** *
 748:Generated_Source\PSoC5/CAN.c **** * Summary:
 749:Generated_Source\PSoC5/CAN.c **** *  This function sets the Reset type. The types of Reset are Automatic and
 750:Generated_Source\PSoC5/CAN.c **** *  Manual. Manual Reset is the recommended setting.
 751:Generated_Source\PSoC5/CAN.c **** *
 752:Generated_Source\PSoC5/CAN.c **** * Parameters:
 753:Generated_Source\PSoC5/CAN.c **** *  reset: Reset Type.
 754:Generated_Source\PSoC5/CAN.c **** *   Define                             Description
ARM GAS  C:\Users\badea\AppData\Local\Temp\cc3YEltE.s 			page 33


 755:Generated_Source\PSoC5/CAN.c **** *    CAN_MANUAL_RESTART    After Bus-Off, CAN must be restarted
 756:Generated_Source\PSoC5/CAN.c **** *                                       manually. This is the recommended
 757:Generated_Source\PSoC5/CAN.c **** *                                       setting.
 758:Generated_Source\PSoC5/CAN.c **** *    CAN_AUTO_RESTART      After Bus-Off, CAN restarts
 759:Generated_Source\PSoC5/CAN.c **** *                                       automatically after 128 groups of 11
 760:Generated_Source\PSoC5/CAN.c **** *                                       recessive bits.
 761:Generated_Source\PSoC5/CAN.c **** *
 762:Generated_Source\PSoC5/CAN.c **** * Return:
 763:Generated_Source\PSoC5/CAN.c **** *  The indication whether the register is written and verified.
 764:Generated_Source\PSoC5/CAN.c **** *   Define                             Description
 765:Generated_Source\PSoC5/CAN.c **** *    CYRET_SUCCESS                      The function passed successfully
 766:Generated_Source\PSoC5/CAN.c **** *    CAN_FAIL              The function failed
 767:Generated_Source\PSoC5/CAN.c **** *
 768:Generated_Source\PSoC5/CAN.c **** *******************************************************************************/
 769:Generated_Source\PSoC5/CAN.c **** uint8 CAN_SetRestartType(uint8 reset) 
 770:Generated_Source\PSoC5/CAN.c **** {
 1058              		.loc 1 770 0
 1059              		.cfi_startproc
 1060              		@ args = 0, pretend = 0, frame = 16
 1061              		@ frame_needed = 1, uses_anonymous_args = 0
 1062              		@ link register save eliminated.
 1063 0000 80B4     		push	{r7}
 1064              		.cfi_def_cfa_offset 4
 1065              		.cfi_offset 7, -4
 1066 0002 85B0     		sub	sp, sp, #20
 1067              		.cfi_def_cfa_offset 24
 1068 0004 00AF     		add	r7, sp, #0
 1069              		.cfi_def_cfa_register 7
 1070 0006 0346     		mov	r3, r0
 1071 0008 FB71     		strb	r3, [r7, #7]
 771:Generated_Source\PSoC5/CAN.c ****     uint8 result = CAN_FAIL;
 1072              		.loc 1 771 0
 1073 000a 0123     		movs	r3, #1
 1074 000c FB73     		strb	r3, [r7, #15]
 772:Generated_Source\PSoC5/CAN.c **** 
 773:Generated_Source\PSoC5/CAN.c ****     #if (CY_PSOC3 || CY_PSOC5)
 774:Generated_Source\PSoC5/CAN.c ****         if (reset == CAN_MANUAL_RESTART)
 1075              		.loc 1 774 0
 1076 000e FB79     		ldrb	r3, [r7, #7]	@ zero_extendqisi2
 1077 0010 002B     		cmp	r3, #0
 1078 0012 11D1     		bne	.L75
 775:Generated_Source\PSoC5/CAN.c ****         {
 776:Generated_Source\PSoC5/CAN.c ****             CAN_CFG_REG.byte[0u] &= (uint8) (~CAN_RESET_MASK);
 1079              		.loc 1 776 0
 1080 0014 144A     		ldr	r2, .L79
 1081 0016 144B     		ldr	r3, .L79
 1082 0018 1B78     		ldrb	r3, [r3]
 1083 001a DBB2     		uxtb	r3, r3
 1084 001c 23F01003 		bic	r3, r3, #16
 1085 0020 DBB2     		uxtb	r3, r3
 1086 0022 1370     		strb	r3, [r2]
 777:Generated_Source\PSoC5/CAN.c **** 
 778:Generated_Source\PSoC5/CAN.c ****             /* Verify that bit is cleared */
 779:Generated_Source\PSoC5/CAN.c ****             if ((CAN_CFG_REG.byte[0u] & CAN_RESET_MASK) == 0u)
 1087              		.loc 1 779 0
 1088 0024 104B     		ldr	r3, .L79
 1089 0026 1B78     		ldrb	r3, [r3]
ARM GAS  C:\Users\badea\AppData\Local\Temp\cc3YEltE.s 			page 34


 1090 0028 DBB2     		uxtb	r3, r3
 1091 002a 03F01003 		and	r3, r3, #16
 1092 002e 002B     		cmp	r3, #0
 1093 0030 13D1     		bne	.L77
 780:Generated_Source\PSoC5/CAN.c ****             {
 781:Generated_Source\PSoC5/CAN.c ****                 result = CYRET_SUCCESS;
 1094              		.loc 1 781 0
 1095 0032 0023     		movs	r3, #0
 1096 0034 FB73     		strb	r3, [r7, #15]
 1097 0036 10E0     		b	.L77
 1098              	.L75:
 782:Generated_Source\PSoC5/CAN.c ****             }
 783:Generated_Source\PSoC5/CAN.c ****         }
 784:Generated_Source\PSoC5/CAN.c ****         else    /* Automatic restart */
 785:Generated_Source\PSoC5/CAN.c ****         {
 786:Generated_Source\PSoC5/CAN.c ****             CAN_CFG_REG.byte[0u] |= CAN_RESET_MASK;
 1099              		.loc 1 786 0
 1100 0038 0B4A     		ldr	r2, .L79
 1101 003a 0B4B     		ldr	r3, .L79
 1102 003c 1B78     		ldrb	r3, [r3]
 1103 003e DBB2     		uxtb	r3, r3
 1104 0040 43F01003 		orr	r3, r3, #16
 1105 0044 DBB2     		uxtb	r3, r3
 1106 0046 1370     		strb	r3, [r2]
 787:Generated_Source\PSoC5/CAN.c **** 
 788:Generated_Source\PSoC5/CAN.c ****             /* Verify that bit is set */
 789:Generated_Source\PSoC5/CAN.c ****             if ((CAN_CFG_REG.byte[0u] & CAN_RESET_MASK) != 0u)
 1107              		.loc 1 789 0
 1108 0048 074B     		ldr	r3, .L79
 1109 004a 1B78     		ldrb	r3, [r3]
 1110 004c DBB2     		uxtb	r3, r3
 1111 004e 03F01003 		and	r3, r3, #16
 1112 0052 002B     		cmp	r3, #0
 1113 0054 01D0     		beq	.L77
 790:Generated_Source\PSoC5/CAN.c ****             {
 791:Generated_Source\PSoC5/CAN.c ****                 result = CYRET_SUCCESS;
 1114              		.loc 1 791 0
 1115 0056 0023     		movs	r3, #0
 1116 0058 FB73     		strb	r3, [r7, #15]
 1117              	.L77:
 792:Generated_Source\PSoC5/CAN.c ****             }
 793:Generated_Source\PSoC5/CAN.c ****         }
 794:Generated_Source\PSoC5/CAN.c ****     #else  /* CY_PSOC4 */
 795:Generated_Source\PSoC5/CAN.c ****         if (reset == CAN_MANUAL_RESTART)
 796:Generated_Source\PSoC5/CAN.c ****         {
 797:Generated_Source\PSoC5/CAN.c ****             CAN_CFG_REG &= (uint32) (~((uint32) CAN_RESET_MASK));
 798:Generated_Source\PSoC5/CAN.c **** 
 799:Generated_Source\PSoC5/CAN.c ****             /* Verify that bit is cleared */
 800:Generated_Source\PSoC5/CAN.c ****             if ((CAN_CFG_REG & CAN_RESET_MASK) == 0u)
 801:Generated_Source\PSoC5/CAN.c ****             {
 802:Generated_Source\PSoC5/CAN.c ****                 result = CYRET_SUCCESS;
 803:Generated_Source\PSoC5/CAN.c ****             }
 804:Generated_Source\PSoC5/CAN.c ****         }
 805:Generated_Source\PSoC5/CAN.c ****         else    /* Automatic restart */
 806:Generated_Source\PSoC5/CAN.c ****         {
 807:Generated_Source\PSoC5/CAN.c ****             CAN_CFG_REG |= CAN_RESET_MASK;
 808:Generated_Source\PSoC5/CAN.c **** 
ARM GAS  C:\Users\badea\AppData\Local\Temp\cc3YEltE.s 			page 35


 809:Generated_Source\PSoC5/CAN.c ****             /* Verify that bit is set */
 810:Generated_Source\PSoC5/CAN.c ****             if ((CAN_CFG_REG & CAN_RESET_MASK) != 0u)
 811:Generated_Source\PSoC5/CAN.c ****             {
 812:Generated_Source\PSoC5/CAN.c ****                 result = CYRET_SUCCESS;
 813:Generated_Source\PSoC5/CAN.c ****             }
 814:Generated_Source\PSoC5/CAN.c ****         }
 815:Generated_Source\PSoC5/CAN.c ****     #endif /* CY_PSOC3 || CY_PSOC5 */
 816:Generated_Source\PSoC5/CAN.c **** 
 817:Generated_Source\PSoC5/CAN.c ****     return (result);
 1118              		.loc 1 817 0
 1119 005a FB7B     		ldrb	r3, [r7, #15]	@ zero_extendqisi2
 818:Generated_Source\PSoC5/CAN.c **** }
 1120              		.loc 1 818 0
 1121 005c 1846     		mov	r0, r3
 1122 005e 1437     		adds	r7, r7, #20
 1123              		.cfi_def_cfa_offset 4
 1124 0060 BD46     		mov	sp, r7
 1125              		.cfi_def_cfa_register 13
 1126              		@ sp needed
 1127 0062 80BC     		pop	{r7}
 1128              		.cfi_restore 7
 1129              		.cfi_def_cfa_offset 0
 1130 0064 7047     		bx	lr
 1131              	.L80:
 1132 0066 00BF     		.align	2
 1133              	.L79:
 1134 0068 14A00040 		.word	1073782804
 1135              		.cfi_endproc
 1136              	.LFE10:
 1137              		.size	CAN_SetRestartType, .-CAN_SetRestartType
 1138              		.section	.text.CAN_SetEdgeMode,"ax",%progbits
 1139              		.align	2
 1140              		.global	CAN_SetEdgeMode
 1141              		.thumb
 1142              		.thumb_func
 1143              		.type	CAN_SetEdgeMode, %function
 1144              	CAN_SetEdgeMode:
 1145              	.LFB11:
 819:Generated_Source\PSoC5/CAN.c **** 
 820:Generated_Source\PSoC5/CAN.c **** 
 821:Generated_Source\PSoC5/CAN.c **** /*******************************************************************************
 822:Generated_Source\PSoC5/CAN.c **** * FUNCTION NAME:   CAN_SetEdgeMode
 823:Generated_Source\PSoC5/CAN.c **** ********************************************************************************
 824:Generated_Source\PSoC5/CAN.c **** *
 825:Generated_Source\PSoC5/CAN.c **** * Summary:
 826:Generated_Source\PSoC5/CAN.c **** *  This function sets Edge Mode. The modes are 'R' to 'D'(Recessive to Dominant)
 827:Generated_Source\PSoC5/CAN.c **** *  and Both edges are used.
 828:Generated_Source\PSoC5/CAN.c **** *
 829:Generated_Source\PSoC5/CAN.c **** * Parameters:
 830:Generated_Source\PSoC5/CAN.c **** *  edge: Edge Mode.
 831:Generated_Source\PSoC5/CAN.c **** *   Define                             Description
 832:Generated_Source\PSoC5/CAN.c **** *    CAN_EDGE_R_TO_D       The edge from R to D is used for
 833:Generated_Source\PSoC5/CAN.c **** *                                       synchronization
 834:Generated_Source\PSoC5/CAN.c **** *    CAN_BOTH_EDGES        Both edges are used
 835:Generated_Source\PSoC5/CAN.c **** *
 836:Generated_Source\PSoC5/CAN.c **** * Return:
 837:Generated_Source\PSoC5/CAN.c **** *  The indication whether the register is written and verified.
ARM GAS  C:\Users\badea\AppData\Local\Temp\cc3YEltE.s 			page 36


 838:Generated_Source\PSoC5/CAN.c **** *   Define                             Description
 839:Generated_Source\PSoC5/CAN.c **** *    CYRET_SUCCESS                      The function passed successfully
 840:Generated_Source\PSoC5/CAN.c **** *    CAN_FAIL              The function failed
 841:Generated_Source\PSoC5/CAN.c **** *
 842:Generated_Source\PSoC5/CAN.c **** *******************************************************************************/
 843:Generated_Source\PSoC5/CAN.c **** uint8 CAN_SetEdgeMode(uint8 edge) 
 844:Generated_Source\PSoC5/CAN.c **** {
 1146              		.loc 1 844 0
 1147              		.cfi_startproc
 1148              		@ args = 0, pretend = 0, frame = 16
 1149              		@ frame_needed = 1, uses_anonymous_args = 0
 1150              		@ link register save eliminated.
 1151 0000 80B4     		push	{r7}
 1152              		.cfi_def_cfa_offset 4
 1153              		.cfi_offset 7, -4
 1154 0002 85B0     		sub	sp, sp, #20
 1155              		.cfi_def_cfa_offset 24
 1156 0004 00AF     		add	r7, sp, #0
 1157              		.cfi_def_cfa_register 7
 1158 0006 0346     		mov	r3, r0
 1159 0008 FB71     		strb	r3, [r7, #7]
 845:Generated_Source\PSoC5/CAN.c ****     uint8 result = CAN_FAIL;
 1160              		.loc 1 845 0
 1161 000a 0123     		movs	r3, #1
 1162 000c FB73     		strb	r3, [r7, #15]
 846:Generated_Source\PSoC5/CAN.c **** 
 847:Generated_Source\PSoC5/CAN.c ****     #if (CY_PSOC3 || CY_PSOC5)
 848:Generated_Source\PSoC5/CAN.c ****         if (edge == CAN_EDGE_R_TO_D)
 1163              		.loc 1 848 0
 1164 000e FB79     		ldrb	r3, [r7, #7]	@ zero_extendqisi2
 1165 0010 002B     		cmp	r3, #0
 1166 0012 11D1     		bne	.L82
 849:Generated_Source\PSoC5/CAN.c ****         {
 850:Generated_Source\PSoC5/CAN.c ****             /* Recessive to Dominant is used for synchronization */
 851:Generated_Source\PSoC5/CAN.c ****             CAN_CFG_REG.byte[0u] &= (uint8) (~CAN_EDGE_MODE_MASK);
 1167              		.loc 1 851 0
 1168 0014 144A     		ldr	r2, .L86
 1169 0016 144B     		ldr	r3, .L86
 1170 0018 1B78     		ldrb	r3, [r3]
 1171 001a DBB2     		uxtb	r3, r3
 1172 001c 23F00103 		bic	r3, r3, #1
 1173 0020 DBB2     		uxtb	r3, r3
 1174 0022 1370     		strb	r3, [r2]
 852:Generated_Source\PSoC5/CAN.c **** 
 853:Generated_Source\PSoC5/CAN.c ****             /* Verify that bit is cleared */
 854:Generated_Source\PSoC5/CAN.c ****             if ((CAN_CFG_REG.byte[0u] & CAN_EDGE_MODE_MASK) == 0u)
 1175              		.loc 1 854 0
 1176 0024 104B     		ldr	r3, .L86
 1177 0026 1B78     		ldrb	r3, [r3]
 1178 0028 DBB2     		uxtb	r3, r3
 1179 002a 03F00103 		and	r3, r3, #1
 1180 002e 002B     		cmp	r3, #0
 1181 0030 13D1     		bne	.L84
 855:Generated_Source\PSoC5/CAN.c ****             {
 856:Generated_Source\PSoC5/CAN.c ****                 result = CYRET_SUCCESS;
 1182              		.loc 1 856 0
 1183 0032 0023     		movs	r3, #0
ARM GAS  C:\Users\badea\AppData\Local\Temp\cc3YEltE.s 			page 37


 1184 0034 FB73     		strb	r3, [r7, #15]
 1185 0036 10E0     		b	.L84
 1186              	.L82:
 857:Generated_Source\PSoC5/CAN.c ****             }
 858:Generated_Source\PSoC5/CAN.c ****         }
 859:Generated_Source\PSoC5/CAN.c ****         else
 860:Generated_Source\PSoC5/CAN.c ****         {
 861:Generated_Source\PSoC5/CAN.c ****             /* Both edges to be used */
 862:Generated_Source\PSoC5/CAN.c ****             CAN_CFG_REG.byte[0u] |= CAN_EDGE_MODE_MASK;
 1187              		.loc 1 862 0
 1188 0038 0B4A     		ldr	r2, .L86
 1189 003a 0B4B     		ldr	r3, .L86
 1190 003c 1B78     		ldrb	r3, [r3]
 1191 003e DBB2     		uxtb	r3, r3
 1192 0040 43F00103 		orr	r3, r3, #1
 1193 0044 DBB2     		uxtb	r3, r3
 1194 0046 1370     		strb	r3, [r2]
 863:Generated_Source\PSoC5/CAN.c **** 
 864:Generated_Source\PSoC5/CAN.c ****             /* Verify that bit is set */
 865:Generated_Source\PSoC5/CAN.c ****             if ((CAN_CFG_REG.byte[0u] & CAN_EDGE_MODE_MASK) != 0u)
 1195              		.loc 1 865 0
 1196 0048 074B     		ldr	r3, .L86
 1197 004a 1B78     		ldrb	r3, [r3]
 1198 004c DBB2     		uxtb	r3, r3
 1199 004e 03F00103 		and	r3, r3, #1
 1200 0052 002B     		cmp	r3, #0
 1201 0054 01D0     		beq	.L84
 866:Generated_Source\PSoC5/CAN.c ****             {
 867:Generated_Source\PSoC5/CAN.c ****                 result = CYRET_SUCCESS;
 1202              		.loc 1 867 0
 1203 0056 0023     		movs	r3, #0
 1204 0058 FB73     		strb	r3, [r7, #15]
 1205              	.L84:
 868:Generated_Source\PSoC5/CAN.c ****             }
 869:Generated_Source\PSoC5/CAN.c ****         }
 870:Generated_Source\PSoC5/CAN.c ****     #else  /* CY_PSOC4 */
 871:Generated_Source\PSoC5/CAN.c ****         if (edge == CAN_EDGE_R_TO_D)
 872:Generated_Source\PSoC5/CAN.c ****         {
 873:Generated_Source\PSoC5/CAN.c ****             /* Recessive to Dominant is used for synchronization */
 874:Generated_Source\PSoC5/CAN.c ****             CAN_CFG_REG &= (uint32) (~((uint32) CAN_EDGE_MODE_MASK));
 875:Generated_Source\PSoC5/CAN.c **** 
 876:Generated_Source\PSoC5/CAN.c ****             /* Verify that bit is cleared */
 877:Generated_Source\PSoC5/CAN.c ****             if ((CAN_CFG_REG & CAN_EDGE_MODE_MASK) == 0u)
 878:Generated_Source\PSoC5/CAN.c ****             {
 879:Generated_Source\PSoC5/CAN.c ****                 result = CYRET_SUCCESS;
 880:Generated_Source\PSoC5/CAN.c ****             }
 881:Generated_Source\PSoC5/CAN.c ****         }
 882:Generated_Source\PSoC5/CAN.c ****         else
 883:Generated_Source\PSoC5/CAN.c ****         {
 884:Generated_Source\PSoC5/CAN.c ****             /* Both edges to be used */
 885:Generated_Source\PSoC5/CAN.c ****             CAN_CFG_REG |= CAN_EDGE_MODE_MASK;
 886:Generated_Source\PSoC5/CAN.c **** 
 887:Generated_Source\PSoC5/CAN.c ****             /* Verify that bit is set */
 888:Generated_Source\PSoC5/CAN.c ****             if ((CAN_CFG_REG & CAN_EDGE_MODE_MASK) != 0u)
 889:Generated_Source\PSoC5/CAN.c ****             {
 890:Generated_Source\PSoC5/CAN.c ****                 result = CYRET_SUCCESS;
 891:Generated_Source\PSoC5/CAN.c ****             }
ARM GAS  C:\Users\badea\AppData\Local\Temp\cc3YEltE.s 			page 38


 892:Generated_Source\PSoC5/CAN.c ****         }
 893:Generated_Source\PSoC5/CAN.c ****     #endif /* CY_PSOC3 || CY_PSOC5 */
 894:Generated_Source\PSoC5/CAN.c **** 
 895:Generated_Source\PSoC5/CAN.c ****     return (result);
 1206              		.loc 1 895 0
 1207 005a FB7B     		ldrb	r3, [r7, #15]	@ zero_extendqisi2
 896:Generated_Source\PSoC5/CAN.c **** }
 1208              		.loc 1 896 0
 1209 005c 1846     		mov	r0, r3
 1210 005e 1437     		adds	r7, r7, #20
 1211              		.cfi_def_cfa_offset 4
 1212 0060 BD46     		mov	sp, r7
 1213              		.cfi_def_cfa_register 13
 1214              		@ sp needed
 1215 0062 80BC     		pop	{r7}
 1216              		.cfi_restore 7
 1217              		.cfi_def_cfa_offset 0
 1218 0064 7047     		bx	lr
 1219              	.L87:
 1220 0066 00BF     		.align	2
 1221              	.L86:
 1222 0068 14A00040 		.word	1073782804
 1223              		.cfi_endproc
 1224              	.LFE11:
 1225              		.size	CAN_SetEdgeMode, .-CAN_SetEdgeMode
 1226              		.section	.text.CAN_SetOpMode,"ax",%progbits
 1227              		.align	2
 1228              		.global	CAN_SetOpMode
 1229              		.thumb
 1230              		.thumb_func
 1231              		.type	CAN_SetOpMode, %function
 1232              	CAN_SetOpMode:
 1233              	.LFB12:
 897:Generated_Source\PSoC5/CAN.c **** 
 898:Generated_Source\PSoC5/CAN.c **** 
 899:Generated_Source\PSoC5/CAN.c **** /*******************************************************************************
 900:Generated_Source\PSoC5/CAN.c **** * FUNCTION NAME:   CAN_SetOpMode
 901:Generated_Source\PSoC5/CAN.c **** ********************************************************************************
 902:Generated_Source\PSoC5/CAN.c **** *
 903:Generated_Source\PSoC5/CAN.c **** * Summary:
 904:Generated_Source\PSoC5/CAN.c **** *  This function sets Operation Mode.
 905:Generated_Source\PSoC5/CAN.c **** *
 906:Generated_Source\PSoC5/CAN.c **** * Parameters:
 907:Generated_Source\PSoC5/CAN.c **** *  opMode: Operation Mode value.
 908:Generated_Source\PSoC5/CAN.c **** *   Define                              Description
 909:Generated_Source\PSoC5/CAN.c **** *    CAN_STOP_MODE          The CAN controller is in the Stop mode
 910:Generated_Source\PSoC5/CAN.c **** *    CAN_ACTIVE_RUN_MODE    The CAN controller is in the Active
 911:Generated_Source\PSoC5/CAN.c **** *                                        mode
 912:Generated_Source\PSoC5/CAN.c **** *    CAN_LISTEN_ONLY_MODE   The CAN controller is in the Listen
 913:Generated_Source\PSoC5/CAN.c **** *                                        Only mode: The output is held at the
 914:Generated_Source\PSoC5/CAN.c **** *                                        'R' level.
 915:Generated_Source\PSoC5/CAN.c **** *    CAN_INTERNAL_LOOP_BACK The CAN controller is in the Internal
 916:Generated_Source\PSoC5/CAN.c **** *                                        Loopback mode. This mode is used for
 917:Generated_Source\PSoC5/CAN.c **** *                                        the testing purpose and the transmitted
 918:Generated_Source\PSoC5/CAN.c **** *                                        transactions are internally routed
 919:Generated_Source\PSoC5/CAN.c **** *                                        back to the receiver logic and
 920:Generated_Source\PSoC5/CAN.c **** *                                        processed by the controller in this
ARM GAS  C:\Users\badea\AppData\Local\Temp\cc3YEltE.s 			page 39


 921:Generated_Source\PSoC5/CAN.c **** *                                        mode. Not available for PSoC3/5.
 922:Generated_Source\PSoC5/CAN.c **** *    CAN_EXTERNAL_LOOP_BACK This mode is used for the testing
 923:Generated_Source\PSoC5/CAN.c **** *                                        purpose by connecting Tx and Rx lines
 924:Generated_Source\PSoC5/CAN.c **** *                                        externally. The transmitted messages
 925:Generated_Source\PSoC5/CAN.c **** *                                        are received back and processed by the
 926:Generated_Source\PSoC5/CAN.c **** *                                        CAN controller in this mode.
 927:Generated_Source\PSoC5/CAN.c **** *                                        Not available for PSoC3/5.
 928:Generated_Source\PSoC5/CAN.c **** * Return:
 929:Generated_Source\PSoC5/CAN.c **** *  The indication whether the register is written and verified.
 930:Generated_Source\PSoC5/CAN.c **** *   Define                             Description
 931:Generated_Source\PSoC5/CAN.c **** *    CYRET_SUCCESS                      The function passed successfully
 932:Generated_Source\PSoC5/CAN.c **** *    CAN_FAIL              The function failed
 933:Generated_Source\PSoC5/CAN.c **** *
 934:Generated_Source\PSoC5/CAN.c **** * Side Effects:
 935:Generated_Source\PSoC5/CAN.c **** *  For PSoC 4 device family the function re-initializes the CAN registers.
 936:Generated_Source\PSoC5/CAN.c **** *
 937:Generated_Source\PSoC5/CAN.c **** *******************************************************************************/
 938:Generated_Source\PSoC5/CAN.c **** uint8 CAN_SetOpMode(uint8 opMode) 
 939:Generated_Source\PSoC5/CAN.c **** {
 1234              		.loc 1 939 0
 1235              		.cfi_startproc
 1236              		@ args = 0, pretend = 0, frame = 16
 1237              		@ frame_needed = 1, uses_anonymous_args = 0
 1238              		@ link register save eliminated.
 1239 0000 80B4     		push	{r7}
 1240              		.cfi_def_cfa_offset 4
 1241              		.cfi_offset 7, -4
 1242 0002 85B0     		sub	sp, sp, #20
 1243              		.cfi_def_cfa_offset 24
 1244 0004 00AF     		add	r7, sp, #0
 1245              		.cfi_def_cfa_register 7
 1246 0006 0346     		mov	r3, r0
 1247 0008 FB71     		strb	r3, [r7, #7]
 940:Generated_Source\PSoC5/CAN.c ****     #if (CY_PSOC3 || CY_PSOC5)
 941:Generated_Source\PSoC5/CAN.c ****         uint32 timeout;
 942:Generated_Source\PSoC5/CAN.c ****     #endif /* CY_PSOC3 || CY_PSOC5 */
 943:Generated_Source\PSoC5/CAN.c ****     uint8 result = CAN_FAIL;
 1248              		.loc 1 943 0
 1249 000a 0123     		movs	r3, #1
 1250 000c FB72     		strb	r3, [r7, #11]
 944:Generated_Source\PSoC5/CAN.c ****     uint8 runState = CAN_STOP_MODE;
 1251              		.loc 1 944 0
 1252 000e 0023     		movs	r3, #0
 1253 0010 BB72     		strb	r3, [r7, #10]
 945:Generated_Source\PSoC5/CAN.c **** 
 946:Generated_Source\PSoC5/CAN.c ****     #if (CY_PSOC3 || CY_PSOC5)
 947:Generated_Source\PSoC5/CAN.c ****         if (((CAN_CMD_REG.byte[0u] & CAN_ACTIVE_RUN_MODE) != 0u) ||
 1254              		.loc 1 947 0
 1255 0012 2C4B     		ldr	r3, .L101
 1256 0014 1B78     		ldrb	r3, [r3]
 1257 0016 DBB2     		uxtb	r3, r3
 1258 0018 03F00103 		and	r3, r3, #1
 1259 001c 002B     		cmp	r3, #0
 1260 001e 02D1     		bne	.L89
 1261              		.loc 1 947 0 is_stmt 0 discriminator 1
 1262 0020 FB79     		ldrb	r3, [r7, #7]	@ zero_extendqisi2
 1263 0022 012B     		cmp	r3, #1
ARM GAS  C:\Users\badea\AppData\Local\Temp\cc3YEltE.s 			page 40


 1264 0024 01D1     		bne	.L90
 1265              	.L89:
 948:Generated_Source\PSoC5/CAN.c ****             (opMode == CAN_ACTIVE_RUN_MODE))
 949:Generated_Source\PSoC5/CAN.c ****         {
 950:Generated_Source\PSoC5/CAN.c ****             runState = CAN_ACTIVE_RUN_MODE;
 1266              		.loc 1 950 0 is_stmt 1
 1267 0026 0123     		movs	r3, #1
 1268 0028 BB72     		strb	r3, [r7, #10]
 1269              	.L90:
 951:Generated_Source\PSoC5/CAN.c ****         }
 952:Generated_Source\PSoC5/CAN.c **** 
 953:Generated_Source\PSoC5/CAN.c ****         /* Set CAN to the Stop Mode */
 954:Generated_Source\PSoC5/CAN.c ****         CAN_CMD_REG.byte[0u] = CAN_STOP_MODE;
 1270              		.loc 1 954 0
 1271 002a 264B     		ldr	r3, .L101
 1272 002c 0022     		movs	r2, #0
 1273 002e 1A70     		strb	r2, [r3]
 955:Generated_Source\PSoC5/CAN.c **** 
 956:Generated_Source\PSoC5/CAN.c ****         /* Timeout for CAN state machine to switch mode to Stop */
 957:Generated_Source\PSoC5/CAN.c ****         for (timeout = CAN_MODE_STATE_STOP_TIMEOUT;
 1274              		.loc 1 957 0
 1275 0030 4FF4F053 		mov	r3, #7680
 1276 0034 FB60     		str	r3, [r7, #12]
 1277 0036 02E0     		b	.L91
 1278              	.L93:
 958:Generated_Source\PSoC5/CAN.c ****             (timeout != 0u) && ((CAN_CMD_REG.byte[0u] & CAN_ACTIVE_RUN_MODE) != 0u);
 959:Generated_Source\PSoC5/CAN.c ****              timeout--)
 1279              		.loc 1 959 0
 1280 0038 FB68     		ldr	r3, [r7, #12]
 1281 003a 013B     		subs	r3, r3, #1
 1282 003c FB60     		str	r3, [r7, #12]
 1283              	.L91:
 957:Generated_Source\PSoC5/CAN.c ****             (timeout != 0u) && ((CAN_CMD_REG.byte[0u] & CAN_ACTIVE_RUN_MODE) != 0u);
 1284              		.loc 1 957 0 discriminator 1
 1285 003e FB68     		ldr	r3, [r7, #12]
 1286 0040 002B     		cmp	r3, #0
 1287 0042 06D0     		beq	.L92
 958:Generated_Source\PSoC5/CAN.c ****             (timeout != 0u) && ((CAN_CMD_REG.byte[0u] & CAN_ACTIVE_RUN_MODE) != 0u);
 1288              		.loc 1 958 0
 1289 0044 1F4B     		ldr	r3, .L101
 1290 0046 1B78     		ldrb	r3, [r3]
 1291 0048 DBB2     		uxtb	r3, r3
 1292 004a 03F00103 		and	r3, r3, #1
 1293 004e 002B     		cmp	r3, #0
 1294 0050 F2D1     		bne	.L93
 1295              	.L92:
 960:Generated_Source\PSoC5/CAN.c ****         {
 961:Generated_Source\PSoC5/CAN.c ****         }
 962:Generated_Source\PSoC5/CAN.c **** 
 963:Generated_Source\PSoC5/CAN.c ****         if (timeout != 0u)
 1296              		.loc 1 963 0
 1297 0052 FB68     		ldr	r3, [r7, #12]
 1298 0054 002B     		cmp	r3, #0
 1299 0056 01D0     		beq	.L94
 964:Generated_Source\PSoC5/CAN.c ****         {
 965:Generated_Source\PSoC5/CAN.c ****             result = CYRET_SUCCESS;
 1300              		.loc 1 965 0
ARM GAS  C:\Users\badea\AppData\Local\Temp\cc3YEltE.s 			page 41


 1301 0058 0023     		movs	r3, #0
 1302 005a FB72     		strb	r3, [r7, #11]
 1303              	.L94:
 966:Generated_Source\PSoC5/CAN.c ****         }
 967:Generated_Source\PSoC5/CAN.c **** 
 968:Generated_Source\PSoC5/CAN.c ****         if ((result == CYRET_SUCCESS) && (opMode != CAN_STOP_MODE))
 1304              		.loc 1 968 0
 1305 005c FB7A     		ldrb	r3, [r7, #11]	@ zero_extendqisi2
 1306 005e 002B     		cmp	r3, #0
 1307 0060 29D1     		bne	.L95
 1308              		.loc 1 968 0 is_stmt 0 discriminator 1
 1309 0062 FB79     		ldrb	r3, [r7, #7]	@ zero_extendqisi2
 1310 0064 002B     		cmp	r3, #0
 1311 0066 26D0     		beq	.L95
 969:Generated_Source\PSoC5/CAN.c ****         {
 970:Generated_Source\PSoC5/CAN.c ****             if (opMode == CAN_LISTEN_ONLY_MODE)
 1312              		.loc 1 970 0 is_stmt 1
 1313 0068 FB79     		ldrb	r3, [r7, #7]	@ zero_extendqisi2
 1314 006a 022B     		cmp	r3, #2
 1315 006c 02D1     		bne	.L96
 971:Generated_Source\PSoC5/CAN.c ****             {
 972:Generated_Source\PSoC5/CAN.c ****                 CAN_CMD_REG.byte[0u] = CAN_LISTEN_ONLY_MODE;
 1316              		.loc 1 972 0
 1317 006e 154B     		ldr	r3, .L101
 1318 0070 0222     		movs	r2, #2
 1319 0072 1A70     		strb	r2, [r3]
 1320              	.L96:
 973:Generated_Source\PSoC5/CAN.c ****             }
 974:Generated_Source\PSoC5/CAN.c **** 
 975:Generated_Source\PSoC5/CAN.c ****             if (runState == CAN_ACTIVE_RUN_MODE)
 1321              		.loc 1 975 0
 1322 0074 BB7A     		ldrb	r3, [r7, #10]	@ zero_extendqisi2
 1323 0076 012B     		cmp	r3, #1
 1324 0078 1DD1     		bne	.L95
 976:Generated_Source\PSoC5/CAN.c ****             {
 977:Generated_Source\PSoC5/CAN.c ****                 CAN_CMD_REG.byte[0u] |= CAN_ACTIVE_RUN_MODE;
 1325              		.loc 1 977 0
 1326 007a 124A     		ldr	r2, .L101
 1327 007c 114B     		ldr	r3, .L101
 1328 007e 1B78     		ldrb	r3, [r3]
 1329 0080 DBB2     		uxtb	r3, r3
 1330 0082 43F00103 		orr	r3, r3, #1
 1331 0086 DBB2     		uxtb	r3, r3
 1332 0088 1370     		strb	r3, [r2]
 978:Generated_Source\PSoC5/CAN.c **** 
 979:Generated_Source\PSoC5/CAN.c ****                 /* Timeout for CAN state machine to switch mode to Run */
 980:Generated_Source\PSoC5/CAN.c ****                 for (timeout = CAN_MODE_STATE_RUN_TIMEOUT;
 1333              		.loc 1 980 0
 1334 008a 4FF41073 		mov	r3, #576
 1335 008e FB60     		str	r3, [r7, #12]
 1336 0090 02E0     		b	.L97
 1337              	.L99:
 981:Generated_Source\PSoC5/CAN.c ****                     (timeout != 0u) && ((CAN_CMD_REG.byte[0u] & CAN_MODE_MASK) == 0u);
 982:Generated_Source\PSoC5/CAN.c ****                      timeout--)
 1338              		.loc 1 982 0
 1339 0092 FB68     		ldr	r3, [r7, #12]
 1340 0094 013B     		subs	r3, r3, #1
ARM GAS  C:\Users\badea\AppData\Local\Temp\cc3YEltE.s 			page 42


 1341 0096 FB60     		str	r3, [r7, #12]
 1342              	.L97:
 980:Generated_Source\PSoC5/CAN.c ****                     (timeout != 0u) && ((CAN_CMD_REG.byte[0u] & CAN_MODE_MASK) == 0u);
 1343              		.loc 1 980 0 discriminator 1
 1344 0098 FB68     		ldr	r3, [r7, #12]
 1345 009a 002B     		cmp	r3, #0
 1346 009c 06D0     		beq	.L98
 981:Generated_Source\PSoC5/CAN.c ****                     (timeout != 0u) && ((CAN_CMD_REG.byte[0u] & CAN_MODE_MASK) == 0u);
 1347              		.loc 1 981 0
 1348 009e 094B     		ldr	r3, .L101
 1349 00a0 1B78     		ldrb	r3, [r3]
 1350 00a2 DBB2     		uxtb	r3, r3
 1351 00a4 03F00103 		and	r3, r3, #1
 1352 00a8 002B     		cmp	r3, #0
 1353 00aa F2D0     		beq	.L99
 1354              	.L98:
 983:Generated_Source\PSoC5/CAN.c ****                 {
 984:Generated_Source\PSoC5/CAN.c ****                 }
 985:Generated_Source\PSoC5/CAN.c **** 
 986:Generated_Source\PSoC5/CAN.c ****                 if (timeout == 0u)
 1355              		.loc 1 986 0
 1356 00ac FB68     		ldr	r3, [r7, #12]
 1357 00ae 002B     		cmp	r3, #0
 1358 00b0 01D1     		bne	.L95
 987:Generated_Source\PSoC5/CAN.c ****                 {
 988:Generated_Source\PSoC5/CAN.c ****                     result = CAN_FAIL;
 1359              		.loc 1 988 0
 1360 00b2 0123     		movs	r3, #1
 1361 00b4 FB72     		strb	r3, [r7, #11]
 1362              	.L95:
 989:Generated_Source\PSoC5/CAN.c ****                 }
 990:Generated_Source\PSoC5/CAN.c ****             }
 991:Generated_Source\PSoC5/CAN.c ****         }
 992:Generated_Source\PSoC5/CAN.c ****     #else  /* CY_PSOC4 */
 993:Generated_Source\PSoC5/CAN.c ****         if (((CAN_CMD_REG & CAN_MODE_MASK) != 0u) ||
 994:Generated_Source\PSoC5/CAN.c ****             (opMode == CAN_ACTIVE_RUN_MODE))
 995:Generated_Source\PSoC5/CAN.c ****         {
 996:Generated_Source\PSoC5/CAN.c ****             runState = CAN_ACTIVE_RUN_MODE;
 997:Generated_Source\PSoC5/CAN.c ****         }
 998:Generated_Source\PSoC5/CAN.c **** 
 999:Generated_Source\PSoC5/CAN.c ****         /* Sets CAN Component into the Stop mode */
1000:Generated_Source\PSoC5/CAN.c ****         if (CAN_Stop() == CYRET_SUCCESS)
1001:Generated_Source\PSoC5/CAN.c ****         {
1002:Generated_Source\PSoC5/CAN.c ****             /* Disable CAN IP Block to reset configuration before sets Operation Mode */
1003:Generated_Source\PSoC5/CAN.c ****             CAN_CNTL_REG = (uint32) (~CAN_IP_ENABLE);
1004:Generated_Source\PSoC5/CAN.c **** 
1005:Generated_Source\PSoC5/CAN.c ****             /* Enable CAN IP Block */
1006:Generated_Source\PSoC5/CAN.c ****             CAN_CNTL_REG = CAN_IP_ENABLE;
1007:Generated_Source\PSoC5/CAN.c **** 
1008:Generated_Source\PSoC5/CAN.c ****             result = CAN_Init();
1009:Generated_Source\PSoC5/CAN.c **** 
1010:Generated_Source\PSoC5/CAN.c ****             if ((result == CYRET_SUCCESS) && (opMode != CAN_STOP_MODE))
1011:Generated_Source\PSoC5/CAN.c ****             {
1012:Generated_Source\PSoC5/CAN.c ****                 if (opMode != CAN_ACTIVE_RUN_MODE)
1013:Generated_Source\PSoC5/CAN.c ****                 {
1014:Generated_Source\PSoC5/CAN.c ****                     /* Set CAN Operation Mode */
1015:Generated_Source\PSoC5/CAN.c ****                     CAN_CMD_REG |= opMode;
ARM GAS  C:\Users\badea\AppData\Local\Temp\cc3YEltE.s 			page 43


1016:Generated_Source\PSoC5/CAN.c ****                 }
1017:Generated_Source\PSoC5/CAN.c **** 
1018:Generated_Source\PSoC5/CAN.c ****                 if (runState == CAN_ACTIVE_RUN_MODE)
1019:Generated_Source\PSoC5/CAN.c ****                 {
1020:Generated_Source\PSoC5/CAN.c ****                     /* Enable component's operation */
1021:Generated_Source\PSoC5/CAN.c ****                     result = CAN_Enable();
1022:Generated_Source\PSoC5/CAN.c ****                 }
1023:Generated_Source\PSoC5/CAN.c ****             }
1024:Generated_Source\PSoC5/CAN.c ****         }
1025:Generated_Source\PSoC5/CAN.c ****     #endif /* CY_PSOC3 || CY_PSOC5 */
1026:Generated_Source\PSoC5/CAN.c **** 
1027:Generated_Source\PSoC5/CAN.c ****     return (result);
 1363              		.loc 1 1027 0
 1364 00b6 FB7A     		ldrb	r3, [r7, #11]	@ zero_extendqisi2
1028:Generated_Source\PSoC5/CAN.c **** }
 1365              		.loc 1 1028 0
 1366 00b8 1846     		mov	r0, r3
 1367 00ba 1437     		adds	r7, r7, #20
 1368              		.cfi_def_cfa_offset 4
 1369 00bc BD46     		mov	sp, r7
 1370              		.cfi_def_cfa_register 13
 1371              		@ sp needed
 1372 00be 80BC     		pop	{r7}
 1373              		.cfi_restore 7
 1374              		.cfi_def_cfa_offset 0
 1375 00c0 7047     		bx	lr
 1376              	.L102:
 1377 00c2 00BF     		.align	2
 1378              	.L101:
 1379 00c4 10A00040 		.word	1073782800
 1380              		.cfi_endproc
 1381              	.LFE12:
 1382              		.size	CAN_SetOpMode, .-CAN_SetOpMode
 1383              		.section	.text.CAN_RXRegisterInit,"ax",%progbits
 1384              		.align	2
 1385              		.global	CAN_RXRegisterInit
 1386              		.thumb
 1387              		.thumb_func
 1388              		.type	CAN_RXRegisterInit, %function
 1389              	CAN_RXRegisterInit:
 1390              	.LFB13:
1029:Generated_Source\PSoC5/CAN.c **** 
1030:Generated_Source\PSoC5/CAN.c **** 
1031:Generated_Source\PSoC5/CAN.c **** /*******************************************************************************
1032:Generated_Source\PSoC5/CAN.c **** * FUNCTION NAME:   CAN_RXRegisterInit
1033:Generated_Source\PSoC5/CAN.c **** ********************************************************************************
1034:Generated_Source\PSoC5/CAN.c **** *
1035:Generated_Source\PSoC5/CAN.c **** * Summary:
1036:Generated_Source\PSoC5/CAN.c **** *  This function writes only receive CAN registers.
1037:Generated_Source\PSoC5/CAN.c **** *
1038:Generated_Source\PSoC5/CAN.c **** * Parameters:
1039:Generated_Source\PSoC5/CAN.c **** *  regAddr: The pointer to a CAN receive register;
1040:Generated_Source\PSoC5/CAN.c **** *  config:  The value that will be written in the register.
1041:Generated_Source\PSoC5/CAN.c **** *
1042:Generated_Source\PSoC5/CAN.c **** * Return:
1043:Generated_Source\PSoC5/CAN.c **** *  The indication whether the register is written and verified.
1044:Generated_Source\PSoC5/CAN.c **** *   Define                             Description
ARM GAS  C:\Users\badea\AppData\Local\Temp\cc3YEltE.s 			page 44


1045:Generated_Source\PSoC5/CAN.c **** *    CYRET_SUCCESS                      The function passed successfully
1046:Generated_Source\PSoC5/CAN.c **** *    CAN_FAIL              The function failed
1047:Generated_Source\PSoC5/CAN.c **** *    CAN_OUT_OF_RANGE      The function parameter is out of range
1048:Generated_Source\PSoC5/CAN.c **** *
1049:Generated_Source\PSoC5/CAN.c **** *******************************************************************************/
1050:Generated_Source\PSoC5/CAN.c **** uint8 CAN_RXRegisterInit(reg32 *regAddr, uint32 config)
1051:Generated_Source\PSoC5/CAN.c ****                                       
1052:Generated_Source\PSoC5/CAN.c **** {
 1391              		.loc 1 1052 0
 1392              		.cfi_startproc
 1393              		@ args = 0, pretend = 0, frame = 16
 1394              		@ frame_needed = 1, uses_anonymous_args = 0
 1395              		@ link register save eliminated.
 1396 0000 80B4     		push	{r7}
 1397              		.cfi_def_cfa_offset 4
 1398              		.cfi_offset 7, -4
 1399 0002 85B0     		sub	sp, sp, #20
 1400              		.cfi_def_cfa_offset 24
 1401 0004 00AF     		add	r7, sp, #0
 1402              		.cfi_def_cfa_register 7
 1403 0006 7860     		str	r0, [r7, #4]
 1404 0008 3960     		str	r1, [r7]
1053:Generated_Source\PSoC5/CAN.c ****     uint8 result = CAN_OUT_OF_RANGE;
 1405              		.loc 1 1053 0
 1406 000a 0223     		movs	r3, #2
 1407 000c FB73     		strb	r3, [r7, #15]
1054:Generated_Source\PSoC5/CAN.c **** 
1055:Generated_Source\PSoC5/CAN.c ****     if ((((uint32) regAddr & CAN_REG_ADDR_MASK) >=
 1408              		.loc 1 1055 0
 1409 000e 7B68     		ldr	r3, [r7, #4]
 1410 0010 9BB2     		uxth	r3, r3
 1411 0012 4AF29F02 		movw	r2, #41119
 1412 0016 9342     		cmp	r3, r2
 1413 0018 38D9     		bls	.L104
1056:Generated_Source\PSoC5/CAN.c ****         ((uint32) CAN_RX_FIRST_REGISTER_PTR & CAN_REG_ADDR_MASK)) &&
1057:Generated_Source\PSoC5/CAN.c ****         ((((uint32) regAddr & CAN_REG_ADDR_MASK)) <=
 1414              		.loc 1 1057 0
 1415 001a 7B68     		ldr	r3, [r7, #4]
 1416 001c 9BB2     		uxth	r3, r3
1056:Generated_Source\PSoC5/CAN.c ****         ((uint32) CAN_RX_FIRST_REGISTER_PTR & CAN_REG_ADDR_MASK)) &&
 1417              		.loc 1 1056 0
 1418 001e 4AF29C22 		movw	r2, #41628
 1419 0022 9342     		cmp	r3, r2
 1420 0024 32D8     		bhi	.L104
1058:Generated_Source\PSoC5/CAN.c ****         ((uint32) CAN_RX_LAST_REGISTER_PTR & CAN_REG_ADDR_MASK)))
1059:Generated_Source\PSoC5/CAN.c ****     {
1060:Generated_Source\PSoC5/CAN.c ****         result = CAN_FAIL;
 1421              		.loc 1 1060 0
 1422 0026 0123     		movs	r3, #1
 1423 0028 FB73     		strb	r3, [r7, #15]
1061:Generated_Source\PSoC5/CAN.c **** 
1062:Generated_Source\PSoC5/CAN.c ****         if ((((uint32) regAddr & CAN_REG_ADDR_MASK) % CAN_RX_CMD_REG_WIDTH) == 0u)
 1424              		.loc 1 1062 0
 1425 002a 7B68     		ldr	r3, [r7, #4]
 1426 002c 03F01F03 		and	r3, r3, #31
 1427 0030 002B     		cmp	r3, #0
 1428 0032 19D1     		bne	.L105
ARM GAS  C:\Users\badea\AppData\Local\Temp\cc3YEltE.s 			page 45


1063:Generated_Source\PSoC5/CAN.c ****         {
1064:Generated_Source\PSoC5/CAN.c ****             config |= CAN_RX_WPN_SET;
 1429              		.loc 1 1064 0
 1430 0034 3B68     		ldr	r3, [r7]
 1431 0036 43F08013 		orr	r3, r3, #8388736
 1432 003a 3B60     		str	r3, [r7]
1065:Generated_Source\PSoC5/CAN.c **** 
1066:Generated_Source\PSoC5/CAN.c ****     /* Disable isr */
1067:Generated_Source\PSoC5/CAN.c ****     CyIntDisable(CAN_ISR_NUMBER);
 1433              		.loc 1 1067 0
 1434 003c 164B     		ldr	r3, .L108
 1435 003e 4FF48032 		mov	r2, #65536
 1436 0042 1A60     		str	r2, [r3]
1068:Generated_Source\PSoC5/CAN.c **** 
1069:Generated_Source\PSoC5/CAN.c ****             /* Write defined RX CMD registers */
1070:Generated_Source\PSoC5/CAN.c ****             CY_SET_REG32(regAddr, config);
 1437              		.loc 1 1070 0
 1438 0044 7B68     		ldr	r3, [r7, #4]
 1439 0046 3A68     		ldr	r2, [r7]
 1440 0048 1A60     		str	r2, [r3]
1071:Generated_Source\PSoC5/CAN.c **** 
1072:Generated_Source\PSoC5/CAN.c ****     /* Enable isr */
1073:Generated_Source\PSoC5/CAN.c ****     CyIntEnable(CAN_ISR_NUMBER);
 1441              		.loc 1 1073 0
 1442 004a 144B     		ldr	r3, .L108+4
 1443 004c 4FF48032 		mov	r2, #65536
 1444 0050 1A60     		str	r2, [r3]
1074:Generated_Source\PSoC5/CAN.c **** 
1075:Generated_Source\PSoC5/CAN.c ****             /* Verify register */
1076:Generated_Source\PSoC5/CAN.c ****             if ((CY_GET_REG32(regAddr) & CAN_RX_READ_BACK_MASK) ==
 1445              		.loc 1 1076 0
 1446 0052 7B68     		ldr	r3, [r7, #4]
 1447 0054 1A68     		ldr	r2, [r3]
 1448 0056 3B68     		ldr	r3, [r7]
 1449 0058 5340     		eors	r3, r3, r2
 1450 005a 03F07F13 		and	r3, r3, #8323199
 1451 005e 002B     		cmp	r3, #0
 1452 0060 14D1     		bne	.L104
1077:Generated_Source\PSoC5/CAN.c ****                 (config & CAN_RX_READ_BACK_MASK))
1078:Generated_Source\PSoC5/CAN.c ****             {
1079:Generated_Source\PSoC5/CAN.c ****                 result = CYRET_SUCCESS;
 1453              		.loc 1 1079 0
 1454 0062 0023     		movs	r3, #0
 1455 0064 FB73     		strb	r3, [r7, #15]
 1456 0066 11E0     		b	.L104
 1457              	.L105:
1080:Generated_Source\PSoC5/CAN.c ****             }
1081:Generated_Source\PSoC5/CAN.c ****         }
1082:Generated_Source\PSoC5/CAN.c ****         /* All registers except RX CMD*/
1083:Generated_Source\PSoC5/CAN.c ****         else
1084:Generated_Source\PSoC5/CAN.c ****         {
1085:Generated_Source\PSoC5/CAN.c ****     /* Disable isr */
1086:Generated_Source\PSoC5/CAN.c ****     CyIntDisable(CAN_ISR_NUMBER);
 1458              		.loc 1 1086 0
 1459 0068 0B4B     		ldr	r3, .L108
 1460 006a 4FF48032 		mov	r2, #65536
 1461 006e 1A60     		str	r2, [r3]
ARM GAS  C:\Users\badea\AppData\Local\Temp\cc3YEltE.s 			page 46


1087:Generated_Source\PSoC5/CAN.c **** 
1088:Generated_Source\PSoC5/CAN.c ****             /* Write defined CAN receive register */
1089:Generated_Source\PSoC5/CAN.c ****             CY_SET_REG32(regAddr, config);
 1462              		.loc 1 1089 0
 1463 0070 7B68     		ldr	r3, [r7, #4]
 1464 0072 3A68     		ldr	r2, [r7]
 1465 0074 1A60     		str	r2, [r3]
1090:Generated_Source\PSoC5/CAN.c **** 
1091:Generated_Source\PSoC5/CAN.c ****     /* Enable isr */
1092:Generated_Source\PSoC5/CAN.c ****     CyIntEnable(CAN_ISR_NUMBER);
 1466              		.loc 1 1092 0
 1467 0076 094B     		ldr	r3, .L108+4
 1468 0078 4FF48032 		mov	r2, #65536
 1469 007c 1A60     		str	r2, [r3]
1093:Generated_Source\PSoC5/CAN.c **** 
1094:Generated_Source\PSoC5/CAN.c ****             /* Verify register */
1095:Generated_Source\PSoC5/CAN.c ****             if (CY_GET_REG32(regAddr) == config)
 1470              		.loc 1 1095 0
 1471 007e 7B68     		ldr	r3, [r7, #4]
 1472 0080 1A68     		ldr	r2, [r3]
 1473 0082 3B68     		ldr	r3, [r7]
 1474 0084 9A42     		cmp	r2, r3
 1475 0086 01D1     		bne	.L104
1096:Generated_Source\PSoC5/CAN.c ****             {
1097:Generated_Source\PSoC5/CAN.c ****                 result = CYRET_SUCCESS;
 1476              		.loc 1 1097 0
 1477 0088 0023     		movs	r3, #0
 1478 008a FB73     		strb	r3, [r7, #15]
 1479              	.L104:
1098:Generated_Source\PSoC5/CAN.c ****             }
1099:Generated_Source\PSoC5/CAN.c ****         }
1100:Generated_Source\PSoC5/CAN.c ****     }
1101:Generated_Source\PSoC5/CAN.c **** 
1102:Generated_Source\PSoC5/CAN.c ****     return (result);
 1480              		.loc 1 1102 0
 1481 008c FB7B     		ldrb	r3, [r7, #15]	@ zero_extendqisi2
1103:Generated_Source\PSoC5/CAN.c **** }
 1482              		.loc 1 1103 0
 1483 008e 1846     		mov	r0, r3
 1484 0090 1437     		adds	r7, r7, #20
 1485              		.cfi_def_cfa_offset 4
 1486 0092 BD46     		mov	sp, r7
 1487              		.cfi_def_cfa_register 13
 1488              		@ sp needed
 1489 0094 80BC     		pop	{r7}
 1490              		.cfi_restore 7
 1491              		.cfi_def_cfa_offset 0
 1492 0096 7047     		bx	lr
 1493              	.L109:
 1494              		.align	2
 1495              	.L108:
 1496 0098 80E100E0 		.word	-536813184
 1497 009c 00E100E0 		.word	-536813312
 1498              		.cfi_endproc
 1499              	.LFE13:
 1500              		.size	CAN_RXRegisterInit, .-CAN_RXRegisterInit
 1501              		.section	.text.CAN_SetIrqMask,"ax",%progbits
ARM GAS  C:\Users\badea\AppData\Local\Temp\cc3YEltE.s 			page 47


 1502              		.align	2
 1503              		.global	CAN_SetIrqMask
 1504              		.thumb
 1505              		.thumb_func
 1506              		.type	CAN_SetIrqMask, %function
 1507              	CAN_SetIrqMask:
 1508              	.LFB14:
1104:Generated_Source\PSoC5/CAN.c **** 
1105:Generated_Source\PSoC5/CAN.c **** 
1106:Generated_Source\PSoC5/CAN.c **** /*******************************************************************************
1107:Generated_Source\PSoC5/CAN.c **** * FUNCTION NAME:   CAN_SetIrqMask
1108:Generated_Source\PSoC5/CAN.c **** ********************************************************************************
1109:Generated_Source\PSoC5/CAN.c **** *
1110:Generated_Source\PSoC5/CAN.c **** * Summary:
1111:Generated_Source\PSoC5/CAN.c **** *  This function sets to enable/disable particular interrupt sources. Interrupt
1112:Generated_Source\PSoC5/CAN.c **** *  Mask directly write to the CAN Interrupt Enable register. A particular
1113:Generated_Source\PSoC5/CAN.c **** *  interrupt source is enabled by setting its respective flag to 1.
1114:Generated_Source\PSoC5/CAN.c **** *
1115:Generated_Source\PSoC5/CAN.c **** * Parameters:
1116:Generated_Source\PSoC5/CAN.c **** *  mask: Interrupt enable/disable request. 1 bit per interrupt source.
1117:Generated_Source\PSoC5/CAN.c **** *   Define                                    Description
1118:Generated_Source\PSoC5/CAN.c **** *    CAN_GLOBAL_INT_ENABLE        Global Interrupt Enable Flag
1119:Generated_Source\PSoC5/CAN.c **** *    CAN_ARBITRATION_LOST_ENABLE  Arbitration Loss Interrupt Enable
1120:Generated_Source\PSoC5/CAN.c **** *    CAN_OVERLOAD_ERROR_ENABLE    Overload Interrupt Enable
1121:Generated_Source\PSoC5/CAN.c **** *    CAN_BIT_ERROR_ENABLE         Bit Error Interrupt Enable
1122:Generated_Source\PSoC5/CAN.c **** *    CAN_STUFF_ERROR_ENABLE       Stuff Error Interrupt Enable
1123:Generated_Source\PSoC5/CAN.c **** *    CAN_ACK_ERROR_ENABLE         Ack Error Interrupt Enable
1124:Generated_Source\PSoC5/CAN.c **** *    CAN_FORM_ERROR_ENABLE        Form Error Interrupt Enable
1125:Generated_Source\PSoC5/CAN.c **** *    CAN_CRC_ERROR_ENABLE         CRC Error Interrupt Enable
1126:Generated_Source\PSoC5/CAN.c **** *    CAN_BUS_OFF_ENABLE           Bus-Off State Interrupt Enable
1127:Generated_Source\PSoC5/CAN.c **** *    CAN_RX_MSG_LOST_ENABLE       Rx Msg Loss Interrupt Enable
1128:Generated_Source\PSoC5/CAN.c **** *    CAN_TX_MESSAGE_ENABLE        Tx Msg Sent Interrupt Enable
1129:Generated_Source\PSoC5/CAN.c **** *    CAN_RX_MESSAGE_ENABLE        Msg Received Interrupt Enable
1130:Generated_Source\PSoC5/CAN.c **** *    CAN_RTR_MESSAGE_ENABLE       RTR Auto-reply Interrupt Enable
1131:Generated_Source\PSoC5/CAN.c **** *    CAN_STUCK_AT_ZERO_ENABLE     Stuck at dominant error Interrupt
1132:Generated_Source\PSoC5/CAN.c **** *                                              Enable
1133:Generated_Source\PSoC5/CAN.c **** *    CAN_SST_FAILURE_ENABLE       SST failure Interrupt Enable
1134:Generated_Source\PSoC5/CAN.c **** *
1135:Generated_Source\PSoC5/CAN.c **** * Return:
1136:Generated_Source\PSoC5/CAN.c **** *  The indication whether the register is written and verified.
1137:Generated_Source\PSoC5/CAN.c **** *   Define                             Description
1138:Generated_Source\PSoC5/CAN.c **** *    CYRET_SUCCESS                      The function passed successfully
1139:Generated_Source\PSoC5/CAN.c **** *    CAN_FAIL              The function failed
1140:Generated_Source\PSoC5/CAN.c **** *
1141:Generated_Source\PSoC5/CAN.c **** *******************************************************************************/
1142:Generated_Source\PSoC5/CAN.c **** uint8 CAN_SetIrqMask(uint16 mask) 
1143:Generated_Source\PSoC5/CAN.c **** {
 1509              		.loc 1 1143 0
 1510              		.cfi_startproc
 1511              		@ args = 0, pretend = 0, frame = 16
 1512              		@ frame_needed = 1, uses_anonymous_args = 0
 1513              		@ link register save eliminated.
 1514 0000 80B4     		push	{r7}
 1515              		.cfi_def_cfa_offset 4
 1516              		.cfi_offset 7, -4
 1517 0002 85B0     		sub	sp, sp, #20
 1518              		.cfi_def_cfa_offset 24
ARM GAS  C:\Users\badea\AppData\Local\Temp\cc3YEltE.s 			page 48


 1519 0004 00AF     		add	r7, sp, #0
 1520              		.cfi_def_cfa_register 7
 1521 0006 0346     		mov	r3, r0
 1522 0008 FB80     		strh	r3, [r7, #6]	@ movhi
1144:Generated_Source\PSoC5/CAN.c ****     uint8 result = CAN_FAIL;
 1523              		.loc 1 1144 0
 1524 000a 0123     		movs	r3, #1
 1525 000c FB73     		strb	r3, [r7, #15]
1145:Generated_Source\PSoC5/CAN.c **** 
1146:Generated_Source\PSoC5/CAN.c ****     #if (CY_PSOC3 || CY_PSOC5)
1147:Generated_Source\PSoC5/CAN.c ****         /* Write byte 0 and 1 of CAN_INT_EN_REG register */
1148:Generated_Source\PSoC5/CAN.c ****         CY_SET_REG16((reg16 *) (&CAN_INT_EN_REG), mask);
 1526              		.loc 1 1148 0
 1527 000e 084A     		ldr	r2, .L113
 1528 0010 FB88     		ldrh	r3, [r7, #6]	@ movhi
 1529 0012 1380     		strh	r3, [r2]	@ movhi
1149:Generated_Source\PSoC5/CAN.c **** 
1150:Generated_Source\PSoC5/CAN.c ****         /* Verify CAN_INT_EN_REG register */
1151:Generated_Source\PSoC5/CAN.c ****         if (CY_GET_REG16((reg16 *) (&CAN_INT_EN_REG)) == mask)
 1530              		.loc 1 1151 0
 1531 0014 064B     		ldr	r3, .L113
 1532 0016 1B88     		ldrh	r3, [r3]	@ movhi
 1533 0018 9BB2     		uxth	r3, r3
 1534 001a FA88     		ldrh	r2, [r7, #6]
 1535 001c 9A42     		cmp	r2, r3
 1536 001e 01D1     		bne	.L111
1152:Generated_Source\PSoC5/CAN.c ****         {
1153:Generated_Source\PSoC5/CAN.c ****             result = CYRET_SUCCESS;
 1537              		.loc 1 1153 0
 1538 0020 0023     		movs	r3, #0
 1539 0022 FB73     		strb	r3, [r7, #15]
 1540              	.L111:
1154:Generated_Source\PSoC5/CAN.c ****         }
1155:Generated_Source\PSoC5/CAN.c ****     #else  /* CY_PSOC4 */
1156:Generated_Source\PSoC5/CAN.c ****         /* Write byte 0 and 1 of CAN_INT_EN_REG register */
1157:Generated_Source\PSoC5/CAN.c ****         CAN_INT_EN_REG = mask;
1158:Generated_Source\PSoC5/CAN.c **** 
1159:Generated_Source\PSoC5/CAN.c ****         /* Verify CAN_INT_EN_REG register */
1160:Generated_Source\PSoC5/CAN.c ****         if ((CAN_INT_EN_REG & CAN_REG_ADDR_MASK) == mask)
1161:Generated_Source\PSoC5/CAN.c ****         {
1162:Generated_Source\PSoC5/CAN.c ****             result = CYRET_SUCCESS;
1163:Generated_Source\PSoC5/CAN.c ****         }
1164:Generated_Source\PSoC5/CAN.c ****     #endif /* CY_PSOC3 || CY_PSOC5 */
1165:Generated_Source\PSoC5/CAN.c **** 
1166:Generated_Source\PSoC5/CAN.c ****     return (result);
 1541              		.loc 1 1166 0
 1542 0024 FB7B     		ldrb	r3, [r7, #15]	@ zero_extendqisi2
1167:Generated_Source\PSoC5/CAN.c **** }
 1543              		.loc 1 1167 0
 1544 0026 1846     		mov	r0, r3
 1545 0028 1437     		adds	r7, r7, #20
 1546              		.cfi_def_cfa_offset 4
 1547 002a BD46     		mov	sp, r7
 1548              		.cfi_def_cfa_register 13
 1549              		@ sp needed
 1550 002c 80BC     		pop	{r7}
 1551              		.cfi_restore 7
ARM GAS  C:\Users\badea\AppData\Local\Temp\cc3YEltE.s 			page 49


 1552              		.cfi_def_cfa_offset 0
 1553 002e 7047     		bx	lr
 1554              	.L114:
 1555              		.align	2
 1556              	.L113:
 1557 0030 04A00040 		.word	1073782788
 1558              		.cfi_endproc
 1559              	.LFE14:
 1560              		.size	CAN_SetIrqMask, .-CAN_SetIrqMask
 1561              		.section	.text.CAN_GetTXErrorFlag,"ax",%progbits
 1562              		.align	2
 1563              		.global	CAN_GetTXErrorFlag
 1564              		.thumb
 1565              		.thumb_func
 1566              		.type	CAN_GetTXErrorFlag, %function
 1567              	CAN_GetTXErrorFlag:
 1568              	.LFB15:
1168:Generated_Source\PSoC5/CAN.c **** 
1169:Generated_Source\PSoC5/CAN.c **** 
1170:Generated_Source\PSoC5/CAN.c **** /*******************************************************************************
1171:Generated_Source\PSoC5/CAN.c **** * FUNCTION NAME:   CAN_GetTXErrorFlag
1172:Generated_Source\PSoC5/CAN.c **** ********************************************************************************
1173:Generated_Source\PSoC5/CAN.c **** *
1174:Generated_Source\PSoC5/CAN.c **** * Summary:
1175:Generated_Source\PSoC5/CAN.c **** *  This function returns the bit that indicates if the number of TX errors
1176:Generated_Source\PSoC5/CAN.c **** *  exceeds 0x60.
1177:Generated_Source\PSoC5/CAN.c **** *
1178:Generated_Source\PSoC5/CAN.c **** * Parameters:
1179:Generated_Source\PSoC5/CAN.c **** *  None.
1180:Generated_Source\PSoC5/CAN.c **** *
1181:Generated_Source\PSoC5/CAN.c **** * Return:
1182:Generated_Source\PSoC5/CAN.c **** *  The indication whether the number of TX errors exceeds 0x60.
1183:Generated_Source\PSoC5/CAN.c **** *
1184:Generated_Source\PSoC5/CAN.c **** *******************************************************************************/
1185:Generated_Source\PSoC5/CAN.c **** uint8 CAN_GetTXErrorFlag(void) 
1186:Generated_Source\PSoC5/CAN.c **** {
 1569              		.loc 1 1186 0
 1570              		.cfi_startproc
 1571              		@ args = 0, pretend = 0, frame = 0
 1572              		@ frame_needed = 1, uses_anonymous_args = 0
 1573              		@ link register save eliminated.
 1574 0000 80B4     		push	{r7}
 1575              		.cfi_def_cfa_offset 4
 1576              		.cfi_offset 7, -4
 1577 0002 00AF     		add	r7, sp, #0
 1578              		.cfi_def_cfa_register 7
1187:Generated_Source\PSoC5/CAN.c ****     #if (CY_PSOC3 || CY_PSOC5)
1188:Generated_Source\PSoC5/CAN.c ****         /* Get state of transmit error flag */
1189:Generated_Source\PSoC5/CAN.c ****         return (((CAN_ERR_SR_REG.byte[2u] & CAN_TX_ERROR_FLAG_MASK) ==
 1579              		.loc 1 1189 0
 1580 0004 064B     		ldr	r3, .L119
 1581 0006 9B78     		ldrb	r3, [r3, #2]
 1582 0008 DBB2     		uxtb	r3, r3
 1583 000a 03F00403 		and	r3, r3, #4
 1584 000e 002B     		cmp	r3, #0
 1585 0010 01D0     		beq	.L116
 1586              		.loc 1 1189 0 is_stmt 0 discriminator 1
ARM GAS  C:\Users\badea\AppData\Local\Temp\cc3YEltE.s 			page 50


 1587 0012 0123     		movs	r3, #1
 1588 0014 00E0     		b	.L117
 1589              	.L116:
 1590              		.loc 1 1189 0 discriminator 2
 1591 0016 0023     		movs	r3, #0
 1592              	.L117:
1190:Generated_Source\PSoC5/CAN.c ****                   CAN_TX_ERROR_FLAG_MASK) ? 1u : 0u);
1191:Generated_Source\PSoC5/CAN.c ****     #else  /* CY_PSOC4 */
1192:Generated_Source\PSoC5/CAN.c ****         /* Get state of transmit error flag */
1193:Generated_Source\PSoC5/CAN.c ****         return (((CAN_ERR_SR_REG & CAN_TX_ERROR_FLAG_MASK) ==
1194:Generated_Source\PSoC5/CAN.c ****                   CAN_TX_ERROR_FLAG_MASK) ? 1u : 0u);
1195:Generated_Source\PSoC5/CAN.c ****     #endif /* CY_PSOC3 || CY_PSOC5 */
1196:Generated_Source\PSoC5/CAN.c **** 
1197:Generated_Source\PSoC5/CAN.c **** }
 1593              		.loc 1 1197 0 is_stmt 1 discriminator 4
 1594 0018 1846     		mov	r0, r3
 1595 001a BD46     		mov	sp, r7
 1596              		.cfi_def_cfa_register 13
 1597              		@ sp needed
 1598 001c 80BC     		pop	{r7}
 1599              		.cfi_restore 7
 1600              		.cfi_def_cfa_offset 0
 1601 001e 7047     		bx	lr
 1602              	.L120:
 1603              		.align	2
 1604              	.L119:
 1605 0020 0CA00040 		.word	1073782796
 1606              		.cfi_endproc
 1607              	.LFE15:
 1608              		.size	CAN_GetTXErrorFlag, .-CAN_GetTXErrorFlag
 1609              		.section	.text.CAN_GetRXErrorFlag,"ax",%progbits
 1610              		.align	2
 1611              		.global	CAN_GetRXErrorFlag
 1612              		.thumb
 1613              		.thumb_func
 1614              		.type	CAN_GetRXErrorFlag, %function
 1615              	CAN_GetRXErrorFlag:
 1616              	.LFB16:
1198:Generated_Source\PSoC5/CAN.c **** 
1199:Generated_Source\PSoC5/CAN.c **** 
1200:Generated_Source\PSoC5/CAN.c **** /*******************************************************************************
1201:Generated_Source\PSoC5/CAN.c **** * FUNCTION NAME:   CAN_GetRXErrorFlag
1202:Generated_Source\PSoC5/CAN.c **** ********************************************************************************
1203:Generated_Source\PSoC5/CAN.c **** *
1204:Generated_Source\PSoC5/CAN.c **** * Summary:
1205:Generated_Source\PSoC5/CAN.c **** *  This function returns the bit that indicates if the number of RX errors
1206:Generated_Source\PSoC5/CAN.c **** *  exceeds 0x60.
1207:Generated_Source\PSoC5/CAN.c **** *
1208:Generated_Source\PSoC5/CAN.c **** * Parameters:
1209:Generated_Source\PSoC5/CAN.c **** *  None.
1210:Generated_Source\PSoC5/CAN.c **** *
1211:Generated_Source\PSoC5/CAN.c **** * Return:
1212:Generated_Source\PSoC5/CAN.c **** *  The indication whether the number of TX errors exceeds 0x60.
1213:Generated_Source\PSoC5/CAN.c **** *
1214:Generated_Source\PSoC5/CAN.c **** *******************************************************************************/
1215:Generated_Source\PSoC5/CAN.c **** uint8 CAN_GetRXErrorFlag(void) 
1216:Generated_Source\PSoC5/CAN.c **** {
ARM GAS  C:\Users\badea\AppData\Local\Temp\cc3YEltE.s 			page 51


 1617              		.loc 1 1216 0
 1618              		.cfi_startproc
 1619              		@ args = 0, pretend = 0, frame = 0
 1620              		@ frame_needed = 1, uses_anonymous_args = 0
 1621              		@ link register save eliminated.
 1622 0000 80B4     		push	{r7}
 1623              		.cfi_def_cfa_offset 4
 1624              		.cfi_offset 7, -4
 1625 0002 00AF     		add	r7, sp, #0
 1626              		.cfi_def_cfa_register 7
1217:Generated_Source\PSoC5/CAN.c ****     #if (CY_PSOC3 || CY_PSOC5)
1218:Generated_Source\PSoC5/CAN.c ****         /* Get state of receive error flag */
1219:Generated_Source\PSoC5/CAN.c ****         return (((CAN_ERR_SR_REG.byte[2u] & CAN_RX_ERROR_FLAG_MASK) ==
 1627              		.loc 1 1219 0
 1628 0004 064B     		ldr	r3, .L125
 1629 0006 9B78     		ldrb	r3, [r3, #2]
 1630 0008 DBB2     		uxtb	r3, r3
 1631 000a 03F00803 		and	r3, r3, #8
 1632 000e 002B     		cmp	r3, #0
 1633 0010 01D0     		beq	.L122
 1634              		.loc 1 1219 0 is_stmt 0 discriminator 1
 1635 0012 0123     		movs	r3, #1
 1636 0014 00E0     		b	.L123
 1637              	.L122:
 1638              		.loc 1 1219 0 discriminator 2
 1639 0016 0023     		movs	r3, #0
 1640              	.L123:
1220:Generated_Source\PSoC5/CAN.c ****                   CAN_RX_ERROR_FLAG_MASK) ? 1u : 0u);
1221:Generated_Source\PSoC5/CAN.c ****     #else  /* CY_PSOC4 */
1222:Generated_Source\PSoC5/CAN.c ****         /* Get state of receive error flag */
1223:Generated_Source\PSoC5/CAN.c ****         return (((CAN_ERR_SR_REG & CAN_RX_ERROR_FLAG_MASK) ==
1224:Generated_Source\PSoC5/CAN.c ****                   CAN_RX_ERROR_FLAG_MASK) ? 1u : 0u);
1225:Generated_Source\PSoC5/CAN.c ****     #endif /* CY_PSOC3 || CY_PSOC5 */
1226:Generated_Source\PSoC5/CAN.c **** 
1227:Generated_Source\PSoC5/CAN.c **** }
 1641              		.loc 1 1227 0 is_stmt 1 discriminator 4
 1642 0018 1846     		mov	r0, r3
 1643 001a BD46     		mov	sp, r7
 1644              		.cfi_def_cfa_register 13
 1645              		@ sp needed
 1646 001c 80BC     		pop	{r7}
 1647              		.cfi_restore 7
 1648              		.cfi_def_cfa_offset 0
 1649 001e 7047     		bx	lr
 1650              	.L126:
 1651              		.align	2
 1652              	.L125:
 1653 0020 0CA00040 		.word	1073782796
 1654              		.cfi_endproc
 1655              	.LFE16:
 1656              		.size	CAN_GetRXErrorFlag, .-CAN_GetRXErrorFlag
 1657              		.section	.text.CAN_GetTXErrorCount,"ax",%progbits
 1658              		.align	2
 1659              		.global	CAN_GetTXErrorCount
 1660              		.thumb
 1661              		.thumb_func
 1662              		.type	CAN_GetTXErrorCount, %function
ARM GAS  C:\Users\badea\AppData\Local\Temp\cc3YEltE.s 			page 52


 1663              	CAN_GetTXErrorCount:
 1664              	.LFB17:
1228:Generated_Source\PSoC5/CAN.c **** 
1229:Generated_Source\PSoC5/CAN.c **** 
1230:Generated_Source\PSoC5/CAN.c **** /*******************************************************************************
1231:Generated_Source\PSoC5/CAN.c **** * FUNCTION NAME:   CAN_GetTXErrorCount
1232:Generated_Source\PSoC5/CAN.c **** ********************************************************************************
1233:Generated_Source\PSoC5/CAN.c **** *
1234:Generated_Source\PSoC5/CAN.c **** * Summary:
1235:Generated_Source\PSoC5/CAN.c **** *  This function returns the number of Transmit Errors.
1236:Generated_Source\PSoC5/CAN.c **** *
1237:Generated_Source\PSoC5/CAN.c **** * Parameters:
1238:Generated_Source\PSoC5/CAN.c **** *  None.
1239:Generated_Source\PSoC5/CAN.c **** *
1240:Generated_Source\PSoC5/CAN.c **** * Return:
1241:Generated_Source\PSoC5/CAN.c **** *  The number of Transmit Errors.
1242:Generated_Source\PSoC5/CAN.c **** *
1243:Generated_Source\PSoC5/CAN.c **** *******************************************************************************/
1244:Generated_Source\PSoC5/CAN.c **** uint8 CAN_GetTXErrorCount(void) 
1245:Generated_Source\PSoC5/CAN.c **** {
 1665              		.loc 1 1245 0
 1666              		.cfi_startproc
 1667              		@ args = 0, pretend = 0, frame = 0
 1668              		@ frame_needed = 1, uses_anonymous_args = 0
 1669              		@ link register save eliminated.
 1670 0000 80B4     		push	{r7}
 1671              		.cfi_def_cfa_offset 4
 1672              		.cfi_offset 7, -4
 1673 0002 00AF     		add	r7, sp, #0
 1674              		.cfi_def_cfa_register 7
1246:Generated_Source\PSoC5/CAN.c ****     #if (CY_PSOC3 || CY_PSOC5)
1247:Generated_Source\PSoC5/CAN.c ****         /* Get state of transmit error count */
1248:Generated_Source\PSoC5/CAN.c ****         return (CAN_ERR_SR_REG.byte[0u]);    /* bits 7-0 */
 1675              		.loc 1 1248 0
 1676 0004 034B     		ldr	r3, .L129
 1677 0006 1B78     		ldrb	r3, [r3]
 1678 0008 DBB2     		uxtb	r3, r3
1249:Generated_Source\PSoC5/CAN.c ****     #else  /* CY_PSOC4 */
1250:Generated_Source\PSoC5/CAN.c ****         /* Get state of transmit error count */
1251:Generated_Source\PSoC5/CAN.c ****         return ((uint8) CAN_ERR_SR_REG);    /* bits 7-0 */
1252:Generated_Source\PSoC5/CAN.c ****     #endif /* CY_PSOC3 || CY_PSOC5 */
1253:Generated_Source\PSoC5/CAN.c **** }
 1679              		.loc 1 1253 0
 1680 000a 1846     		mov	r0, r3
 1681 000c BD46     		mov	sp, r7
 1682              		.cfi_def_cfa_register 13
 1683              		@ sp needed
 1684 000e 80BC     		pop	{r7}
 1685              		.cfi_restore 7
 1686              		.cfi_def_cfa_offset 0
 1687 0010 7047     		bx	lr
 1688              	.L130:
 1689 0012 00BF     		.align	2
 1690              	.L129:
 1691 0014 0CA00040 		.word	1073782796
 1692              		.cfi_endproc
 1693              	.LFE17:
ARM GAS  C:\Users\badea\AppData\Local\Temp\cc3YEltE.s 			page 53


 1694              		.size	CAN_GetTXErrorCount, .-CAN_GetTXErrorCount
 1695              		.section	.text.CAN_GetRXErrorCount,"ax",%progbits
 1696              		.align	2
 1697              		.global	CAN_GetRXErrorCount
 1698              		.thumb
 1699              		.thumb_func
 1700              		.type	CAN_GetRXErrorCount, %function
 1701              	CAN_GetRXErrorCount:
 1702              	.LFB18:
1254:Generated_Source\PSoC5/CAN.c **** 
1255:Generated_Source\PSoC5/CAN.c **** 
1256:Generated_Source\PSoC5/CAN.c **** /*******************************************************************************
1257:Generated_Source\PSoC5/CAN.c **** * FUNCTION NAME:   CAN_GetRXErrorCount
1258:Generated_Source\PSoC5/CAN.c **** ********************************************************************************
1259:Generated_Source\PSoC5/CAN.c **** *
1260:Generated_Source\PSoC5/CAN.c **** * Summary:
1261:Generated_Source\PSoC5/CAN.c **** *  This function returns the number of Receive Errors.
1262:Generated_Source\PSoC5/CAN.c **** *
1263:Generated_Source\PSoC5/CAN.c **** * Parameters:
1264:Generated_Source\PSoC5/CAN.c **** *  None.
1265:Generated_Source\PSoC5/CAN.c **** *
1266:Generated_Source\PSoC5/CAN.c **** * Return:
1267:Generated_Source\PSoC5/CAN.c **** *  The number of Receive Errors.
1268:Generated_Source\PSoC5/CAN.c **** *
1269:Generated_Source\PSoC5/CAN.c **** *******************************************************************************/
1270:Generated_Source\PSoC5/CAN.c **** uint8 CAN_GetRXErrorCount(void) 
1271:Generated_Source\PSoC5/CAN.c **** {
 1703              		.loc 1 1271 0
 1704              		.cfi_startproc
 1705              		@ args = 0, pretend = 0, frame = 0
 1706              		@ frame_needed = 1, uses_anonymous_args = 0
 1707              		@ link register save eliminated.
 1708 0000 80B4     		push	{r7}
 1709              		.cfi_def_cfa_offset 4
 1710              		.cfi_offset 7, -4
 1711 0002 00AF     		add	r7, sp, #0
 1712              		.cfi_def_cfa_register 7
1272:Generated_Source\PSoC5/CAN.c ****     #if (CY_PSOC3 || CY_PSOC5)
1273:Generated_Source\PSoC5/CAN.c ****         /* Get state of receive error count */
1274:Generated_Source\PSoC5/CAN.c ****         return (CAN_ERR_SR_REG.byte[1u]);    /* bits 15-8 */
 1713              		.loc 1 1274 0
 1714 0004 034B     		ldr	r3, .L133
 1715 0006 5B78     		ldrb	r3, [r3, #1]
 1716 0008 DBB2     		uxtb	r3, r3
1275:Generated_Source\PSoC5/CAN.c ****     #else  /* CY_PSOC4 */
1276:Generated_Source\PSoC5/CAN.c ****         /* Get state of receive error count (bits 15-8) */
1277:Generated_Source\PSoC5/CAN.c ****         return ((uint8) (CAN_ERR_SR_REG >> CAN_ONE_BYTE_OFFSET));
1278:Generated_Source\PSoC5/CAN.c ****     #endif /* CY_PSOC3 || CY_PSOC5 */
1279:Generated_Source\PSoC5/CAN.c **** 
1280:Generated_Source\PSoC5/CAN.c **** }
 1717              		.loc 1 1280 0
 1718 000a 1846     		mov	r0, r3
 1719 000c BD46     		mov	sp, r7
 1720              		.cfi_def_cfa_register 13
 1721              		@ sp needed
 1722 000e 80BC     		pop	{r7}
 1723              		.cfi_restore 7
ARM GAS  C:\Users\badea\AppData\Local\Temp\cc3YEltE.s 			page 54


 1724              		.cfi_def_cfa_offset 0
 1725 0010 7047     		bx	lr
 1726              	.L134:
 1727 0012 00BF     		.align	2
 1728              	.L133:
 1729 0014 0CA00040 		.word	1073782796
 1730              		.cfi_endproc
 1731              	.LFE18:
 1732              		.size	CAN_GetRXErrorCount, .-CAN_GetRXErrorCount
 1733              		.section	.text.CAN_GetErrorState,"ax",%progbits
 1734              		.align	2
 1735              		.global	CAN_GetErrorState
 1736              		.thumb
 1737              		.thumb_func
 1738              		.type	CAN_GetErrorState, %function
 1739              	CAN_GetErrorState:
 1740              	.LFB19:
1281:Generated_Source\PSoC5/CAN.c **** 
1282:Generated_Source\PSoC5/CAN.c **** 
1283:Generated_Source\PSoC5/CAN.c **** /*******************************************************************************
1284:Generated_Source\PSoC5/CAN.c **** * FUNCTION NAME:   CAN_GetErrorState
1285:Generated_Source\PSoC5/CAN.c **** ********************************************************************************
1286:Generated_Source\PSoC5/CAN.c **** *
1287:Generated_Source\PSoC5/CAN.c **** * Summary:
1288:Generated_Source\PSoC5/CAN.c **** *  This function returns the error status of CAN Component.
1289:Generated_Source\PSoC5/CAN.c **** *
1290:Generated_Source\PSoC5/CAN.c **** * Parameters:
1291:Generated_Source\PSoC5/CAN.c **** *  None.
1292:Generated_Source\PSoC5/CAN.c **** *
1293:Generated_Source\PSoC5/CAN.c **** * Return:
1294:Generated_Source\PSoC5/CAN.c **** *  The error status.
1295:Generated_Source\PSoC5/CAN.c **** *
1296:Generated_Source\PSoC5/CAN.c **** *******************************************************************************/
1297:Generated_Source\PSoC5/CAN.c **** uint8 CAN_GetErrorState(void) 
1298:Generated_Source\PSoC5/CAN.c **** {
 1741              		.loc 1 1298 0
 1742              		.cfi_startproc
 1743              		@ args = 0, pretend = 0, frame = 0
 1744              		@ frame_needed = 1, uses_anonymous_args = 0
 1745              		@ link register save eliminated.
 1746 0000 80B4     		push	{r7}
 1747              		.cfi_def_cfa_offset 4
 1748              		.cfi_offset 7, -4
 1749 0002 00AF     		add	r7, sp, #0
 1750              		.cfi_def_cfa_register 7
1299:Generated_Source\PSoC5/CAN.c ****     #if (CY_PSOC3 || CY_PSOC5)
1300:Generated_Source\PSoC5/CAN.c ****         /* Get error state of receiver */
1301:Generated_Source\PSoC5/CAN.c ****         return (CAN_ERR_SR_REG.byte[2u] & CAN_ERROR_STATE_MASK);
 1751              		.loc 1 1301 0
 1752 0004 044B     		ldr	r3, .L137
 1753 0006 9B78     		ldrb	r3, [r3, #2]
 1754 0008 DBB2     		uxtb	r3, r3
 1755 000a 03F00303 		and	r3, r3, #3
 1756 000e DBB2     		uxtb	r3, r3
1302:Generated_Source\PSoC5/CAN.c ****     #else  /* CY_PSOC4 */
1303:Generated_Source\PSoC5/CAN.c ****         /* Get error state of receiver */
1304:Generated_Source\PSoC5/CAN.c ****         return ((uint8) ((CAN_ERR_SR_REG >> CAN_TWO_BYTE_OFFSET) &
ARM GAS  C:\Users\badea\AppData\Local\Temp\cc3YEltE.s 			page 55


1305:Generated_Source\PSoC5/CAN.c ****                 CAN_ERROR_STATE_MASK));
1306:Generated_Source\PSoC5/CAN.c ****     #endif /* CY_PSOC3 || CY_PSOC5 */
1307:Generated_Source\PSoC5/CAN.c **** }
 1757              		.loc 1 1307 0
 1758 0010 1846     		mov	r0, r3
 1759 0012 BD46     		mov	sp, r7
 1760              		.cfi_def_cfa_register 13
 1761              		@ sp needed
 1762 0014 80BC     		pop	{r7}
 1763              		.cfi_restore 7
 1764              		.cfi_def_cfa_offset 0
 1765 0016 7047     		bx	lr
 1766              	.L138:
 1767              		.align	2
 1768              	.L137:
 1769 0018 0CA00040 		.word	1073782796
 1770              		.cfi_endproc
 1771              	.LFE19:
 1772              		.size	CAN_GetErrorState, .-CAN_GetErrorState
 1773              		.section	.text.CAN_RxBufConfig,"ax",%progbits
 1774              		.align	2
 1775              		.global	CAN_RxBufConfig
 1776              		.thumb
 1777              		.thumb_func
 1778              		.type	CAN_RxBufConfig, %function
 1779              	CAN_RxBufConfig:
 1780              	.LFB20:
1308:Generated_Source\PSoC5/CAN.c **** 
1309:Generated_Source\PSoC5/CAN.c **** 
1310:Generated_Source\PSoC5/CAN.c **** /*******************************************************************************
1311:Generated_Source\PSoC5/CAN.c **** * FUNCTION NAME:   CAN_RxBufConfig
1312:Generated_Source\PSoC5/CAN.c **** ********************************************************************************
1313:Generated_Source\PSoC5/CAN.c **** *
1314:Generated_Source\PSoC5/CAN.c **** * Summary:
1315:Generated_Source\PSoC5/CAN.c **** *  This function configures all receive registers for a particular mailbox.
1316:Generated_Source\PSoC5/CAN.c **** *
1317:Generated_Source\PSoC5/CAN.c **** * Parameters:
1318:Generated_Source\PSoC5/CAN.c **** *  rxConfig: The pointer to a structure that contain all required values to
1319:Generated_Source\PSoC5/CAN.c **** *  configure all receive registers for a particular mailbox.
1320:Generated_Source\PSoC5/CAN.c **** *
1321:Generated_Source\PSoC5/CAN.c **** * Return:
1322:Generated_Source\PSoC5/CAN.c **** *  The indication if particular configuration has been accepted or rejected.
1323:Generated_Source\PSoC5/CAN.c **** *   Define                             Description
1324:Generated_Source\PSoC5/CAN.c **** *    CYRET_SUCCESS                      The function passed successfully
1325:Generated_Source\PSoC5/CAN.c **** *    CAN_FAIL              The function failed
1326:Generated_Source\PSoC5/CAN.c **** *
1327:Generated_Source\PSoC5/CAN.c **** *******************************************************************************/
1328:Generated_Source\PSoC5/CAN.c **** uint8 CAN_RxBufConfig(const CAN_RX_CFG *rxConfig)
1329:Generated_Source\PSoC5/CAN.c ****                                    
1330:Generated_Source\PSoC5/CAN.c **** {
 1781              		.loc 1 1330 0
 1782              		.cfi_startproc
 1783              		@ args = 0, pretend = 0, frame = 16
 1784              		@ frame_needed = 1, uses_anonymous_args = 0
 1785              		@ link register save eliminated.
 1786 0000 80B4     		push	{r7}
 1787              		.cfi_def_cfa_offset 4
ARM GAS  C:\Users\badea\AppData\Local\Temp\cc3YEltE.s 			page 56


 1788              		.cfi_offset 7, -4
 1789 0002 85B0     		sub	sp, sp, #20
 1790              		.cfi_def_cfa_offset 24
 1791 0004 00AF     		add	r7, sp, #0
 1792              		.cfi_def_cfa_register 7
 1793 0006 7860     		str	r0, [r7, #4]
1331:Generated_Source\PSoC5/CAN.c ****     uint8 result = CAN_FAIL;
 1794              		.loc 1 1331 0
 1795 0008 0123     		movs	r3, #1
 1796 000a FB73     		strb	r3, [r7, #15]
1332:Generated_Source\PSoC5/CAN.c **** 
1333:Generated_Source\PSoC5/CAN.c ****     /* Write RX CMD Register */
1334:Generated_Source\PSoC5/CAN.c ****     CY_SET_REG32((reg32 *) (&CAN_RX[rxConfig->rxmailbox].rxcmd), (rxConfig->rxcmd |
 1797              		.loc 1 1334 0
 1798 000c 7B68     		ldr	r3, [r7, #4]
 1799 000e 1B78     		ldrb	r3, [r3]	@ zero_extendqisi2
 1800 0010 5A01     		lsls	r2, r3, #5
 1801 0012 354B     		ldr	r3, .L142
 1802 0014 1344     		add	r3, r3, r2
 1803 0016 1A46     		mov	r2, r3
 1804 0018 7B68     		ldr	r3, [r7, #4]
 1805 001a 5B68     		ldr	r3, [r3, #4]
 1806 001c 43F08013 		orr	r3, r3, #8388736
 1807 0020 1360     		str	r3, [r2]
1335:Generated_Source\PSoC5/CAN.c ****                  CAN_RX_WPN_SET));
1336:Generated_Source\PSoC5/CAN.c ****     if ((CY_GET_REG32((reg32 *) (&CAN_RX[rxConfig->rxmailbox].rxcmd)) &
 1808              		.loc 1 1336 0
 1809 0022 7B68     		ldr	r3, [r7, #4]
 1810 0024 1B78     		ldrb	r3, [r3]	@ zero_extendqisi2
 1811 0026 5A01     		lsls	r2, r3, #5
 1812 0028 2F4B     		ldr	r3, .L142
 1813 002a 1344     		add	r3, r3, r2
 1814 002c 1B68     		ldr	r3, [r3]
 1815 002e 03F07F12 		and	r2, r3, #8323199
1337:Generated_Source\PSoC5/CAN.c ****          CAN_RX_READ_BACK_MASK) == (rxConfig->rxcmd & CAN_RX_WPN_CLEAR))
 1816              		.loc 1 1337 0
 1817 0032 7B68     		ldr	r3, [r7, #4]
 1818 0034 5B68     		ldr	r3, [r3, #4]
 1819 0036 23F08013 		bic	r3, r3, #8388736
1336:Generated_Source\PSoC5/CAN.c ****          CAN_RX_READ_BACK_MASK) == (rxConfig->rxcmd & CAN_RX_WPN_CLEAR))
 1820              		.loc 1 1336 0
 1821 003a 9A42     		cmp	r2, r3
 1822 003c 4DD1     		bne	.L140
1338:Generated_Source\PSoC5/CAN.c ****     {
1339:Generated_Source\PSoC5/CAN.c ****         /* Write RX AMR Register */
1340:Generated_Source\PSoC5/CAN.c ****         CY_SET_REG32((reg32 *) (&CAN_RX[rxConfig->rxmailbox].rxamr), rxConfig->rxamr);
 1823              		.loc 1 1340 0
 1824 003e 7B68     		ldr	r3, [r7, #4]
 1825 0040 1B78     		ldrb	r3, [r3]	@ zero_extendqisi2
 1826 0042 5A01     		lsls	r2, r3, #5
 1827 0044 284B     		ldr	r3, .L142
 1828 0046 1344     		add	r3, r3, r2
 1829 0048 1033     		adds	r3, r3, #16
 1830 004a 7A68     		ldr	r2, [r7, #4]
 1831 004c 9268     		ldr	r2, [r2, #8]
 1832 004e 1A60     		str	r2, [r3]
1341:Generated_Source\PSoC5/CAN.c ****         if (CY_GET_REG32((reg32 *) (&CAN_RX[rxConfig->rxmailbox].rxamr)) == rxConfig->rxamr)
ARM GAS  C:\Users\badea\AppData\Local\Temp\cc3YEltE.s 			page 57


 1833              		.loc 1 1341 0
 1834 0050 7B68     		ldr	r3, [r7, #4]
 1835 0052 1B78     		ldrb	r3, [r3]	@ zero_extendqisi2
 1836 0054 5A01     		lsls	r2, r3, #5
 1837 0056 244B     		ldr	r3, .L142
 1838 0058 1344     		add	r3, r3, r2
 1839 005a 1033     		adds	r3, r3, #16
 1840 005c 1A68     		ldr	r2, [r3]
 1841 005e 7B68     		ldr	r3, [r7, #4]
 1842 0060 9B68     		ldr	r3, [r3, #8]
 1843 0062 9A42     		cmp	r2, r3
 1844 0064 39D1     		bne	.L140
1342:Generated_Source\PSoC5/CAN.c ****         {
1343:Generated_Source\PSoC5/CAN.c ****             /* Write RX ACR Register */
1344:Generated_Source\PSoC5/CAN.c ****             CY_SET_REG32((reg32 *) (&CAN_RX[rxConfig->rxmailbox].rxacr), rxConfig->rxacr);
 1845              		.loc 1 1344 0
 1846 0066 7B68     		ldr	r3, [r7, #4]
 1847 0068 1B78     		ldrb	r3, [r3]	@ zero_extendqisi2
 1848 006a 5A01     		lsls	r2, r3, #5
 1849 006c 1E4B     		ldr	r3, .L142
 1850 006e 1344     		add	r3, r3, r2
 1851 0070 1433     		adds	r3, r3, #20
 1852 0072 7A68     		ldr	r2, [r7, #4]
 1853 0074 D268     		ldr	r2, [r2, #12]
 1854 0076 1A60     		str	r2, [r3]
1345:Generated_Source\PSoC5/CAN.c ****             if (CY_GET_REG32((reg32 *) (&CAN_RX[rxConfig->rxmailbox].rxacr)) == rxConfig->rxacr)
 1855              		.loc 1 1345 0
 1856 0078 7B68     		ldr	r3, [r7, #4]
 1857 007a 1B78     		ldrb	r3, [r3]	@ zero_extendqisi2
 1858 007c 5A01     		lsls	r2, r3, #5
 1859 007e 1A4B     		ldr	r3, .L142
 1860 0080 1344     		add	r3, r3, r2
 1861 0082 1433     		adds	r3, r3, #20
 1862 0084 1A68     		ldr	r2, [r3]
 1863 0086 7B68     		ldr	r3, [r7, #4]
 1864 0088 DB68     		ldr	r3, [r3, #12]
 1865 008a 9A42     		cmp	r2, r3
 1866 008c 25D1     		bne	.L140
1346:Generated_Source\PSoC5/CAN.c ****             {
1347:Generated_Source\PSoC5/CAN.c ****                 /* Write RX AMRD Register */
1348:Generated_Source\PSoC5/CAN.c ****                 CY_SET_REG32((reg32 *) (&CAN_RX[rxConfig->rxmailbox].rxamrd), 0xFFFFFFFFu);
 1867              		.loc 1 1348 0
 1868 008e 7B68     		ldr	r3, [r7, #4]
 1869 0090 1B78     		ldrb	r3, [r3]	@ zero_extendqisi2
 1870 0092 5A01     		lsls	r2, r3, #5
 1871 0094 144B     		ldr	r3, .L142
 1872 0096 1344     		add	r3, r3, r2
 1873 0098 1833     		adds	r3, r3, #24
 1874 009a 4FF0FF32 		mov	r2, #-1
 1875 009e 1A60     		str	r2, [r3]
1349:Generated_Source\PSoC5/CAN.c ****                 if (CY_GET_REG32((reg32 *) (&CAN_RX[rxConfig->rxmailbox].rxamrd)) == 0xFFFFFFFFu)
 1876              		.loc 1 1349 0
 1877 00a0 7B68     		ldr	r3, [r7, #4]
 1878 00a2 1B78     		ldrb	r3, [r3]	@ zero_extendqisi2
 1879 00a4 5A01     		lsls	r2, r3, #5
 1880 00a6 104B     		ldr	r3, .L142
 1881 00a8 1344     		add	r3, r3, r2
ARM GAS  C:\Users\badea\AppData\Local\Temp\cc3YEltE.s 			page 58


 1882 00aa 1833     		adds	r3, r3, #24
 1883 00ac 1B68     		ldr	r3, [r3]
 1884 00ae B3F1FF3F 		cmp	r3, #-1
 1885 00b2 12D1     		bne	.L140
1350:Generated_Source\PSoC5/CAN.c ****                 {
1351:Generated_Source\PSoC5/CAN.c ****                     /* Write RX ACRD Register */
1352:Generated_Source\PSoC5/CAN.c ****                     CY_SET_REG32((reg32 *) (&CAN_RX[rxConfig->rxmailbox].rxacrd), 0x00000000u);
 1886              		.loc 1 1352 0
 1887 00b4 7B68     		ldr	r3, [r7, #4]
 1888 00b6 1B78     		ldrb	r3, [r3]	@ zero_extendqisi2
 1889 00b8 5A01     		lsls	r2, r3, #5
 1890 00ba 0B4B     		ldr	r3, .L142
 1891 00bc 1344     		add	r3, r3, r2
 1892 00be 1C33     		adds	r3, r3, #28
 1893 00c0 0022     		movs	r2, #0
 1894 00c2 1A60     		str	r2, [r3]
1353:Generated_Source\PSoC5/CAN.c ****                     if (CY_GET_REG32((reg32 *) (&CAN_RX[rxConfig->rxmailbox].rxacrd)) == 0x00000000
 1895              		.loc 1 1353 0
 1896 00c4 7B68     		ldr	r3, [r7, #4]
 1897 00c6 1B78     		ldrb	r3, [r3]	@ zero_extendqisi2
 1898 00c8 5A01     		lsls	r2, r3, #5
 1899 00ca 074B     		ldr	r3, .L142
 1900 00cc 1344     		add	r3, r3, r2
 1901 00ce 1C33     		adds	r3, r3, #28
 1902 00d0 1B68     		ldr	r3, [r3]
 1903 00d2 002B     		cmp	r3, #0
 1904 00d4 01D1     		bne	.L140
1354:Generated_Source\PSoC5/CAN.c ****                     {
1355:Generated_Source\PSoC5/CAN.c ****                         result = CYRET_SUCCESS;
 1905              		.loc 1 1355 0
 1906 00d6 0023     		movs	r3, #0
 1907 00d8 FB73     		strb	r3, [r7, #15]
 1908              	.L140:
1356:Generated_Source\PSoC5/CAN.c ****                     }
1357:Generated_Source\PSoC5/CAN.c ****                 }
1358:Generated_Source\PSoC5/CAN.c ****             }
1359:Generated_Source\PSoC5/CAN.c ****         }
1360:Generated_Source\PSoC5/CAN.c ****     }
1361:Generated_Source\PSoC5/CAN.c **** 
1362:Generated_Source\PSoC5/CAN.c ****     return (result);
 1909              		.loc 1 1362 0
 1910 00da FB7B     		ldrb	r3, [r7, #15]	@ zero_extendqisi2
1363:Generated_Source\PSoC5/CAN.c **** }
 1911              		.loc 1 1363 0
 1912 00dc 1846     		mov	r0, r3
 1913 00de 1437     		adds	r7, r7, #20
 1914              		.cfi_def_cfa_offset 4
 1915 00e0 BD46     		mov	sp, r7
 1916              		.cfi_def_cfa_register 13
 1917              		@ sp needed
 1918 00e2 80BC     		pop	{r7}
 1919              		.cfi_restore 7
 1920              		.cfi_def_cfa_offset 0
 1921 00e4 7047     		bx	lr
 1922              	.L143:
 1923 00e6 00BF     		.align	2
 1924              	.L142:
ARM GAS  C:\Users\badea\AppData\Local\Temp\cc3YEltE.s 			page 59


 1925 00e8 A0A00040 		.word	1073782944
 1926              		.cfi_endproc
 1927              	.LFE20:
 1928              		.size	CAN_RxBufConfig, .-CAN_RxBufConfig
 1929              		.section	.text.CAN_TxBufConfig,"ax",%progbits
 1930              		.align	2
 1931              		.global	CAN_TxBufConfig
 1932              		.thumb
 1933              		.thumb_func
 1934              		.type	CAN_TxBufConfig, %function
 1935              	CAN_TxBufConfig:
 1936              	.LFB21:
1364:Generated_Source\PSoC5/CAN.c **** 
1365:Generated_Source\PSoC5/CAN.c **** 
1366:Generated_Source\PSoC5/CAN.c **** /*******************************************************************************
1367:Generated_Source\PSoC5/CAN.c **** * FUNCTION NAME:   CAN_TxBufConfig
1368:Generated_Source\PSoC5/CAN.c **** ********************************************************************************
1369:Generated_Source\PSoC5/CAN.c **** *
1370:Generated_Source\PSoC5/CAN.c **** * Summary:
1371:Generated_Source\PSoC5/CAN.c **** *  This function configures all transmit registers for a particular mailbox.
1372:Generated_Source\PSoC5/CAN.c **** *  Mailbox number contains CAN_TX_CFG structure.
1373:Generated_Source\PSoC5/CAN.c **** *
1374:Generated_Source\PSoC5/CAN.c **** * Parameters:
1375:Generated_Source\PSoC5/CAN.c **** *  txConfig: The pointer to structure that contain all required values to
1376:Generated_Source\PSoC5/CAN.c **** *  configure all transmit registers for a particular mailbox.
1377:Generated_Source\PSoC5/CAN.c **** *
1378:Generated_Source\PSoC5/CAN.c **** * Return:
1379:Generated_Source\PSoC5/CAN.c **** *  The indication if particular configuration has been accepted or rejected.
1380:Generated_Source\PSoC5/CAN.c **** *   Define                             Description
1381:Generated_Source\PSoC5/CAN.c **** *    CYRET_SUCCESS                      The function passed successfully
1382:Generated_Source\PSoC5/CAN.c **** *    CAN_FAIL              The function failed
1383:Generated_Source\PSoC5/CAN.c **** *
1384:Generated_Source\PSoC5/CAN.c **** *******************************************************************************/
1385:Generated_Source\PSoC5/CAN.c **** uint8 CAN_TxBufConfig(const CAN_TX_CFG *txConfig)
1386:Generated_Source\PSoC5/CAN.c ****                                    
1387:Generated_Source\PSoC5/CAN.c **** {
 1937              		.loc 1 1387 0
 1938              		.cfi_startproc
 1939              		@ args = 0, pretend = 0, frame = 16
 1940              		@ frame_needed = 1, uses_anonymous_args = 0
 1941              		@ link register save eliminated.
 1942 0000 80B4     		push	{r7}
 1943              		.cfi_def_cfa_offset 4
 1944              		.cfi_offset 7, -4
 1945 0002 85B0     		sub	sp, sp, #20
 1946              		.cfi_def_cfa_offset 24
 1947 0004 00AF     		add	r7, sp, #0
 1948              		.cfi_def_cfa_register 7
 1949 0006 7860     		str	r0, [r7, #4]
1388:Generated_Source\PSoC5/CAN.c ****     uint8 result = CAN_FAIL;
 1950              		.loc 1 1388 0
 1951 0008 0123     		movs	r3, #1
 1952 000a FB73     		strb	r3, [r7, #15]
1389:Generated_Source\PSoC5/CAN.c **** 
1390:Generated_Source\PSoC5/CAN.c ****     /* Write TX CMD Register */
1391:Generated_Source\PSoC5/CAN.c ****     CY_SET_REG32(CAN_TX_CMD_PTR(txConfig->txmailbox), (txConfig->txcmd | CAN_TX_WPN_SET));
 1953              		.loc 1 1391 0
ARM GAS  C:\Users\badea\AppData\Local\Temp\cc3YEltE.s 			page 60


 1954 000c 7B68     		ldr	r3, [r7, #4]
 1955 000e 1B78     		ldrb	r3, [r3]	@ zero_extendqisi2
 1956 0010 1A01     		lsls	r2, r3, #4
 1957 0012 1B4B     		ldr	r3, .L147
 1958 0014 1344     		add	r3, r3, r2
 1959 0016 1A46     		mov	r2, r3
 1960 0018 7B68     		ldr	r3, [r7, #4]
 1961 001a 5B68     		ldr	r3, [r3, #4]
 1962 001c 43F40003 		orr	r3, r3, #8388608
 1963 0020 43F00803 		orr	r3, r3, #8
 1964 0024 1360     		str	r3, [r2]
1392:Generated_Source\PSoC5/CAN.c ****     if ((CY_GET_REG32(CAN_TX_CMD_PTR(txConfig->txmailbox)) &
 1965              		.loc 1 1392 0
 1966 0026 7B68     		ldr	r3, [r7, #4]
 1967 0028 1B78     		ldrb	r3, [r3]	@ zero_extendqisi2
 1968 002a 1A01     		lsls	r2, r3, #4
 1969 002c 144B     		ldr	r3, .L147
 1970 002e 1344     		add	r3, r3, r2
 1971 0030 1B68     		ldr	r3, [r3]
 1972 0032 144A     		ldr	r2, .L147+4
 1973 0034 1A40     		ands	r2, r2, r3
1393:Generated_Source\PSoC5/CAN.c ****         CAN_TX_READ_BACK_MASK) == (txConfig->txcmd & CAN_TX_WPN_CLEAR))
 1974              		.loc 1 1393 0
 1975 0036 7B68     		ldr	r3, [r7, #4]
 1976 0038 5B68     		ldr	r3, [r3, #4]
 1977 003a 23F40003 		bic	r3, r3, #8388608
 1978 003e 23F00803 		bic	r3, r3, #8
1392:Generated_Source\PSoC5/CAN.c ****     if ((CY_GET_REG32(CAN_TX_CMD_PTR(txConfig->txmailbox)) &
 1979              		.loc 1 1392 0
 1980 0042 9A42     		cmp	r2, r3
 1981 0044 15D1     		bne	.L145
1394:Generated_Source\PSoC5/CAN.c ****     {
1395:Generated_Source\PSoC5/CAN.c ****         /* Write TX ID Register */
1396:Generated_Source\PSoC5/CAN.c ****         CY_SET_REG32(CAN_TX_ID_PTR(txConfig->txmailbox), txConfig->txid);
 1982              		.loc 1 1396 0
 1983 0046 7B68     		ldr	r3, [r7, #4]
 1984 0048 1B78     		ldrb	r3, [r3]	@ zero_extendqisi2
 1985 004a 1A01     		lsls	r2, r3, #4
 1986 004c 0C4B     		ldr	r3, .L147
 1987 004e 1344     		add	r3, r3, r2
 1988 0050 0433     		adds	r3, r3, #4
 1989 0052 7A68     		ldr	r2, [r7, #4]
 1990 0054 9268     		ldr	r2, [r2, #8]
 1991 0056 1A60     		str	r2, [r3]
1397:Generated_Source\PSoC5/CAN.c ****         if (CY_GET_REG32(CAN_TX_ID_PTR(txConfig->txmailbox)) == txConfig->txid)
 1992              		.loc 1 1397 0
 1993 0058 7B68     		ldr	r3, [r7, #4]
 1994 005a 1B78     		ldrb	r3, [r3]	@ zero_extendqisi2
 1995 005c 1A01     		lsls	r2, r3, #4
 1996 005e 084B     		ldr	r3, .L147
 1997 0060 1344     		add	r3, r3, r2
 1998 0062 0433     		adds	r3, r3, #4
 1999 0064 1A68     		ldr	r2, [r3]
 2000 0066 7B68     		ldr	r3, [r7, #4]
 2001 0068 9B68     		ldr	r3, [r3, #8]
 2002 006a 9A42     		cmp	r2, r3
 2003 006c 01D1     		bne	.L145
ARM GAS  C:\Users\badea\AppData\Local\Temp\cc3YEltE.s 			page 61


1398:Generated_Source\PSoC5/CAN.c ****         {
1399:Generated_Source\PSoC5/CAN.c ****             result = CYRET_SUCCESS;
 2004              		.loc 1 1399 0
 2005 006e 0023     		movs	r3, #0
 2006 0070 FB73     		strb	r3, [r7, #15]
 2007              	.L145:
1400:Generated_Source\PSoC5/CAN.c ****         }
1401:Generated_Source\PSoC5/CAN.c ****     }
1402:Generated_Source\PSoC5/CAN.c **** 
1403:Generated_Source\PSoC5/CAN.c ****     return (result);
 2008              		.loc 1 1403 0
 2009 0072 FB7B     		ldrb	r3, [r7, #15]	@ zero_extendqisi2
1404:Generated_Source\PSoC5/CAN.c **** }
 2010              		.loc 1 1404 0
 2011 0074 1846     		mov	r0, r3
 2012 0076 1437     		adds	r7, r7, #20
 2013              		.cfi_def_cfa_offset 4
 2014 0078 BD46     		mov	sp, r7
 2015              		.cfi_def_cfa_register 13
 2016              		@ sp needed
 2017 007a 80BC     		pop	{r7}
 2018              		.cfi_restore 7
 2019              		.cfi_def_cfa_offset 0
 2020 007c 7047     		bx	lr
 2021              	.L148:
 2022 007e 00BF     		.align	2
 2023              	.L147:
 2024 0080 20A00040 		.word	1073782816
 2025 0084 F7007F00 		.word	8323319
 2026              		.cfi_endproc
 2027              	.LFE21:
 2028              		.size	CAN_TxBufConfig, .-CAN_TxBufConfig
 2029              		.section	.rodata
 2030              		.align	2
 2031              		.type	CAN_TXConfigStruct.5045, %object
 2032              		.size	CAN_TXConfigStruct.5045, 96
 2033              	CAN_TXConfigStruct.5045:
 2034 0000 00       		.byte	0
 2035 0001 000000   		.space	3
 2036 0004 00000400 		.word	262144
 2037 0008 0000E019 		.word	434110464
 2038 000c 01       		.byte	1
 2039 000d 000000   		.space	3
 2040 0010 00000000 		.word	0
 2041 0014 00000000 		.word	0
 2042 0018 02       		.byte	2
 2043 0019 000000   		.space	3
 2044 001c 00000000 		.word	0
 2045 0020 00000000 		.word	0
 2046 0024 03       		.byte	3
 2047 0025 000000   		.space	3
 2048 0028 00000000 		.word	0
 2049 002c 00000000 		.word	0
 2050 0030 04       		.byte	4
 2051 0031 000000   		.space	3
 2052 0034 00000000 		.word	0
 2053 0038 00000000 		.word	0
ARM GAS  C:\Users\badea\AppData\Local\Temp\cc3YEltE.s 			page 62


 2054 003c 05       		.byte	5
 2055 003d 000000   		.space	3
 2056 0040 00000000 		.word	0
 2057 0044 00000000 		.word	0
 2058 0048 06       		.byte	6
 2059 0049 000000   		.space	3
 2060 004c 00000000 		.word	0
 2061 0050 00000000 		.word	0
 2062 0054 07       		.byte	7
 2063 0055 000000   		.space	3
 2064 0058 00000000 		.word	0
 2065 005c 00000000 		.word	0
 2066              		.align	2
 2067              		.type	CAN_RXConfigStruct.5044, %object
 2068              		.size	CAN_RXConfigStruct.5044, 256
 2069              	CAN_RXConfigStruct.5044:
 2070 0060 00       		.byte	0
 2071 0061 000000   		.space	3
 2072 0064 28000000 		.word	40
 2073 0068 F9FF1F00 		.word	2097145
 2074 006c 0000007D 		.word	2097152000
 2075 0070 01       		.byte	1
 2076 0071 000000   		.space	3
 2077 0074 00000000 		.word	0
 2078 0078 00000000 		.word	0
 2079 007c 00000000 		.word	0
 2080 0080 02       		.byte	2
 2081 0081 000000   		.space	3
 2082 0084 00000000 		.word	0
 2083 0088 00000000 		.word	0
 2084 008c 00000000 		.word	0
 2085 0090 03       		.byte	3
 2086 0091 000000   		.space	3
 2087 0094 00000000 		.word	0
 2088 0098 00000000 		.word	0
 2089 009c 00000000 		.word	0
 2090 00a0 04       		.byte	4
 2091 00a1 000000   		.space	3
 2092 00a4 00000000 		.word	0
 2093 00a8 00000000 		.word	0
 2094 00ac 00000000 		.word	0
 2095 00b0 05       		.byte	5
 2096 00b1 000000   		.space	3
 2097 00b4 00000000 		.word	0
 2098 00b8 00000000 		.word	0
 2099 00bc 00000000 		.word	0
 2100 00c0 06       		.byte	6
 2101 00c1 000000   		.space	3
 2102 00c4 00000000 		.word	0
 2103 00c8 00000000 		.word	0
 2104 00cc 00000000 		.word	0
 2105 00d0 07       		.byte	7
 2106 00d1 000000   		.space	3
 2107 00d4 00000000 		.word	0
 2108 00d8 00000000 		.word	0
 2109 00dc 00000000 		.word	0
 2110 00e0 08       		.byte	8
ARM GAS  C:\Users\badea\AppData\Local\Temp\cc3YEltE.s 			page 63


 2111 00e1 000000   		.space	3
 2112 00e4 00000000 		.word	0
 2113 00e8 00000000 		.word	0
 2114 00ec 00000000 		.word	0
 2115 00f0 09       		.byte	9
 2116 00f1 000000   		.space	3
 2117 00f4 00000000 		.word	0
 2118 00f8 00000000 		.word	0
 2119 00fc 00000000 		.word	0
 2120 0100 0A       		.byte	10
 2121 0101 000000   		.space	3
 2122 0104 00000000 		.word	0
 2123 0108 00000000 		.word	0
 2124 010c 00000000 		.word	0
 2125 0110 0B       		.byte	11
 2126 0111 000000   		.space	3
 2127 0114 00000000 		.word	0
 2128 0118 00000000 		.word	0
 2129 011c 00000000 		.word	0
 2130 0120 0C       		.byte	12
 2131 0121 000000   		.space	3
 2132 0124 00000000 		.word	0
 2133 0128 00000000 		.word	0
 2134 012c 00000000 		.word	0
 2135 0130 0D       		.byte	13
 2136 0131 000000   		.space	3
 2137 0134 00000000 		.word	0
 2138 0138 00000000 		.word	0
 2139 013c 00000000 		.word	0
 2140 0140 0E       		.byte	14
 2141 0141 000000   		.space	3
 2142 0144 00000000 		.word	0
 2143 0148 00000000 		.word	0
 2144 014c 00000000 		.word	0
 2145 0150 0F       		.byte	15
 2146 0151 000000   		.space	3
 2147 0154 00000000 		.word	0
 2148 0158 00000000 		.word	0
 2149 015c 00000000 		.word	0
 2150              		.text
 2151              	.Letext0:
 2152              		.file 2 "Generated_Source\\PSoC5\\cytypes.h"
 2153              		.file 3 "Generated_Source\\PSoC5\\CAN.h"
 2154              		.section	.debug_info,"",%progbits
 2155              	.Ldebug_info0:
 2156 0000 84070000 		.4byte	0x784
 2157 0004 0400     		.2byte	0x4
 2158 0006 00000000 		.4byte	.Ldebug_abbrev0
 2159 000a 04       		.byte	0x4
 2160 000b 01       		.uleb128 0x1
 2161 000c 46000000 		.4byte	.LASF81
 2162 0010 0C       		.byte	0xc
 2163 0011 6E030000 		.4byte	.LASF82
 2164 0015 47020000 		.4byte	.LASF83
 2165 0019 00000000 		.4byte	.Ldebug_ranges0+0
 2166 001d 00000000 		.4byte	0
 2167 0021 00000000 		.4byte	.Ldebug_line0
ARM GAS  C:\Users\badea\AppData\Local\Temp\cc3YEltE.s 			page 64


 2168 0025 02       		.uleb128 0x2
 2169 0026 01       		.byte	0x1
 2170 0027 06       		.byte	0x6
 2171 0028 23010000 		.4byte	.LASF0
 2172 002c 02       		.uleb128 0x2
 2173 002d 01       		.byte	0x1
 2174 002e 08       		.byte	0x8
 2175 002f 2A030000 		.4byte	.LASF1
 2176 0033 02       		.uleb128 0x2
 2177 0034 02       		.byte	0x2
 2178 0035 05       		.byte	0x5
 2179 0036 38030000 		.4byte	.LASF2
 2180 003a 02       		.uleb128 0x2
 2181 003b 02       		.byte	0x2
 2182 003c 07       		.byte	0x7
 2183 003d DE010000 		.4byte	.LASF3
 2184 0041 02       		.uleb128 0x2
 2185 0042 04       		.byte	0x4
 2186 0043 05       		.byte	0x5
 2187 0044 4D010000 		.4byte	.LASF4
 2188 0048 02       		.uleb128 0x2
 2189 0049 04       		.byte	0x4
 2190 004a 07       		.byte	0x7
 2191 004b B6010000 		.4byte	.LASF5
 2192 004f 02       		.uleb128 0x2
 2193 0050 08       		.byte	0x8
 2194 0051 05       		.byte	0x5
 2195 0052 15010000 		.4byte	.LASF6
 2196 0056 02       		.uleb128 0x2
 2197 0057 08       		.byte	0x8
 2198 0058 07       		.byte	0x7
 2199 0059 DD000000 		.4byte	.LASF7
 2200 005d 03       		.uleb128 0x3
 2201 005e 04       		.byte	0x4
 2202 005f 05       		.byte	0x5
 2203 0060 696E7400 		.ascii	"int\000"
 2204 0064 02       		.uleb128 0x2
 2205 0065 04       		.byte	0x4
 2206 0066 07       		.byte	0x7
 2207 0067 A9010000 		.4byte	.LASF8
 2208 006b 04       		.uleb128 0x4
 2209 006c 63010000 		.4byte	.LASF9
 2210 0070 02       		.byte	0x2
 2211 0071 9201     		.2byte	0x192
 2212 0073 2C000000 		.4byte	0x2c
 2213 0077 04       		.uleb128 0x4
 2214 0078 14000000 		.4byte	.LASF10
 2215 007c 02       		.byte	0x2
 2216 007d 9301     		.2byte	0x193
 2217 007f 3A000000 		.4byte	0x3a
 2218 0083 04       		.uleb128 0x4
 2219 0084 76010000 		.4byte	.LASF11
 2220 0088 02       		.byte	0x2
 2221 0089 9401     		.2byte	0x194
 2222 008b 48000000 		.4byte	0x48
 2223 008f 02       		.uleb128 0x2
 2224 0090 04       		.byte	0x4
ARM GAS  C:\Users\badea\AppData\Local\Temp\cc3YEltE.s 			page 65


 2225 0091 04       		.byte	0x4
 2226 0092 1F030000 		.4byte	.LASF12
 2227 0096 02       		.uleb128 0x2
 2228 0097 08       		.byte	0x8
 2229 0098 04       		.byte	0x4
 2230 0099 6F010000 		.4byte	.LASF13
 2231 009d 02       		.uleb128 0x2
 2232 009e 01       		.byte	0x1
 2233 009f 08       		.byte	0x8
 2234 00a0 9C030000 		.4byte	.LASF14
 2235 00a4 04       		.uleb128 0x4
 2236 00a5 25030000 		.4byte	.LASF15
 2237 00a9 02       		.byte	0x2
 2238 00aa 3C02     		.2byte	0x23c
 2239 00ac B0000000 		.4byte	0xb0
 2240 00b0 05       		.uleb128 0x5
 2241 00b1 6B000000 		.4byte	0x6b
 2242 00b5 04       		.uleb128 0x4
 2243 00b6 5D010000 		.4byte	.LASF16
 2244 00ba 02       		.byte	0x2
 2245 00bb 3D02     		.2byte	0x23d
 2246 00bd C1000000 		.4byte	0xc1
 2247 00c1 05       		.uleb128 0x5
 2248 00c2 77000000 		.4byte	0x77
 2249 00c6 04       		.uleb128 0x4
 2250 00c7 98020000 		.4byte	.LASF17
 2251 00cb 02       		.byte	0x2
 2252 00cc 3E02     		.2byte	0x23e
 2253 00ce D2000000 		.4byte	0xd2
 2254 00d2 05       		.uleb128 0x5
 2255 00d3 83000000 		.4byte	0x83
 2256 00d7 02       		.uleb128 0x2
 2257 00d8 08       		.byte	0x8
 2258 00d9 04       		.byte	0x4
 2259 00da E9020000 		.4byte	.LASF18
 2260 00de 02       		.uleb128 0x2
 2261 00df 04       		.byte	0x4
 2262 00e0 07       		.byte	0x7
 2263 00e1 E0020000 		.4byte	.LASF19
 2264 00e5 06       		.uleb128 0x6
 2265 00e6 08       		.byte	0x8
 2266 00e7 03       		.byte	0x3
 2267 00e8 75       		.byte	0x75
 2268 00e9 FA000000 		.4byte	0xfa
 2269 00ed 07       		.uleb128 0x7
 2270 00ee 7D010000 		.4byte	.LASF21
 2271 00f2 03       		.byte	0x3
 2272 00f3 77       		.byte	0x77
 2273 00f4 0A010000 		.4byte	0x10a
 2274 00f8 00       		.byte	0
 2275 00f9 00       		.byte	0
 2276 00fa 08       		.uleb128 0x8
 2277 00fb A4000000 		.4byte	0xa4
 2278 00ff 0A010000 		.4byte	0x10a
 2279 0103 09       		.uleb128 0x9
 2280 0104 DE000000 		.4byte	0xde
 2281 0108 07       		.byte	0x7
ARM GAS  C:\Users\badea\AppData\Local\Temp\cc3YEltE.s 			page 66


 2282 0109 00       		.byte	0
 2283 010a 05       		.uleb128 0x5
 2284 010b FA000000 		.4byte	0xfa
 2285 010f 0A       		.uleb128 0xa
 2286 0110 E7030000 		.4byte	.LASF20
 2287 0114 03       		.byte	0x3
 2288 0115 78       		.byte	0x78
 2289 0116 E5000000 		.4byte	0xe5
 2290 011a 06       		.uleb128 0x6
 2291 011b 04       		.byte	0x4
 2292 011c 03       		.byte	0x3
 2293 011d 7B       		.byte	0x7b
 2294 011e 2F010000 		.4byte	0x12f
 2295 0122 07       		.uleb128 0x7
 2296 0123 7D010000 		.4byte	.LASF21
 2297 0127 03       		.byte	0x3
 2298 0128 7D       		.byte	0x7d
 2299 0129 3F010000 		.4byte	0x13f
 2300 012d 00       		.byte	0
 2301 012e 00       		.byte	0
 2302 012f 08       		.uleb128 0x8
 2303 0130 A4000000 		.4byte	0xa4
 2304 0134 3F010000 		.4byte	0x13f
 2305 0138 09       		.uleb128 0x9
 2306 0139 DE000000 		.4byte	0xde
 2307 013d 03       		.byte	0x3
 2308 013e 00       		.byte	0
 2309 013f 05       		.uleb128 0x5
 2310 0140 2F010000 		.4byte	0x12f
 2311 0144 0A       		.uleb128 0xa
 2312 0145 D5020000 		.4byte	.LASF22
 2313 0149 03       		.byte	0x3
 2314 014a 7E       		.byte	0x7e
 2315 014b 1A010000 		.4byte	0x11a
 2316 014f 06       		.uleb128 0x6
 2317 0150 10       		.byte	0x10
 2318 0151 03       		.byte	0x3
 2319 0152 8F       		.byte	0x8f
 2320 0153 88010000 		.4byte	0x188
 2321 0157 07       		.uleb128 0x7
 2322 0158 CB020000 		.4byte	.LASF23
 2323 015c 03       		.byte	0x3
 2324 015d 91       		.byte	0x91
 2325 015e 6B000000 		.4byte	0x6b
 2326 0162 00       		.byte	0
 2327 0163 07       		.uleb128 0x7
 2328 0164 24040000 		.4byte	.LASF24
 2329 0168 03       		.byte	0x3
 2330 0169 92       		.byte	0x92
 2331 016a 83000000 		.4byte	0x83
 2332 016e 04       		.byte	0x4
 2333 016f 07       		.uleb128 0x7
 2334 0170 69010000 		.4byte	.LASF25
 2335 0174 03       		.byte	0x3
 2336 0175 93       		.byte	0x93
 2337 0176 83000000 		.4byte	0x83
 2338 017a 08       		.byte	0x8
ARM GAS  C:\Users\badea\AppData\Local\Temp\cc3YEltE.s 			page 67


 2339 017b 07       		.uleb128 0x7
 2340 017c 59040000 		.4byte	.LASF26
 2341 0180 03       		.byte	0x3
 2342 0181 94       		.byte	0x94
 2343 0182 83000000 		.4byte	0x83
 2344 0186 0C       		.byte	0xc
 2345 0187 00       		.byte	0
 2346 0188 0A       		.uleb128 0xa
 2347 0189 26020000 		.4byte	.LASF27
 2348 018d 03       		.byte	0x3
 2349 018e 95       		.byte	0x95
 2350 018f 4F010000 		.4byte	0x14f
 2351 0193 06       		.uleb128 0x6
 2352 0194 0C       		.byte	0xc
 2353 0195 03       		.byte	0x3
 2354 0196 98       		.byte	0x98
 2355 0197 C0010000 		.4byte	0x1c0
 2356 019b 07       		.uleb128 0x7
 2357 019c F6030000 		.4byte	.LASF28
 2358 01a0 03       		.byte	0x3
 2359 01a1 9A       		.byte	0x9a
 2360 01a2 6B000000 		.4byte	0x6b
 2361 01a6 00       		.byte	0
 2362 01a7 07       		.uleb128 0x7
 2363 01a8 F4000000 		.4byte	.LASF29
 2364 01ac 03       		.byte	0x3
 2365 01ad 9B       		.byte	0x9b
 2366 01ae 83000000 		.4byte	0x83
 2367 01b2 04       		.byte	0x4
 2368 01b3 07       		.uleb128 0x7
 2369 01b4 54040000 		.4byte	.LASF30
 2370 01b8 03       		.byte	0x3
 2371 01b9 9C       		.byte	0x9c
 2372 01ba 83000000 		.4byte	0x83
 2373 01be 08       		.byte	0x8
 2374 01bf 00       		.byte	0
 2375 01c0 0A       		.uleb128 0xa
 2376 01c1 6E040000 		.4byte	.LASF31
 2377 01c5 03       		.byte	0x3
 2378 01c6 9D       		.byte	0x9d
 2379 01c7 93010000 		.4byte	0x193
 2380 01cb 06       		.uleb128 0x6
 2381 01cc 20       		.byte	0x20
 2382 01cd 03       		.byte	0x3
 2383 01ce A0       		.byte	0xa0
 2384 01cf 28020000 		.4byte	0x228
 2385 01d3 07       		.uleb128 0x7
 2386 01d4 24040000 		.4byte	.LASF24
 2387 01d8 03       		.byte	0x3
 2388 01d9 A2       		.byte	0xa2
 2389 01da 44010000 		.4byte	0x144
 2390 01de 00       		.byte	0
 2391 01df 07       		.uleb128 0x7
 2392 01e0 07030000 		.4byte	.LASF32
 2393 01e4 03       		.byte	0x3
 2394 01e5 A3       		.byte	0xa3
 2395 01e6 44010000 		.4byte	0x144
ARM GAS  C:\Users\badea\AppData\Local\Temp\cc3YEltE.s 			page 68


 2396 01ea 04       		.byte	0x4
 2397 01eb 07       		.uleb128 0x7
 2398 01ec 56010000 		.4byte	.LASF33
 2399 01f0 03       		.byte	0x3
 2400 01f1 A4       		.byte	0xa4
 2401 01f2 0F010000 		.4byte	0x10f
 2402 01f6 08       		.byte	0x8
 2403 01f7 07       		.uleb128 0x7
 2404 01f8 69010000 		.4byte	.LASF25
 2405 01fc 03       		.byte	0x3
 2406 01fd A5       		.byte	0xa5
 2407 01fe 44010000 		.4byte	0x144
 2408 0202 10       		.byte	0x10
 2409 0203 07       		.uleb128 0x7
 2410 0204 59040000 		.4byte	.LASF26
 2411 0208 03       		.byte	0x3
 2412 0209 A6       		.byte	0xa6
 2413 020a 44010000 		.4byte	0x144
 2414 020e 14       		.byte	0x14
 2415 020f 07       		.uleb128 0x7
 2416 0210 FA000000 		.4byte	.LASF34
 2417 0214 03       		.byte	0x3
 2418 0215 A7       		.byte	0xa7
 2419 0216 44010000 		.4byte	0x144
 2420 021a 18       		.byte	0x18
 2421 021b 07       		.uleb128 0x7
 2422 021c 67040000 		.4byte	.LASF35
 2423 0220 03       		.byte	0x3
 2424 0221 A8       		.byte	0xa8
 2425 0222 44010000 		.4byte	0x144
 2426 0226 1C       		.byte	0x1c
 2427 0227 00       		.byte	0
 2428 0228 0A       		.uleb128 0xa
 2429 0229 F1010000 		.4byte	.LASF36
 2430 022d 03       		.byte	0x3
 2431 022e A9       		.byte	0xa9
 2432 022f CB010000 		.4byte	0x1cb
 2433 0233 06       		.uleb128 0x6
 2434 0234 10       		.byte	0x10
 2435 0235 03       		.byte	0x3
 2436 0236 AC       		.byte	0xac
 2437 0237 60020000 		.4byte	0x260
 2438 023b 07       		.uleb128 0x7
 2439 023c F4000000 		.4byte	.LASF29
 2440 0240 03       		.byte	0x3
 2441 0241 AE       		.byte	0xae
 2442 0242 44010000 		.4byte	0x144
 2443 0246 00       		.byte	0
 2444 0247 07       		.uleb128 0x7
 2445 0248 54040000 		.4byte	.LASF30
 2446 024c 03       		.byte	0x3
 2447 024d AF       		.byte	0xaf
 2448 024e 44010000 		.4byte	0x144
 2449 0252 04       		.byte	0x4
 2450 0253 07       		.uleb128 0x7
 2451 0254 91020000 		.4byte	.LASF37
 2452 0258 03       		.byte	0x3
ARM GAS  C:\Users\badea\AppData\Local\Temp\cc3YEltE.s 			page 69


 2453 0259 B0       		.byte	0xb0
 2454 025a 0F010000 		.4byte	0x10f
 2455 025e 08       		.byte	0x8
 2456 025f 00       		.byte	0
 2457 0260 0A       		.uleb128 0xa
 2458 0261 60030000 		.4byte	.LASF38
 2459 0265 03       		.byte	0x3
 2460 0266 B1       		.byte	0xb1
 2461 0267 33020000 		.4byte	0x233
 2462 026b 0B       		.uleb128 0xb
 2463 026c 30000000 		.4byte	.LASF42
 2464 0270 01       		.byte	0x1
 2465 0271 2F       		.byte	0x2f
 2466 0272 6B000000 		.4byte	0x6b
 2467 0276 00000000 		.4byte	.LFB0
 2468 027a 80000000 		.4byte	.LFE0-.LFB0
 2469 027e 01       		.uleb128 0x1
 2470 027f 9C       		.byte	0x9c
 2471 0280 C1020000 		.4byte	0x2c1
 2472 0284 0C       		.uleb128 0xc
 2473 0285 FF010000 		.4byte	.LASF39
 2474 0289 01       		.byte	0x1
 2475 028a 32       		.byte	0x32
 2476 028b D6020000 		.4byte	0x2d6
 2477 028f 05       		.uleb128 0x5
 2478 0290 03       		.byte	0x3
 2479 0291 60000000 		.4byte	CAN_RXConfigStruct.5044
 2480 0295 0C       		.uleb128 0xc
 2481 0296 D4030000 		.4byte	.LASF40
 2482 029a 01       		.byte	0x1
 2483 029b 46       		.byte	0x46
 2484 029c F0020000 		.4byte	0x2f0
 2485 02a0 05       		.uleb128 0x5
 2486 02a1 03       		.byte	0x3
 2487 02a2 00000000 		.4byte	CAN_TXConfigStruct.5045
 2488 02a6 0C       		.uleb128 0xc
 2489 02a7 79040000 		.4byte	.LASF41
 2490 02ab 01       		.byte	0x1
 2491 02ac 52       		.byte	0x52
 2492 02ad 6B000000 		.4byte	0x6b
 2493 02b1 02       		.uleb128 0x2
 2494 02b2 91       		.byte	0x91
 2495 02b3 77       		.sleb128 -9
 2496 02b4 0D       		.uleb128 0xd
 2497 02b5 6900     		.ascii	"i\000"
 2498 02b7 01       		.byte	0x1
 2499 02b8 53       		.byte	0x53
 2500 02b9 6B000000 		.4byte	0x6b
 2501 02bd 02       		.uleb128 0x2
 2502 02be 91       		.byte	0x91
 2503 02bf 76       		.sleb128 -10
 2504 02c0 00       		.byte	0
 2505 02c1 08       		.uleb128 0x8
 2506 02c2 D1020000 		.4byte	0x2d1
 2507 02c6 D1020000 		.4byte	0x2d1
 2508 02ca 09       		.uleb128 0x9
 2509 02cb DE000000 		.4byte	0xde
ARM GAS  C:\Users\badea\AppData\Local\Temp\cc3YEltE.s 			page 70


 2510 02cf 0F       		.byte	0xf
 2511 02d0 00       		.byte	0
 2512 02d1 0E       		.uleb128 0xe
 2513 02d2 88010000 		.4byte	0x188
 2514 02d6 0E       		.uleb128 0xe
 2515 02d7 C1020000 		.4byte	0x2c1
 2516 02db 08       		.uleb128 0x8
 2517 02dc EB020000 		.4byte	0x2eb
 2518 02e0 EB020000 		.4byte	0x2eb
 2519 02e4 09       		.uleb128 0x9
 2520 02e5 DE000000 		.4byte	0xde
 2521 02e9 07       		.byte	0x7
 2522 02ea 00       		.byte	0
 2523 02eb 0E       		.uleb128 0xe
 2524 02ec C0010000 		.4byte	0x1c0
 2525 02f0 0E       		.uleb128 0xe
 2526 02f1 DB020000 		.4byte	0x2db
 2527 02f5 0B       		.uleb128 0xb
 2528 02f6 B2020000 		.4byte	.LASF43
 2529 02fa 01       		.byte	0x1
 2530 02fb 89       		.byte	0x89
 2531 02fc 6B000000 		.4byte	0x6b
 2532 0300 00000000 		.4byte	.LFB1
 2533 0304 28010000 		.4byte	.LFE1-.LFB1
 2534 0308 01       		.uleb128 0x1
 2535 0309 9C       		.byte	0x9c
 2536 030a 47030000 		.4byte	0x347
 2537 030e 0C       		.uleb128 0xc
 2538 030f C8010000 		.4byte	.LASF44
 2539 0313 01       		.byte	0x1
 2540 0314 8B       		.byte	0x8b
 2541 0315 83000000 		.4byte	0x83
 2542 0319 02       		.uleb128 0x2
 2543 031a 91       		.byte	0x91
 2544 031b 74       		.sleb128 -12
 2545 031c 0C       		.uleb128 0xc
 2546 031d 79040000 		.4byte	.LASF41
 2547 0321 01       		.byte	0x1
 2548 0322 8C       		.byte	0x8c
 2549 0323 6B000000 		.4byte	0x6b
 2550 0327 02       		.uleb128 0x2
 2551 0328 91       		.byte	0x91
 2552 0329 73       		.sleb128 -13
 2553 032a 0C       		.uleb128 0xc
 2554 032b C8030000 		.4byte	.LASF45
 2555 032f 01       		.byte	0x1
 2556 0330 8D       		.byte	0x8d
 2557 0331 6B000000 		.4byte	0x6b
 2558 0335 02       		.uleb128 0x2
 2559 0336 91       		.byte	0x91
 2560 0337 72       		.sleb128 -14
 2561 0338 0C       		.uleb128 0xc
 2562 0339 33040000 		.4byte	.LASF46
 2563 033d 01       		.byte	0x1
 2564 033e 90       		.byte	0x90
 2565 033f 6B000000 		.4byte	0x6b
 2566 0343 02       		.uleb128 0x2
ARM GAS  C:\Users\badea\AppData\Local\Temp\cc3YEltE.s 			page 71


 2567 0344 91       		.byte	0x91
 2568 0345 71       		.sleb128 -15
 2569 0346 00       		.byte	0
 2570 0347 0B       		.uleb128 0xb
 2571 0348 55030000 		.4byte	.LASF47
 2572 034c 01       		.byte	0x1
 2573 034d FE       		.byte	0xfe
 2574 034e 6B000000 		.4byte	0x6b
 2575 0352 00000000 		.4byte	.LFB2
 2576 0356 A4000000 		.4byte	.LFE2-.LFB2
 2577 035a 01       		.uleb128 0x1
 2578 035b 9C       		.byte	0x9c
 2579 035c 8E030000 		.4byte	0x38e
 2580 0360 0F       		.uleb128 0xf
 2581 0361 C8010000 		.4byte	.LASF44
 2582 0365 01       		.byte	0x1
 2583 0366 0001     		.2byte	0x100
 2584 0368 83000000 		.4byte	0x83
 2585 036c 02       		.uleb128 0x2
 2586 036d 91       		.byte	0x91
 2587 036e 74       		.sleb128 -12
 2588 036f 0F       		.uleb128 0xf
 2589 0370 79040000 		.4byte	.LASF41
 2590 0374 01       		.byte	0x1
 2591 0375 0101     		.2byte	0x101
 2592 0377 6B000000 		.4byte	0x6b
 2593 037b 02       		.uleb128 0x2
 2594 037c 91       		.byte	0x91
 2595 037d 73       		.sleb128 -13
 2596 037e 0F       		.uleb128 0xf
 2597 037f 33040000 		.4byte	.LASF46
 2598 0383 01       		.byte	0x1
 2599 0384 0401     		.2byte	0x104
 2600 0386 6B000000 		.4byte	0x6b
 2601 038a 02       		.uleb128 0x2
 2602 038b 91       		.byte	0x91
 2603 038c 72       		.sleb128 -14
 2604 038d 00       		.byte	0
 2605 038e 10       		.uleb128 0x10
 2606 038f 26000000 		.4byte	.LASF48
 2607 0393 01       		.byte	0x1
 2608 0394 4301     		.2byte	0x143
 2609 0396 6B000000 		.4byte	0x6b
 2610 039a 00000000 		.4byte	.LFB3
 2611 039e 3C000000 		.4byte	.LFE3-.LFB3
 2612 03a2 01       		.uleb128 0x1
 2613 03a3 9C       		.byte	0x9c
 2614 03a4 B8030000 		.4byte	0x3b8
 2615 03a8 0F       		.uleb128 0xf
 2616 03a9 79040000 		.4byte	.LASF41
 2617 03ad 01       		.byte	0x1
 2618 03ae 4501     		.2byte	0x145
 2619 03b0 6B000000 		.4byte	0x6b
 2620 03b4 02       		.uleb128 0x2
 2621 03b5 91       		.byte	0x91
 2622 03b6 77       		.sleb128 -9
 2623 03b7 00       		.byte	0
ARM GAS  C:\Users\badea\AppData\Local\Temp\cc3YEltE.s 			page 72


 2624 03b8 10       		.uleb128 0x10
 2625 03b9 D4000000 		.4byte	.LASF49
 2626 03bd 01       		.byte	0x1
 2627 03be 6E01     		.2byte	0x16e
 2628 03c0 6B000000 		.4byte	0x6b
 2629 03c4 00000000 		.4byte	.LFB4
 2630 03c8 94000000 		.4byte	.LFE4-.LFB4
 2631 03cc 01       		.uleb128 0x1
 2632 03cd 9C       		.byte	0x9c
 2633 03ce 00040000 		.4byte	0x400
 2634 03d2 0F       		.uleb128 0xf
 2635 03d3 C8010000 		.4byte	.LASF44
 2636 03d7 01       		.byte	0x1
 2637 03d8 7001     		.2byte	0x170
 2638 03da 83000000 		.4byte	0x83
 2639 03de 02       		.uleb128 0x2
 2640 03df 91       		.byte	0x91
 2641 03e0 74       		.sleb128 -12
 2642 03e1 0F       		.uleb128 0xf
 2643 03e2 79040000 		.4byte	.LASF41
 2644 03e6 01       		.byte	0x1
 2645 03e7 7101     		.2byte	0x171
 2646 03e9 6B000000 		.4byte	0x6b
 2647 03ed 02       		.uleb128 0x2
 2648 03ee 91       		.byte	0x91
 2649 03ef 73       		.sleb128 -13
 2650 03f0 0F       		.uleb128 0xf
 2651 03f1 33040000 		.4byte	.LASF46
 2652 03f5 01       		.byte	0x1
 2653 03f6 7401     		.2byte	0x174
 2654 03f8 6B000000 		.4byte	0x6b
 2655 03fc 02       		.uleb128 0x2
 2656 03fd 91       		.byte	0x91
 2657 03fe 72       		.sleb128 -14
 2658 03ff 00       		.byte	0
 2659 0400 11       		.uleb128 0x11
 2660 0401 12020000 		.4byte	.LASF50
 2661 0405 01       		.byte	0x1
 2662 0406 AB01     		.2byte	0x1ab
 2663 0408 6B000000 		.4byte	0x6b
 2664 040c 00000000 		.4byte	.LFB5
 2665 0410 3C000000 		.4byte	.LFE5-.LFB5
 2666 0414 01       		.uleb128 0x1
 2667 0415 9C       		.byte	0x9c
 2668 0416 2A040000 		.4byte	0x42a
 2669 041a 0F       		.uleb128 0xf
 2670 041b 79040000 		.4byte	.LASF41
 2671 041f 01       		.byte	0x1
 2672 0420 AD01     		.2byte	0x1ad
 2673 0422 6B000000 		.4byte	0x6b
 2674 0426 02       		.uleb128 0x2
 2675 0427 91       		.byte	0x91
 2676 0428 77       		.sleb128 -9
 2677 0429 00       		.byte	0
 2678 042a 11       		.uleb128 0x11
 2679 042b 2F010000 		.4byte	.LASF51
 2680 042f 01       		.byte	0x1
ARM GAS  C:\Users\badea\AppData\Local\Temp\cc3YEltE.s 			page 73


 2681 0430 D501     		.2byte	0x1d5
 2682 0432 6B000000 		.4byte	0x6b
 2683 0436 00000000 		.4byte	.LFB6
 2684 043a 3C000000 		.4byte	.LFE6-.LFB6
 2685 043e 01       		.uleb128 0x1
 2686 043f 9C       		.byte	0x9c
 2687 0440 54040000 		.4byte	0x454
 2688 0444 0F       		.uleb128 0xf
 2689 0445 79040000 		.4byte	.LASF41
 2690 0449 01       		.byte	0x1
 2691 044a D701     		.2byte	0x1d7
 2692 044c 6B000000 		.4byte	0x6b
 2693 0450 02       		.uleb128 0x2
 2694 0451 91       		.byte	0x91
 2695 0452 77       		.sleb128 -9
 2696 0453 00       		.byte	0
 2697 0454 11       		.uleb128 0x11
 2698 0455 8B030000 		.4byte	.LASF52
 2699 0459 01       		.byte	0x1
 2700 045a 0702     		.2byte	0x207
 2701 045c 6B000000 		.4byte	0x6b
 2702 0460 00000000 		.4byte	.LFB7
 2703 0464 40000000 		.4byte	.LFE7-.LFB7
 2704 0468 01       		.uleb128 0x1
 2705 0469 9C       		.byte	0x9c
 2706 046a 8D040000 		.4byte	0x48d
 2707 046e 12       		.uleb128 0x12
 2708 046f 0D010000 		.4byte	.LASF54
 2709 0473 01       		.byte	0x1
 2710 0474 0702     		.2byte	0x207
 2711 0476 77000000 		.4byte	0x77
 2712 047a 02       		.uleb128 0x2
 2713 047b 91       		.byte	0x91
 2714 047c 6E       		.sleb128 -18
 2715 047d 0F       		.uleb128 0xf
 2716 047e 79040000 		.4byte	.LASF41
 2717 0482 01       		.byte	0x1
 2718 0483 0902     		.2byte	0x209
 2719 0485 6B000000 		.4byte	0x6b
 2720 0489 02       		.uleb128 0x2
 2721 048a 91       		.byte	0x91
 2722 048b 77       		.sleb128 -9
 2723 048c 00       		.byte	0
 2724 048d 11       		.uleb128 0x11
 2725 048e 38020000 		.4byte	.LASF53
 2726 0492 01       		.byte	0x1
 2727 0493 3F02     		.2byte	0x23f
 2728 0495 6B000000 		.4byte	0x6b
 2729 0499 00000000 		.4byte	.LFB8
 2730 049d 6C000000 		.4byte	.LFE8-.LFB8
 2731 04a1 01       		.uleb128 0x1
 2732 04a2 9C       		.byte	0x9c
 2733 04a3 C6040000 		.4byte	0x4c6
 2734 04a7 12       		.uleb128 0x12
 2735 04a8 5F040000 		.4byte	.LASF55
 2736 04ac 01       		.byte	0x1
 2737 04ad 3F02     		.2byte	0x23f
ARM GAS  C:\Users\badea\AppData\Local\Temp\cc3YEltE.s 			page 74


 2738 04af 6B000000 		.4byte	0x6b
 2739 04b3 02       		.uleb128 0x2
 2740 04b4 91       		.byte	0x91
 2741 04b5 6F       		.sleb128 -17
 2742 04b6 0F       		.uleb128 0xf
 2743 04b7 79040000 		.4byte	.LASF41
 2744 04bb 01       		.byte	0x1
 2745 04bc 4102     		.2byte	0x241
 2746 04be 6B000000 		.4byte	0x6b
 2747 04c2 02       		.uleb128 0x2
 2748 04c3 91       		.byte	0x91
 2749 04c4 77       		.sleb128 -9
 2750 04c5 00       		.byte	0
 2751 04c6 11       		.uleb128 0x11
 2752 04c7 12040000 		.4byte	.LASF56
 2753 04cb 01       		.byte	0x1
 2754 04cc 8C02     		.2byte	0x28c
 2755 04ce 6B000000 		.4byte	0x6b
 2756 04d2 00000000 		.4byte	.LFB9
 2757 04d6 D4000000 		.4byte	.LFE9-.LFB9
 2758 04da 01       		.uleb128 0x1
 2759 04db 9C       		.byte	0x9c
 2760 04dc 3A050000 		.4byte	0x53a
 2761 04e0 12       		.uleb128 0x12
 2762 04e1 00040000 		.4byte	.LASF57
 2763 04e5 01       		.byte	0x1
 2764 04e6 8C02     		.2byte	0x28c
 2765 04e8 6B000000 		.4byte	0x6b
 2766 04ec 02       		.uleb128 0x2
 2767 04ed 91       		.byte	0x91
 2768 04ee 6F       		.sleb128 -17
 2769 04ef 12       		.uleb128 0x12
 2770 04f0 09040000 		.4byte	.LASF58
 2771 04f4 01       		.byte	0x1
 2772 04f5 8C02     		.2byte	0x28c
 2773 04f7 6B000000 		.4byte	0x6b
 2774 04fb 02       		.uleb128 0x2
 2775 04fc 91       		.byte	0x91
 2776 04fd 6E       		.sleb128 -18
 2777 04fe 13       		.uleb128 0x13
 2778 04ff 736A7700 		.ascii	"sjw\000"
 2779 0503 01       		.byte	0x1
 2780 0504 8C02     		.2byte	0x28c
 2781 0506 6B000000 		.4byte	0x6b
 2782 050a 02       		.uleb128 0x2
 2783 050b 91       		.byte	0x91
 2784 050c 6D       		.sleb128 -19
 2785 050d 13       		.uleb128 0x13
 2786 050e 736D00   		.ascii	"sm\000"
 2787 0511 01       		.byte	0x1
 2788 0512 8C02     		.2byte	0x28c
 2789 0514 6B000000 		.4byte	0x6b
 2790 0518 02       		.uleb128 0x2
 2791 0519 91       		.byte	0x91
 2792 051a 6C       		.sleb128 -20
 2793 051b 0F       		.uleb128 0xf
 2794 051c 79040000 		.4byte	.LASF41
ARM GAS  C:\Users\badea\AppData\Local\Temp\cc3YEltE.s 			page 75


 2795 0520 01       		.byte	0x1
 2796 0521 8F02     		.2byte	0x28f
 2797 0523 6B000000 		.4byte	0x6b
 2798 0527 02       		.uleb128 0x2
 2799 0528 91       		.byte	0x91
 2800 0529 77       		.sleb128 -9
 2801 052a 0F       		.uleb128 0xf
 2802 052b C3020000 		.4byte	.LASF59
 2803 052f 01       		.byte	0x1
 2804 0530 9002     		.2byte	0x290
 2805 0532 6B000000 		.4byte	0x6b
 2806 0536 02       		.uleb128 0x2
 2807 0537 91       		.byte	0x91
 2808 0538 76       		.sleb128 -10
 2809 0539 00       		.byte	0
 2810 053a 11       		.uleb128 0x11
 2811 053b 80040000 		.4byte	.LASF60
 2812 053f 01       		.byte	0x1
 2813 0540 0103     		.2byte	0x301
 2814 0542 6B000000 		.4byte	0x6b
 2815 0546 00000000 		.4byte	.LFB10
 2816 054a 6C000000 		.4byte	.LFE10-.LFB10
 2817 054e 01       		.uleb128 0x1
 2818 054f 9C       		.byte	0x9c
 2819 0550 73050000 		.4byte	0x573
 2820 0554 12       		.uleb128 0x12
 2821 0555 1B000000 		.4byte	.LASF61
 2822 0559 01       		.byte	0x1
 2823 055a 0103     		.2byte	0x301
 2824 055c 6B000000 		.4byte	0x6b
 2825 0560 02       		.uleb128 0x2
 2826 0561 91       		.byte	0x91
 2827 0562 6F       		.sleb128 -17
 2828 0563 0F       		.uleb128 0xf
 2829 0564 79040000 		.4byte	.LASF41
 2830 0568 01       		.byte	0x1
 2831 0569 0303     		.2byte	0x303
 2832 056b 6B000000 		.4byte	0x6b
 2833 056f 02       		.uleb128 0x2
 2834 0570 91       		.byte	0x91
 2835 0571 77       		.sleb128 -9
 2836 0572 00       		.byte	0
 2837 0573 11       		.uleb128 0x11
 2838 0574 A1030000 		.4byte	.LASF62
 2839 0578 01       		.byte	0x1
 2840 0579 4B03     		.2byte	0x34b
 2841 057b 6B000000 		.4byte	0x6b
 2842 057f 00000000 		.4byte	.LFB11
 2843 0583 6C000000 		.4byte	.LFE11-.LFB11
 2844 0587 01       		.uleb128 0x1
 2845 0588 9C       		.byte	0x9c
 2846 0589 AC050000 		.4byte	0x5ac
 2847 058d 12       		.uleb128 0x12
 2848 058e 21000000 		.4byte	.LASF63
 2849 0592 01       		.byte	0x1
 2850 0593 4B03     		.2byte	0x34b
 2851 0595 6B000000 		.4byte	0x6b
ARM GAS  C:\Users\badea\AppData\Local\Temp\cc3YEltE.s 			page 76


 2852 0599 02       		.uleb128 0x2
 2853 059a 91       		.byte	0x91
 2854 059b 6F       		.sleb128 -17
 2855 059c 0F       		.uleb128 0xf
 2856 059d 79040000 		.4byte	.LASF41
 2857 05a1 01       		.byte	0x1
 2858 05a2 4D03     		.2byte	0x34d
 2859 05a4 6B000000 		.4byte	0x6b
 2860 05a8 02       		.uleb128 0x2
 2861 05a9 91       		.byte	0x91
 2862 05aa 77       		.sleb128 -9
 2863 05ab 00       		.byte	0
 2864 05ac 11       		.uleb128 0x11
 2865 05ad D0010000 		.4byte	.LASF64
 2866 05b1 01       		.byte	0x1
 2867 05b2 AA03     		.2byte	0x3aa
 2868 05b4 6B000000 		.4byte	0x6b
 2869 05b8 00000000 		.4byte	.LFB12
 2870 05bc C8000000 		.4byte	.LFE12-.LFB12
 2871 05c0 01       		.uleb128 0x1
 2872 05c1 9C       		.byte	0x9c
 2873 05c2 03060000 		.4byte	0x603
 2874 05c6 12       		.uleb128 0x12
 2875 05c7 31020000 		.4byte	.LASF65
 2876 05cb 01       		.byte	0x1
 2877 05cc AA03     		.2byte	0x3aa
 2878 05ce 6B000000 		.4byte	0x6b
 2879 05d2 02       		.uleb128 0x2
 2880 05d3 91       		.byte	0x91
 2881 05d4 6F       		.sleb128 -17
 2882 05d5 0F       		.uleb128 0xf
 2883 05d6 C8010000 		.4byte	.LASF44
 2884 05da 01       		.byte	0x1
 2885 05db AD03     		.2byte	0x3ad
 2886 05dd 83000000 		.4byte	0x83
 2887 05e1 02       		.uleb128 0x2
 2888 05e2 91       		.byte	0x91
 2889 05e3 74       		.sleb128 -12
 2890 05e4 0F       		.uleb128 0xf
 2891 05e5 79040000 		.4byte	.LASF41
 2892 05e9 01       		.byte	0x1
 2893 05ea AF03     		.2byte	0x3af
 2894 05ec 6B000000 		.4byte	0x6b
 2895 05f0 02       		.uleb128 0x2
 2896 05f1 91       		.byte	0x91
 2897 05f2 73       		.sleb128 -13
 2898 05f3 0F       		.uleb128 0xf
 2899 05f4 44010000 		.4byte	.LASF66
 2900 05f8 01       		.byte	0x1
 2901 05f9 B003     		.2byte	0x3b0
 2902 05fb 6B000000 		.4byte	0x6b
 2903 05ff 02       		.uleb128 0x2
 2904 0600 91       		.byte	0x91
 2905 0601 72       		.sleb128 -14
 2906 0602 00       		.byte	0
 2907 0603 11       		.uleb128 0x11
 2908 0604 0C030000 		.4byte	.LASF67
ARM GAS  C:\Users\badea\AppData\Local\Temp\cc3YEltE.s 			page 77


 2909 0608 01       		.byte	0x1
 2910 0609 1A04     		.2byte	0x41a
 2911 060b 6B000000 		.4byte	0x6b
 2912 060f 00000000 		.4byte	.LFB13
 2913 0613 A0000000 		.4byte	.LFE13-.LFB13
 2914 0617 01       		.uleb128 0x1
 2915 0618 9C       		.byte	0x9c
 2916 0619 4B060000 		.4byte	0x64b
 2917 061d 12       		.uleb128 0x12
 2918 061e BB020000 		.4byte	.LASF68
 2919 0622 01       		.byte	0x1
 2920 0623 1A04     		.2byte	0x41a
 2921 0625 4B060000 		.4byte	0x64b
 2922 0629 02       		.uleb128 0x2
 2923 062a 91       		.byte	0x91
 2924 062b 6C       		.sleb128 -20
 2925 062c 12       		.uleb128 0x12
 2926 062d B1030000 		.4byte	.LASF69
 2927 0631 01       		.byte	0x1
 2928 0632 1A04     		.2byte	0x41a
 2929 0634 83000000 		.4byte	0x83
 2930 0638 02       		.uleb128 0x2
 2931 0639 91       		.byte	0x91
 2932 063a 68       		.sleb128 -24
 2933 063b 0F       		.uleb128 0xf
 2934 063c 79040000 		.4byte	.LASF41
 2935 0640 01       		.byte	0x1
 2936 0641 1D04     		.2byte	0x41d
 2937 0643 6B000000 		.4byte	0x6b
 2938 0647 02       		.uleb128 0x2
 2939 0648 91       		.byte	0x91
 2940 0649 77       		.sleb128 -9
 2941 064a 00       		.byte	0
 2942 064b 14       		.uleb128 0x14
 2943 064c 04       		.byte	0x4
 2944 064d C6000000 		.4byte	0xc6
 2945 0651 11       		.uleb128 0x11
 2946 0652 9A010000 		.4byte	.LASF70
 2947 0656 01       		.byte	0x1
 2948 0657 7604     		.2byte	0x476
 2949 0659 6B000000 		.4byte	0x6b
 2950 065d 00000000 		.4byte	.LFB14
 2951 0661 34000000 		.4byte	.LFE14-.LFB14
 2952 0665 01       		.uleb128 0x1
 2953 0666 9C       		.byte	0x9c
 2954 0667 8A060000 		.4byte	0x68a
 2955 066b 12       		.uleb128 0x12
 2956 066c 82010000 		.4byte	.LASF71
 2957 0670 01       		.byte	0x1
 2958 0671 7604     		.2byte	0x476
 2959 0673 77000000 		.4byte	0x77
 2960 0677 02       		.uleb128 0x2
 2961 0678 91       		.byte	0x91
 2962 0679 6E       		.sleb128 -18
 2963 067a 0F       		.uleb128 0xf
 2964 067b 79040000 		.4byte	.LASF41
 2965 067f 01       		.byte	0x1
ARM GAS  C:\Users\badea\AppData\Local\Temp\cc3YEltE.s 			page 78


 2966 0680 7804     		.2byte	0x478
 2967 0682 6B000000 		.4byte	0x6b
 2968 0686 02       		.uleb128 0x2
 2969 0687 91       		.byte	0x91
 2970 0688 77       		.sleb128 -9
 2971 0689 00       		.byte	0
 2972 068a 15       		.uleb128 0x15
 2973 068b 42030000 		.4byte	.LASF72
 2974 068f 01       		.byte	0x1
 2975 0690 A104     		.2byte	0x4a1
 2976 0692 6B000000 		.4byte	0x6b
 2977 0696 00000000 		.4byte	.LFB15
 2978 069a 24000000 		.4byte	.LFE15-.LFB15
 2979 069e 01       		.uleb128 0x1
 2980 069f 9C       		.byte	0x9c
 2981 06a0 15       		.uleb128 0x15
 2982 06a1 87010000 		.4byte	.LASF73
 2983 06a5 01       		.byte	0x1
 2984 06a6 BF04     		.2byte	0x4bf
 2985 06a8 6B000000 		.4byte	0x6b
 2986 06ac 00000000 		.4byte	.LFB16
 2987 06b0 24000000 		.4byte	.LFE16-.LFB16
 2988 06b4 01       		.uleb128 0x1
 2989 06b5 9C       		.byte	0x9c
 2990 06b6 15       		.uleb128 0x15
 2991 06b7 9E020000 		.4byte	.LASF74
 2992 06bb 01       		.byte	0x1
 2993 06bc DC04     		.2byte	0x4dc
 2994 06be 6B000000 		.4byte	0x6b
 2995 06c2 00000000 		.4byte	.LFB17
 2996 06c6 18000000 		.4byte	.LFE17-.LFB17
 2997 06ca 01       		.uleb128 0x1
 2998 06cb 9C       		.byte	0x9c
 2999 06cc 15       		.uleb128 0x15
 3000 06cd 00000000 		.4byte	.LASF75
 3001 06d1 01       		.byte	0x1
 3002 06d2 F604     		.2byte	0x4f6
 3003 06d4 6B000000 		.4byte	0x6b
 3004 06d8 00000000 		.4byte	.LFB18
 3005 06dc 18000000 		.4byte	.LFE18-.LFB18
 3006 06e0 01       		.uleb128 0x1
 3007 06e1 9C       		.byte	0x9c
 3008 06e2 15       		.uleb128 0x15
 3009 06e3 F5020000 		.4byte	.LASF76
 3010 06e7 01       		.byte	0x1
 3011 06e8 1105     		.2byte	0x511
 3012 06ea 6B000000 		.4byte	0x6b
 3013 06ee 00000000 		.4byte	.LFB19
 3014 06f2 1C000000 		.4byte	.LFE19-.LFB19
 3015 06f6 01       		.uleb128 0x1
 3016 06f7 9C       		.byte	0x9c
 3017 06f8 11       		.uleb128 0x11
 3018 06f9 44040000 		.4byte	.LASF77
 3019 06fd 01       		.byte	0x1
 3020 06fe 3005     		.2byte	0x530
 3021 0700 6B000000 		.4byte	0x6b
 3022 0704 00000000 		.4byte	.LFB20
ARM GAS  C:\Users\badea\AppData\Local\Temp\cc3YEltE.s 			page 79


 3023 0708 EC000000 		.4byte	.LFE20-.LFB20
 3024 070c 01       		.uleb128 0x1
 3025 070d 9C       		.byte	0x9c
 3026 070e 31070000 		.4byte	0x731
 3027 0712 12       		.uleb128 0x12
 3028 0713 88020000 		.4byte	.LASF78
 3029 0717 01       		.byte	0x1
 3030 0718 3005     		.2byte	0x530
 3031 071a 31070000 		.4byte	0x731
 3032 071e 02       		.uleb128 0x2
 3033 071f 91       		.byte	0x91
 3034 0720 6C       		.sleb128 -20
 3035 0721 0F       		.uleb128 0xf
 3036 0722 79040000 		.4byte	.LASF41
 3037 0726 01       		.byte	0x1
 3038 0727 3305     		.2byte	0x533
 3039 0729 6B000000 		.4byte	0x6b
 3040 072d 02       		.uleb128 0x2
 3041 072e 91       		.byte	0x91
 3042 072f 77       		.sleb128 -9
 3043 0730 00       		.byte	0
 3044 0731 14       		.uleb128 0x14
 3045 0732 04       		.byte	0x4
 3046 0733 D1020000 		.4byte	0x2d1
 3047 0737 11       		.uleb128 0x11
 3048 0738 B8030000 		.4byte	.LASF79
 3049 073c 01       		.byte	0x1
 3050 073d 6905     		.2byte	0x569
 3051 073f 6B000000 		.4byte	0x6b
 3052 0743 00000000 		.4byte	.LFB21
 3053 0747 88000000 		.4byte	.LFE21-.LFB21
 3054 074b 01       		.uleb128 0x1
 3055 074c 9C       		.byte	0x9c
 3056 074d 70070000 		.4byte	0x770
 3057 0751 12       		.uleb128 0x12
 3058 0752 2A040000 		.4byte	.LASF80
 3059 0756 01       		.byte	0x1
 3060 0757 6905     		.2byte	0x569
 3061 0759 70070000 		.4byte	0x770
 3062 075d 02       		.uleb128 0x2
 3063 075e 91       		.byte	0x91
 3064 075f 6C       		.sleb128 -20
 3065 0760 0F       		.uleb128 0xf
 3066 0761 79040000 		.4byte	.LASF41
 3067 0765 01       		.byte	0x1
 3068 0766 6C05     		.2byte	0x56c
 3069 0768 6B000000 		.4byte	0x6b
 3070 076c 02       		.uleb128 0x2
 3071 076d 91       		.byte	0x91
 3072 076e 77       		.sleb128 -9
 3073 076f 00       		.byte	0
 3074 0770 14       		.uleb128 0x14
 3075 0771 04       		.byte	0x4
 3076 0772 EB020000 		.4byte	0x2eb
 3077 0776 16       		.uleb128 0x16
 3078 0777 01010000 		.4byte	.LASF84
 3079 077b 01       		.byte	0x1
ARM GAS  C:\Users\badea\AppData\Local\Temp\cc3YEltE.s 			page 80


 3080 077c 16       		.byte	0x16
 3081 077d 6B000000 		.4byte	0x6b
 3082 0781 05       		.uleb128 0x5
 3083 0782 03       		.byte	0x3
 3084 0783 00000000 		.4byte	CAN_initVar
 3085 0787 00       		.byte	0
 3086              		.section	.debug_abbrev,"",%progbits
 3087              	.Ldebug_abbrev0:
 3088 0000 01       		.uleb128 0x1
 3089 0001 11       		.uleb128 0x11
 3090 0002 01       		.byte	0x1
 3091 0003 25       		.uleb128 0x25
 3092 0004 0E       		.uleb128 0xe
 3093 0005 13       		.uleb128 0x13
 3094 0006 0B       		.uleb128 0xb
 3095 0007 03       		.uleb128 0x3
 3096 0008 0E       		.uleb128 0xe
 3097 0009 1B       		.uleb128 0x1b
 3098 000a 0E       		.uleb128 0xe
 3099 000b 55       		.uleb128 0x55
 3100 000c 17       		.uleb128 0x17
 3101 000d 11       		.uleb128 0x11
 3102 000e 01       		.uleb128 0x1
 3103 000f 10       		.uleb128 0x10
 3104 0010 17       		.uleb128 0x17
 3105 0011 00       		.byte	0
 3106 0012 00       		.byte	0
 3107 0013 02       		.uleb128 0x2
 3108 0014 24       		.uleb128 0x24
 3109 0015 00       		.byte	0
 3110 0016 0B       		.uleb128 0xb
 3111 0017 0B       		.uleb128 0xb
 3112 0018 3E       		.uleb128 0x3e
 3113 0019 0B       		.uleb128 0xb
 3114 001a 03       		.uleb128 0x3
 3115 001b 0E       		.uleb128 0xe
 3116 001c 00       		.byte	0
 3117 001d 00       		.byte	0
 3118 001e 03       		.uleb128 0x3
 3119 001f 24       		.uleb128 0x24
 3120 0020 00       		.byte	0
 3121 0021 0B       		.uleb128 0xb
 3122 0022 0B       		.uleb128 0xb
 3123 0023 3E       		.uleb128 0x3e
 3124 0024 0B       		.uleb128 0xb
 3125 0025 03       		.uleb128 0x3
 3126 0026 08       		.uleb128 0x8
 3127 0027 00       		.byte	0
 3128 0028 00       		.byte	0
 3129 0029 04       		.uleb128 0x4
 3130 002a 16       		.uleb128 0x16
 3131 002b 00       		.byte	0
 3132 002c 03       		.uleb128 0x3
 3133 002d 0E       		.uleb128 0xe
 3134 002e 3A       		.uleb128 0x3a
 3135 002f 0B       		.uleb128 0xb
 3136 0030 3B       		.uleb128 0x3b
ARM GAS  C:\Users\badea\AppData\Local\Temp\cc3YEltE.s 			page 81


 3137 0031 05       		.uleb128 0x5
 3138 0032 49       		.uleb128 0x49
 3139 0033 13       		.uleb128 0x13
 3140 0034 00       		.byte	0
 3141 0035 00       		.byte	0
 3142 0036 05       		.uleb128 0x5
 3143 0037 35       		.uleb128 0x35
 3144 0038 00       		.byte	0
 3145 0039 49       		.uleb128 0x49
 3146 003a 13       		.uleb128 0x13
 3147 003b 00       		.byte	0
 3148 003c 00       		.byte	0
 3149 003d 06       		.uleb128 0x6
 3150 003e 13       		.uleb128 0x13
 3151 003f 01       		.byte	0x1
 3152 0040 0B       		.uleb128 0xb
 3153 0041 0B       		.uleb128 0xb
 3154 0042 3A       		.uleb128 0x3a
 3155 0043 0B       		.uleb128 0xb
 3156 0044 3B       		.uleb128 0x3b
 3157 0045 0B       		.uleb128 0xb
 3158 0046 01       		.uleb128 0x1
 3159 0047 13       		.uleb128 0x13
 3160 0048 00       		.byte	0
 3161 0049 00       		.byte	0
 3162 004a 07       		.uleb128 0x7
 3163 004b 0D       		.uleb128 0xd
 3164 004c 00       		.byte	0
 3165 004d 03       		.uleb128 0x3
 3166 004e 0E       		.uleb128 0xe
 3167 004f 3A       		.uleb128 0x3a
 3168 0050 0B       		.uleb128 0xb
 3169 0051 3B       		.uleb128 0x3b
 3170 0052 0B       		.uleb128 0xb
 3171 0053 49       		.uleb128 0x49
 3172 0054 13       		.uleb128 0x13
 3173 0055 38       		.uleb128 0x38
 3174 0056 0B       		.uleb128 0xb
 3175 0057 00       		.byte	0
 3176 0058 00       		.byte	0
 3177 0059 08       		.uleb128 0x8
 3178 005a 01       		.uleb128 0x1
 3179 005b 01       		.byte	0x1
 3180 005c 49       		.uleb128 0x49
 3181 005d 13       		.uleb128 0x13
 3182 005e 01       		.uleb128 0x1
 3183 005f 13       		.uleb128 0x13
 3184 0060 00       		.byte	0
 3185 0061 00       		.byte	0
 3186 0062 09       		.uleb128 0x9
 3187 0063 21       		.uleb128 0x21
 3188 0064 00       		.byte	0
 3189 0065 49       		.uleb128 0x49
 3190 0066 13       		.uleb128 0x13
 3191 0067 2F       		.uleb128 0x2f
 3192 0068 0B       		.uleb128 0xb
 3193 0069 00       		.byte	0
ARM GAS  C:\Users\badea\AppData\Local\Temp\cc3YEltE.s 			page 82


 3194 006a 00       		.byte	0
 3195 006b 0A       		.uleb128 0xa
 3196 006c 16       		.uleb128 0x16
 3197 006d 00       		.byte	0
 3198 006e 03       		.uleb128 0x3
 3199 006f 0E       		.uleb128 0xe
 3200 0070 3A       		.uleb128 0x3a
 3201 0071 0B       		.uleb128 0xb
 3202 0072 3B       		.uleb128 0x3b
 3203 0073 0B       		.uleb128 0xb
 3204 0074 49       		.uleb128 0x49
 3205 0075 13       		.uleb128 0x13
 3206 0076 00       		.byte	0
 3207 0077 00       		.byte	0
 3208 0078 0B       		.uleb128 0xb
 3209 0079 2E       		.uleb128 0x2e
 3210 007a 01       		.byte	0x1
 3211 007b 3F       		.uleb128 0x3f
 3212 007c 19       		.uleb128 0x19
 3213 007d 03       		.uleb128 0x3
 3214 007e 0E       		.uleb128 0xe
 3215 007f 3A       		.uleb128 0x3a
 3216 0080 0B       		.uleb128 0xb
 3217 0081 3B       		.uleb128 0x3b
 3218 0082 0B       		.uleb128 0xb
 3219 0083 27       		.uleb128 0x27
 3220 0084 19       		.uleb128 0x19
 3221 0085 49       		.uleb128 0x49
 3222 0086 13       		.uleb128 0x13
 3223 0087 11       		.uleb128 0x11
 3224 0088 01       		.uleb128 0x1
 3225 0089 12       		.uleb128 0x12
 3226 008a 06       		.uleb128 0x6
 3227 008b 40       		.uleb128 0x40
 3228 008c 18       		.uleb128 0x18
 3229 008d 9642     		.uleb128 0x2116
 3230 008f 19       		.uleb128 0x19
 3231 0090 01       		.uleb128 0x1
 3232 0091 13       		.uleb128 0x13
 3233 0092 00       		.byte	0
 3234 0093 00       		.byte	0
 3235 0094 0C       		.uleb128 0xc
 3236 0095 34       		.uleb128 0x34
 3237 0096 00       		.byte	0
 3238 0097 03       		.uleb128 0x3
 3239 0098 0E       		.uleb128 0xe
 3240 0099 3A       		.uleb128 0x3a
 3241 009a 0B       		.uleb128 0xb
 3242 009b 3B       		.uleb128 0x3b
 3243 009c 0B       		.uleb128 0xb
 3244 009d 49       		.uleb128 0x49
 3245 009e 13       		.uleb128 0x13
 3246 009f 02       		.uleb128 0x2
 3247 00a0 18       		.uleb128 0x18
 3248 00a1 00       		.byte	0
 3249 00a2 00       		.byte	0
 3250 00a3 0D       		.uleb128 0xd
ARM GAS  C:\Users\badea\AppData\Local\Temp\cc3YEltE.s 			page 83


 3251 00a4 34       		.uleb128 0x34
 3252 00a5 00       		.byte	0
 3253 00a6 03       		.uleb128 0x3
 3254 00a7 08       		.uleb128 0x8
 3255 00a8 3A       		.uleb128 0x3a
 3256 00a9 0B       		.uleb128 0xb
 3257 00aa 3B       		.uleb128 0x3b
 3258 00ab 0B       		.uleb128 0xb
 3259 00ac 49       		.uleb128 0x49
 3260 00ad 13       		.uleb128 0x13
 3261 00ae 02       		.uleb128 0x2
 3262 00af 18       		.uleb128 0x18
 3263 00b0 00       		.byte	0
 3264 00b1 00       		.byte	0
 3265 00b2 0E       		.uleb128 0xe
 3266 00b3 26       		.uleb128 0x26
 3267 00b4 00       		.byte	0
 3268 00b5 49       		.uleb128 0x49
 3269 00b6 13       		.uleb128 0x13
 3270 00b7 00       		.byte	0
 3271 00b8 00       		.byte	0
 3272 00b9 0F       		.uleb128 0xf
 3273 00ba 34       		.uleb128 0x34
 3274 00bb 00       		.byte	0
 3275 00bc 03       		.uleb128 0x3
 3276 00bd 0E       		.uleb128 0xe
 3277 00be 3A       		.uleb128 0x3a
 3278 00bf 0B       		.uleb128 0xb
 3279 00c0 3B       		.uleb128 0x3b
 3280 00c1 05       		.uleb128 0x5
 3281 00c2 49       		.uleb128 0x49
 3282 00c3 13       		.uleb128 0x13
 3283 00c4 02       		.uleb128 0x2
 3284 00c5 18       		.uleb128 0x18
 3285 00c6 00       		.byte	0
 3286 00c7 00       		.byte	0
 3287 00c8 10       		.uleb128 0x10
 3288 00c9 2E       		.uleb128 0x2e
 3289 00ca 01       		.byte	0x1
 3290 00cb 3F       		.uleb128 0x3f
 3291 00cc 19       		.uleb128 0x19
 3292 00cd 03       		.uleb128 0x3
 3293 00ce 0E       		.uleb128 0xe
 3294 00cf 3A       		.uleb128 0x3a
 3295 00d0 0B       		.uleb128 0xb
 3296 00d1 3B       		.uleb128 0x3b
 3297 00d2 05       		.uleb128 0x5
 3298 00d3 27       		.uleb128 0x27
 3299 00d4 19       		.uleb128 0x19
 3300 00d5 49       		.uleb128 0x49
 3301 00d6 13       		.uleb128 0x13
 3302 00d7 11       		.uleb128 0x11
 3303 00d8 01       		.uleb128 0x1
 3304 00d9 12       		.uleb128 0x12
 3305 00da 06       		.uleb128 0x6
 3306 00db 40       		.uleb128 0x40
 3307 00dc 18       		.uleb128 0x18
ARM GAS  C:\Users\badea\AppData\Local\Temp\cc3YEltE.s 			page 84


 3308 00dd 9642     		.uleb128 0x2116
 3309 00df 19       		.uleb128 0x19
 3310 00e0 01       		.uleb128 0x1
 3311 00e1 13       		.uleb128 0x13
 3312 00e2 00       		.byte	0
 3313 00e3 00       		.byte	0
 3314 00e4 11       		.uleb128 0x11
 3315 00e5 2E       		.uleb128 0x2e
 3316 00e6 01       		.byte	0x1
 3317 00e7 3F       		.uleb128 0x3f
 3318 00e8 19       		.uleb128 0x19
 3319 00e9 03       		.uleb128 0x3
 3320 00ea 0E       		.uleb128 0xe
 3321 00eb 3A       		.uleb128 0x3a
 3322 00ec 0B       		.uleb128 0xb
 3323 00ed 3B       		.uleb128 0x3b
 3324 00ee 05       		.uleb128 0x5
 3325 00ef 27       		.uleb128 0x27
 3326 00f0 19       		.uleb128 0x19
 3327 00f1 49       		.uleb128 0x49
 3328 00f2 13       		.uleb128 0x13
 3329 00f3 11       		.uleb128 0x11
 3330 00f4 01       		.uleb128 0x1
 3331 00f5 12       		.uleb128 0x12
 3332 00f6 06       		.uleb128 0x6
 3333 00f7 40       		.uleb128 0x40
 3334 00f8 18       		.uleb128 0x18
 3335 00f9 9742     		.uleb128 0x2117
 3336 00fb 19       		.uleb128 0x19
 3337 00fc 01       		.uleb128 0x1
 3338 00fd 13       		.uleb128 0x13
 3339 00fe 00       		.byte	0
 3340 00ff 00       		.byte	0
 3341 0100 12       		.uleb128 0x12
 3342 0101 05       		.uleb128 0x5
 3343 0102 00       		.byte	0
 3344 0103 03       		.uleb128 0x3
 3345 0104 0E       		.uleb128 0xe
 3346 0105 3A       		.uleb128 0x3a
 3347 0106 0B       		.uleb128 0xb
 3348 0107 3B       		.uleb128 0x3b
 3349 0108 05       		.uleb128 0x5
 3350 0109 49       		.uleb128 0x49
 3351 010a 13       		.uleb128 0x13
 3352 010b 02       		.uleb128 0x2
 3353 010c 18       		.uleb128 0x18
 3354 010d 00       		.byte	0
 3355 010e 00       		.byte	0
 3356 010f 13       		.uleb128 0x13
 3357 0110 05       		.uleb128 0x5
 3358 0111 00       		.byte	0
 3359 0112 03       		.uleb128 0x3
 3360 0113 08       		.uleb128 0x8
 3361 0114 3A       		.uleb128 0x3a
 3362 0115 0B       		.uleb128 0xb
 3363 0116 3B       		.uleb128 0x3b
 3364 0117 05       		.uleb128 0x5
ARM GAS  C:\Users\badea\AppData\Local\Temp\cc3YEltE.s 			page 85


 3365 0118 49       		.uleb128 0x49
 3366 0119 13       		.uleb128 0x13
 3367 011a 02       		.uleb128 0x2
 3368 011b 18       		.uleb128 0x18
 3369 011c 00       		.byte	0
 3370 011d 00       		.byte	0
 3371 011e 14       		.uleb128 0x14
 3372 011f 0F       		.uleb128 0xf
 3373 0120 00       		.byte	0
 3374 0121 0B       		.uleb128 0xb
 3375 0122 0B       		.uleb128 0xb
 3376 0123 49       		.uleb128 0x49
 3377 0124 13       		.uleb128 0x13
 3378 0125 00       		.byte	0
 3379 0126 00       		.byte	0
 3380 0127 15       		.uleb128 0x15
 3381 0128 2E       		.uleb128 0x2e
 3382 0129 00       		.byte	0
 3383 012a 3F       		.uleb128 0x3f
 3384 012b 19       		.uleb128 0x19
 3385 012c 03       		.uleb128 0x3
 3386 012d 0E       		.uleb128 0xe
 3387 012e 3A       		.uleb128 0x3a
 3388 012f 0B       		.uleb128 0xb
 3389 0130 3B       		.uleb128 0x3b
 3390 0131 05       		.uleb128 0x5
 3391 0132 27       		.uleb128 0x27
 3392 0133 19       		.uleb128 0x19
 3393 0134 49       		.uleb128 0x49
 3394 0135 13       		.uleb128 0x13
 3395 0136 11       		.uleb128 0x11
 3396 0137 01       		.uleb128 0x1
 3397 0138 12       		.uleb128 0x12
 3398 0139 06       		.uleb128 0x6
 3399 013a 40       		.uleb128 0x40
 3400 013b 18       		.uleb128 0x18
 3401 013c 9742     		.uleb128 0x2117
 3402 013e 19       		.uleb128 0x19
 3403 013f 00       		.byte	0
 3404 0140 00       		.byte	0
 3405 0141 16       		.uleb128 0x16
 3406 0142 34       		.uleb128 0x34
 3407 0143 00       		.byte	0
 3408 0144 03       		.uleb128 0x3
 3409 0145 0E       		.uleb128 0xe
 3410 0146 3A       		.uleb128 0x3a
 3411 0147 0B       		.uleb128 0xb
 3412 0148 3B       		.uleb128 0x3b
 3413 0149 0B       		.uleb128 0xb
 3414 014a 49       		.uleb128 0x49
 3415 014b 13       		.uleb128 0x13
 3416 014c 3F       		.uleb128 0x3f
 3417 014d 19       		.uleb128 0x19
 3418 014e 02       		.uleb128 0x2
 3419 014f 18       		.uleb128 0x18
 3420 0150 00       		.byte	0
 3421 0151 00       		.byte	0
ARM GAS  C:\Users\badea\AppData\Local\Temp\cc3YEltE.s 			page 86


 3422 0152 00       		.byte	0
 3423              		.section	.debug_aranges,"",%progbits
 3424 0000 C4000000 		.4byte	0xc4
 3425 0004 0200     		.2byte	0x2
 3426 0006 00000000 		.4byte	.Ldebug_info0
 3427 000a 04       		.byte	0x4
 3428 000b 00       		.byte	0
 3429 000c 0000     		.2byte	0
 3430 000e 0000     		.2byte	0
 3431 0010 00000000 		.4byte	.LFB0
 3432 0014 80000000 		.4byte	.LFE0-.LFB0
 3433 0018 00000000 		.4byte	.LFB1
 3434 001c 28010000 		.4byte	.LFE1-.LFB1
 3435 0020 00000000 		.4byte	.LFB2
 3436 0024 A4000000 		.4byte	.LFE2-.LFB2
 3437 0028 00000000 		.4byte	.LFB3
 3438 002c 3C000000 		.4byte	.LFE3-.LFB3
 3439 0030 00000000 		.4byte	.LFB4
 3440 0034 94000000 		.4byte	.LFE4-.LFB4
 3441 0038 00000000 		.4byte	.LFB5
 3442 003c 3C000000 		.4byte	.LFE5-.LFB5
 3443 0040 00000000 		.4byte	.LFB6
 3444 0044 3C000000 		.4byte	.LFE6-.LFB6
 3445 0048 00000000 		.4byte	.LFB7
 3446 004c 40000000 		.4byte	.LFE7-.LFB7
 3447 0050 00000000 		.4byte	.LFB8
 3448 0054 6C000000 		.4byte	.LFE8-.LFB8
 3449 0058 00000000 		.4byte	.LFB9
 3450 005c D4000000 		.4byte	.LFE9-.LFB9
 3451 0060 00000000 		.4byte	.LFB10
 3452 0064 6C000000 		.4byte	.LFE10-.LFB10
 3453 0068 00000000 		.4byte	.LFB11
 3454 006c 6C000000 		.4byte	.LFE11-.LFB11
 3455 0070 00000000 		.4byte	.LFB12
 3456 0074 C8000000 		.4byte	.LFE12-.LFB12
 3457 0078 00000000 		.4byte	.LFB13
 3458 007c A0000000 		.4byte	.LFE13-.LFB13
 3459 0080 00000000 		.4byte	.LFB14
 3460 0084 34000000 		.4byte	.LFE14-.LFB14
 3461 0088 00000000 		.4byte	.LFB15
 3462 008c 24000000 		.4byte	.LFE15-.LFB15
 3463 0090 00000000 		.4byte	.LFB16
 3464 0094 24000000 		.4byte	.LFE16-.LFB16
 3465 0098 00000000 		.4byte	.LFB17
 3466 009c 18000000 		.4byte	.LFE17-.LFB17
 3467 00a0 00000000 		.4byte	.LFB18
 3468 00a4 18000000 		.4byte	.LFE18-.LFB18
 3469 00a8 00000000 		.4byte	.LFB19
 3470 00ac 1C000000 		.4byte	.LFE19-.LFB19
 3471 00b0 00000000 		.4byte	.LFB20
 3472 00b4 EC000000 		.4byte	.LFE20-.LFB20
 3473 00b8 00000000 		.4byte	.LFB21
 3474 00bc 88000000 		.4byte	.LFE21-.LFB21
 3475 00c0 00000000 		.4byte	0
 3476 00c4 00000000 		.4byte	0
 3477              		.section	.debug_ranges,"",%progbits
 3478              	.Ldebug_ranges0:
ARM GAS  C:\Users\badea\AppData\Local\Temp\cc3YEltE.s 			page 87


 3479 0000 00000000 		.4byte	.LFB0
 3480 0004 80000000 		.4byte	.LFE0
 3481 0008 00000000 		.4byte	.LFB1
 3482 000c 28010000 		.4byte	.LFE1
 3483 0010 00000000 		.4byte	.LFB2
 3484 0014 A4000000 		.4byte	.LFE2
 3485 0018 00000000 		.4byte	.LFB3
 3486 001c 3C000000 		.4byte	.LFE3
 3487 0020 00000000 		.4byte	.LFB4
 3488 0024 94000000 		.4byte	.LFE4
 3489 0028 00000000 		.4byte	.LFB5
 3490 002c 3C000000 		.4byte	.LFE5
 3491 0030 00000000 		.4byte	.LFB6
 3492 0034 3C000000 		.4byte	.LFE6
 3493 0038 00000000 		.4byte	.LFB7
 3494 003c 40000000 		.4byte	.LFE7
 3495 0040 00000000 		.4byte	.LFB8
 3496 0044 6C000000 		.4byte	.LFE8
 3497 0048 00000000 		.4byte	.LFB9
 3498 004c D4000000 		.4byte	.LFE9
 3499 0050 00000000 		.4byte	.LFB10
 3500 0054 6C000000 		.4byte	.LFE10
 3501 0058 00000000 		.4byte	.LFB11
 3502 005c 6C000000 		.4byte	.LFE11
 3503 0060 00000000 		.4byte	.LFB12
 3504 0064 C8000000 		.4byte	.LFE12
 3505 0068 00000000 		.4byte	.LFB13
 3506 006c A0000000 		.4byte	.LFE13
 3507 0070 00000000 		.4byte	.LFB14
 3508 0074 34000000 		.4byte	.LFE14
 3509 0078 00000000 		.4byte	.LFB15
 3510 007c 24000000 		.4byte	.LFE15
 3511 0080 00000000 		.4byte	.LFB16
 3512 0084 24000000 		.4byte	.LFE16
 3513 0088 00000000 		.4byte	.LFB17
 3514 008c 18000000 		.4byte	.LFE17
 3515 0090 00000000 		.4byte	.LFB18
 3516 0094 18000000 		.4byte	.LFE18
 3517 0098 00000000 		.4byte	.LFB19
 3518 009c 1C000000 		.4byte	.LFE19
 3519 00a0 00000000 		.4byte	.LFB20
 3520 00a4 EC000000 		.4byte	.LFE20
 3521 00a8 00000000 		.4byte	.LFB21
 3522 00ac 88000000 		.4byte	.LFE21
 3523 00b0 00000000 		.4byte	0
 3524 00b4 00000000 		.4byte	0
 3525              		.section	.debug_line,"",%progbits
 3526              	.Ldebug_line0:
 3527 0000 40030000 		.section	.debug_str,"MS",%progbits,1
 3527      02004900 
 3527      00000201 
 3527      FB0E0D00 
 3527      01010101 
 3528              	.LASF75:
 3529 0000 43414E5F 		.ascii	"CAN_GetRXErrorCount\000"
 3529      47657452 
 3529      58457272 
ARM GAS  C:\Users\badea\AppData\Local\Temp\cc3YEltE.s 			page 88


 3529      6F72436F 
 3529      756E7400 
 3530              	.LASF10:
 3531 0014 75696E74 		.ascii	"uint16\000"
 3531      313600
 3532              	.LASF61:
 3533 001b 72657365 		.ascii	"reset\000"
 3533      7400
 3534              	.LASF63:
 3535 0021 65646765 		.ascii	"edge\000"
 3535      00
 3536              	.LASF48:
 3537 0026 43414E5F 		.ascii	"CAN_Start\000"
 3537      53746172 
 3537      7400
 3538              	.LASF42:
 3539 0030 43414E5F 		.ascii	"CAN_RxTxBuffersConfig\000"
 3539      52785478 
 3539      42756666 
 3539      65727343 
 3539      6F6E6669 
 3540              	.LASF81:
 3541 0046 474E5520 		.ascii	"GNU C11 5.4.1 20160609 (release) [ARM/embedded-5-br"
 3541      43313120 
 3541      352E342E 
 3541      31203230 
 3541      31363036 
 3542 0079 616E6368 		.ascii	"anch revision 237715] -mcpu=cortex-m3 -mthumb -g -O"
 3542      20726576 
 3542      6973696F 
 3542      6E203233 
 3542      37373135 
 3543 00ac 30202D66 		.ascii	"0 -ffunction-sections -ffat-lto-objects\000"
 3543      66756E63 
 3543      74696F6E 
 3543      2D736563 
 3543      74696F6E 
 3544              	.LASF49:
 3545 00d4 43414E5F 		.ascii	"CAN_Stop\000"
 3545      53746F70 
 3545      00
 3546              	.LASF7:
 3547 00dd 6C6F6E67 		.ascii	"long long unsigned int\000"
 3547      206C6F6E 
 3547      6720756E 
 3547      7369676E 
 3547      65642069 
 3548              	.LASF29:
 3549 00f4 7478636D 		.ascii	"txcmd\000"
 3549      6400
 3550              	.LASF34:
 3551 00fa 7278616D 		.ascii	"rxamrd\000"
 3551      726400
 3552              	.LASF84:
 3553 0101 43414E5F 		.ascii	"CAN_initVar\000"
 3553      696E6974 
 3553      56617200 
ARM GAS  C:\Users\badea\AppData\Local\Temp\cc3YEltE.s 			page 89


 3554              	.LASF54:
 3555 010d 62697472 		.ascii	"bitrate\000"
 3555      61746500 
 3556              	.LASF6:
 3557 0115 6C6F6E67 		.ascii	"long long int\000"
 3557      206C6F6E 
 3557      6720696E 
 3557      7400
 3558              	.LASF0:
 3559 0123 7369676E 		.ascii	"signed char\000"
 3559      65642063 
 3559      68617200 
 3560              	.LASF51:
 3561 012f 43414E5F 		.ascii	"CAN_GlobalIntDisable\000"
 3561      476C6F62 
 3561      616C496E 
 3561      74446973 
 3561      61626C65 
 3562              	.LASF66:
 3563 0144 72756E53 		.ascii	"runState\000"
 3563      74617465 
 3563      00
 3564              	.LASF4:
 3565 014d 6C6F6E67 		.ascii	"long int\000"
 3565      20696E74 
 3565      00
 3566              	.LASF33:
 3567 0156 72786461 		.ascii	"rxdata\000"
 3567      746100
 3568              	.LASF16:
 3569 015d 72656731 		.ascii	"reg16\000"
 3569      3600
 3570              	.LASF9:
 3571 0163 75696E74 		.ascii	"uint8\000"
 3571      3800
 3572              	.LASF25:
 3573 0169 7278616D 		.ascii	"rxamr\000"
 3573      7200
 3574              	.LASF13:
 3575 016f 646F7562 		.ascii	"double\000"
 3575      6C6500
 3576              	.LASF11:
 3577 0176 75696E74 		.ascii	"uint32\000"
 3577      333200
 3578              	.LASF21:
 3579 017d 62797465 		.ascii	"byte\000"
 3579      00
 3580              	.LASF71:
 3581 0182 6D61736B 		.ascii	"mask\000"
 3581      00
 3582              	.LASF73:
 3583 0187 43414E5F 		.ascii	"CAN_GetRXErrorFlag\000"
 3583      47657452 
 3583      58457272 
 3583      6F72466C 
 3583      616700
 3584              	.LASF70:
ARM GAS  C:\Users\badea\AppData\Local\Temp\cc3YEltE.s 			page 90


 3585 019a 43414E5F 		.ascii	"CAN_SetIrqMask\000"
 3585      53657449 
 3585      72714D61 
 3585      736B00
 3586              	.LASF8:
 3587 01a9 756E7369 		.ascii	"unsigned int\000"
 3587      676E6564 
 3587      20696E74 
 3587      00
 3588              	.LASF5:
 3589 01b6 6C6F6E67 		.ascii	"long unsigned int\000"
 3589      20756E73 
 3589      69676E65 
 3589      6420696E 
 3589      7400
 3590              	.LASF44:
 3591 01c8 74696D65 		.ascii	"timeout\000"
 3591      6F757400 
 3592              	.LASF64:
 3593 01d0 43414E5F 		.ascii	"CAN_SetOpMode\000"
 3593      5365744F 
 3593      704D6F64 
 3593      6500
 3594              	.LASF3:
 3595 01de 73686F72 		.ascii	"short unsigned int\000"
 3595      7420756E 
 3595      7369676E 
 3595      65642069 
 3595      6E7400
 3596              	.LASF36:
 3597 01f1 43414E5F 		.ascii	"CAN_RX_STRUCT\000"
 3597      52585F53 
 3597      54525543 
 3597      5400
 3598              	.LASF39:
 3599 01ff 43414E5F 		.ascii	"CAN_RXConfigStruct\000"
 3599      5258436F 
 3599      6E666967 
 3599      53747275 
 3599      637400
 3600              	.LASF50:
 3601 0212 43414E5F 		.ascii	"CAN_GlobalIntEnable\000"
 3601      476C6F62 
 3601      616C496E 
 3601      74456E61 
 3601      626C6500 
 3602              	.LASF27:
 3603 0226 43414E5F 		.ascii	"CAN_RX_CFG\000"
 3603      52585F43 
 3603      464700
 3604              	.LASF65:
 3605 0231 6F704D6F 		.ascii	"opMode\000"
 3605      646500
 3606              	.LASF53:
 3607 0238 43414E5F 		.ascii	"CAN_SetArbiter\000"
 3607      53657441 
 3607      72626974 
ARM GAS  C:\Users\badea\AppData\Local\Temp\cc3YEltE.s 			page 91


 3607      657200
 3608              	.LASF83:
 3609 0247 433A5C55 		.ascii	"C:\\Users\\badea\\Documents\\PSoC Creator\\can_bun\\"
 3609      73657273 
 3609      5C626164 
 3609      65615C44 
 3609      6F63756D 
 3610 0275 48434D5F 		.ascii	"HCM_UPBDrive.cydsn\000"
 3610      55504244 
 3610      72697665 
 3610      2E637964 
 3610      736E00
 3611              	.LASF78:
 3612 0288 7278436F 		.ascii	"rxConfig\000"
 3612      6E666967 
 3612      00
 3613              	.LASF37:
 3614 0291 74786461 		.ascii	"txdata\000"
 3614      746100
 3615              	.LASF17:
 3616 0298 72656733 		.ascii	"reg32\000"
 3616      3200
 3617              	.LASF74:
 3618 029e 43414E5F 		.ascii	"CAN_GetTXErrorCount\000"
 3618      47657454 
 3618      58457272 
 3618      6F72436F 
 3618      756E7400 
 3619              	.LASF43:
 3620 02b2 43414E5F 		.ascii	"CAN_Init\000"
 3620      496E6974 
 3620      00
 3621              	.LASF68:
 3622 02bb 72656741 		.ascii	"regAddr\000"
 3622      64647200 
 3623              	.LASF59:
 3624 02c3 63666754 		.ascii	"cfgTemp\000"
 3624      656D7000 
 3625              	.LASF23:
 3626 02cb 72786D61 		.ascii	"rxmailbox\000"
 3626      696C626F 
 3626      7800
 3627              	.LASF22:
 3628 02d5 43414E5F 		.ascii	"CAN_REG_32\000"
 3628      5245475F 
 3628      333200
 3629              	.LASF19:
 3630 02e0 73697A65 		.ascii	"sizetype\000"
 3630      74797065 
 3630      00
 3631              	.LASF18:
 3632 02e9 6C6F6E67 		.ascii	"long double\000"
 3632      20646F75 
 3632      626C6500 
 3633              	.LASF76:
 3634 02f5 43414E5F 		.ascii	"CAN_GetErrorState\000"
 3634      47657445 
ARM GAS  C:\Users\badea\AppData\Local\Temp\cc3YEltE.s 			page 92


 3634      72726F72 
 3634      53746174 
 3634      6500
 3635              	.LASF32:
 3636 0307 72786964 		.ascii	"rxid\000"
 3636      00
 3637              	.LASF67:
 3638 030c 43414E5F 		.ascii	"CAN_RXRegisterInit\000"
 3638      52585265 
 3638      67697374 
 3638      6572496E 
 3638      697400
 3639              	.LASF12:
 3640 031f 666C6F61 		.ascii	"float\000"
 3640      7400
 3641              	.LASF15:
 3642 0325 72656738 		.ascii	"reg8\000"
 3642      00
 3643              	.LASF1:
 3644 032a 756E7369 		.ascii	"unsigned char\000"
 3644      676E6564 
 3644      20636861 
 3644      7200
 3645              	.LASF2:
 3646 0338 73686F72 		.ascii	"short int\000"
 3646      7420696E 
 3646      7400
 3647              	.LASF72:
 3648 0342 43414E5F 		.ascii	"CAN_GetTXErrorFlag\000"
 3648      47657454 
 3648      58457272 
 3648      6F72466C 
 3648      616700
 3649              	.LASF47:
 3650 0355 43414E5F 		.ascii	"CAN_Enable\000"
 3650      456E6162 
 3650      6C6500
 3651              	.LASF38:
 3652 0360 43414E5F 		.ascii	"CAN_TX_STRUCT\000"
 3652      54585F53 
 3652      54525543 
 3652      5400
 3653              	.LASF82:
 3654 036e 47656E65 		.ascii	"Generated_Source\\PSoC5\\CAN.c\000"
 3654      72617465 
 3654      645F536F 
 3654      75726365 
 3654      5C50536F 
 3655              	.LASF52:
 3656 038b 43414E5F 		.ascii	"CAN_SetPreScaler\000"
 3656      53657450 
 3656      72655363 
 3656      616C6572 
 3656      00
 3657              	.LASF14:
 3658 039c 63686172 		.ascii	"char\000"
 3658      00
ARM GAS  C:\Users\badea\AppData\Local\Temp\cc3YEltE.s 			page 93


 3659              	.LASF62:
 3660 03a1 43414E5F 		.ascii	"CAN_SetEdgeMode\000"
 3660      53657445 
 3660      6467654D 
 3660      6F646500 
 3661              	.LASF69:
 3662 03b1 636F6E66 		.ascii	"config\000"
 3662      696700
 3663              	.LASF79:
 3664 03b8 43414E5F 		.ascii	"CAN_TxBufConfig\000"
 3664      54784275 
 3664      66436F6E 
 3664      66696700 
 3665              	.LASF45:
 3666 03c8 6C6F6361 		.ascii	"localResult\000"
 3666      6C526573 
 3666      756C7400 
 3667              	.LASF40:
 3668 03d4 43414E5F 		.ascii	"CAN_TXConfigStruct\000"
 3668      5458436F 
 3668      6E666967 
 3668      53747275 
 3668      637400
 3669              	.LASF20:
 3670 03e7 43414E5F 		.ascii	"CAN_DATA_BYTES\000"
 3670      44415441 
 3670      5F425954 
 3670      455300
 3671              	.LASF28:
 3672 03f6 74786D61 		.ascii	"txmailbox\000"
 3672      696C626F 
 3672      7800
 3673              	.LASF57:
 3674 0400 63666754 		.ascii	"cfgTseg1\000"
 3674      73656731 
 3674      00
 3675              	.LASF58:
 3676 0409 63666754 		.ascii	"cfgTseg2\000"
 3676      73656732 
 3676      00
 3677              	.LASF56:
 3678 0412 43414E5F 		.ascii	"CAN_SetTsegSample\000"
 3678      53657454 
 3678      73656753 
 3678      616D706C 
 3678      6500
 3679              	.LASF24:
 3680 0424 7278636D 		.ascii	"rxcmd\000"
 3680      6400
 3681              	.LASF80:
 3682 042a 7478436F 		.ascii	"txConfig\000"
 3682      6E666967 
 3682      00
 3683              	.LASF46:
 3684 0433 656E6162 		.ascii	"enableInterrupts\000"
 3684      6C65496E 
 3684      74657272 
ARM GAS  C:\Users\badea\AppData\Local\Temp\cc3YEltE.s 			page 94


 3684      75707473 
 3684      00
 3685              	.LASF77:
 3686 0444 43414E5F 		.ascii	"CAN_RxBufConfig\000"
 3686      52784275 
 3686      66436F6E 
 3686      66696700 
 3687              	.LASF30:
 3688 0454 74786964 		.ascii	"txid\000"
 3688      00
 3689              	.LASF26:
 3690 0459 72786163 		.ascii	"rxacr\000"
 3690      7200
 3691              	.LASF55:
 3692 045f 61726269 		.ascii	"arbiter\000"
 3692      74657200 
 3693              	.LASF35:
 3694 0467 72786163 		.ascii	"rxacrd\000"
 3694      726400
 3695              	.LASF31:
 3696 046e 43414E5F 		.ascii	"CAN_TX_CFG\000"
 3696      54585F43 
 3696      464700
 3697              	.LASF41:
 3698 0479 72657375 		.ascii	"result\000"
 3698      6C7400
 3699              	.LASF60:
 3700 0480 43414E5F 		.ascii	"CAN_SetRestartType\000"
 3700      53657452 
 3700      65737461 
 3700      72745479 
 3700      706500
 3701              		.ident	"GCC: (GNU Tools for ARM Embedded Processors) 5.4.1 20160609 (release) [ARM/embedded-5-bran
