ARM GAS  C:\Users\badea\AppData\Local\Temp\cco4ttRF.s 			page 1


   1              		.syntax unified
   2              		.cpu cortex-m3
   3              		.fpu softvfp
   4              		.eabi_attribute 20, 1
   5              		.eabi_attribute 21, 1
   6              		.eabi_attribute 23, 3
   7              		.eabi_attribute 24, 1
   8              		.eabi_attribute 25, 1
   9              		.eabi_attribute 26, 1
  10              		.eabi_attribute 30, 1
  11              		.eabi_attribute 34, 1
  12              		.eabi_attribute 18, 4
  13              		.thumb
  14              		.syntax unified
  15              		.file	"can_comm.c"
  16              		.text
  17              	.Ltext0:
  18              		.cfi_sections	.debug_frame
  19              		.section	.text.CAN_Transmit_To_ESC,"ax",%progbits
  20              		.align	2
  21              		.global	CAN_Transmit_To_ESC
  22              		.thumb
  23              		.thumb_func
  24              		.type	CAN_Transmit_To_ESC, %function
  25              	CAN_Transmit_To_ESC:
  26              	.LFB63:
  27              		.file 1 "src\\can_comm.c"
   1:src/can_comm.c **** /*
   2:src/can_comm.c **** * File:        can_comm.c
   3:src/can_comm.c **** * Description: TBC
   4:src/can_comm.c **** */
   5:src/can_comm.c **** 
   6:src/can_comm.c **** #include <include/can_comm.h>
   7:src/can_comm.c **** 
   8:src/can_comm.c **** volatile uint8_t CANisrFlag = 0u;
   9:src/can_comm.c **** 
  10:src/can_comm.c **** vehicle_status_t car_state;
  11:src/can_comm.c **** 
  12:src/can_comm.c **** void CAN_Transmit_To_ESC()
  13:src/can_comm.c **** {
  28              		.loc 1 13 0
  29              		.cfi_startproc
  30              		@ args = 0, pretend = 0, frame = 0
  31              		@ frame_needed = 0, uses_anonymous_args = 0
  32 0000 08B5     		push	{r3, lr}
  33              		.cfi_def_cfa_offset 8
  34              		.cfi_offset 3, -8
  35              		.cfi_offset 14, -4
  14:src/can_comm.c ****     CAN_TX_DATA_BYTE1(CAN_TX_MAILBOX_ESC_control) = CMD_MODE;
  36              		.loc 1 14 0
  37 0002 064B     		ldr	r3, .L3
  38 0004 0022     		movs	r2, #0
  39 0006 DA72     		strb	r2, [r3, #11]
  15:src/can_comm.c ****     CAN_TX_DATA_BYTE2(CAN_TX_MAILBOX_ESC_control) = 3u; //DRIVING MODE (0 - fw, 2 - curr, 8 - brk)
  40              		.loc 1 15 0
  41 0008 0322     		movs	r2, #3
  42 000a 9A72     		strb	r2, [r3, #10]
ARM GAS  C:\Users\badea\AppData\Local\Temp\cco4ttRF.s 			page 2


  16:src/can_comm.c ****     CAN_TX_DATA_BYTE3(CAN_TX_MAILBOX_ESC_control) = 0x0C; //duty cycle - first byte
  43              		.loc 1 16 0
  44 000c 0C22     		movs	r2, #12
  45 000e 5A72     		strb	r2, [r3, #9]
  17:src/can_comm.c ****     CAN_TX_DATA_BYTE4(CAN_TX_MAILBOX_ESC_control) = 0xCC; //duty cycle - 2nd byte
  46              		.loc 1 17 0
  47 0010 CC22     		movs	r2, #204
  48 0012 1A72     		strb	r2, [r3, #8]
  18:src/can_comm.c ****     CAN_SendMsgESC_control();
  49              		.loc 1 18 0
  50 0014 FFF7FEFF 		bl	CAN_SendMsgESC_control
  51              	.LVL0:
  52 0018 08BD     		pop	{r3, pc}
  53              	.L4:
  54 001a 00BF     		.align	2
  55              	.L3:
  56 001c 20A00040 		.word	1073782816
  57              		.cfi_endproc
  58              	.LFE63:
  59              		.size	CAN_Transmit_To_ESC, .-CAN_Transmit_To_ESC
  60              		.section	.text.CAN_Read_From_ECU,"ax",%progbits
  61              		.align	2
  62              		.global	CAN_Read_From_ECU
  63              		.thumb
  64              		.thumb_func
  65              		.type	CAN_Read_From_ECU, %function
  66              	CAN_Read_From_ECU:
  67              	.LFB64:
  19:src/can_comm.c **** }
  20:src/can_comm.c **** 
  21:src/can_comm.c **** uint8_t CAN_Read_From_ECU()
  22:src/can_comm.c **** {
  68              		.loc 1 22 0
  69              		.cfi_startproc
  70              		@ args = 0, pretend = 0, frame = 0
  71              		@ frame_needed = 0, uses_anonymous_args = 0
  72              		@ link register save eliminated.
  23:src/can_comm.c ****     if (CANisrFlag)
  73              		.loc 1 23 0
  74 0000 234B     		ldr	r3, .L18
  75 0002 1B78     		ldrb	r3, [r3]	@ zero_extendqisi2
  76 0004 03F0FF00 		and	r0, r3, #255
  77 0008 002B     		cmp	r3, #0
  78 000a 40D0     		beq	.L17
  22:src/can_comm.c ****     if (CANisrFlag)
  79              		.loc 1 22 0
  80 000c 30B4     		push	{r4, r5}
  81              		.cfi_def_cfa_offset 8
  82              		.cfi_offset 4, -8
  83              		.cfi_offset 5, -4
  24:src/can_comm.c ****     {
  25:src/can_comm.c ****         car_state.rpm = CAN_RX_DATA_BYTE1(CAN_RX_MAILBOX_ECU_receive) * RPM_MULTIPLIER;
  84              		.loc 1 25 0
  85 000e 214B     		ldr	r3, .L18+4
  86 0010 DB7A     		ldrb	r3, [r3, #11]	@ zero_extendqisi2
  87 0012 03EB8303 		add	r3, r3, r3, lsl #2
  88 0016 03EB8303 		add	r3, r3, r3, lsl #2
ARM GAS  C:\Users\badea\AppData\Local\Temp\cco4ttRF.s 			page 3


  89 001a 9A00     		lsls	r2, r3, #2
  90 001c 93B2     		uxth	r3, r2
  91 001e 1E4A     		ldr	r2, .L18+8
  92 0020 5380     		strh	r3, [r2, #2]	@ movhi
  26:src/can_comm.c **** 
  27:src/can_comm.c ****         if (car_state.rpm > RPM_THRESHOLD)
  93              		.loc 1 27 0
  94 0022 B3F57A7F 		cmp	r3, #1000
  95 0026 02D9     		bls	.L7
  28:src/can_comm.c ****             car_state.engine_state = 1;
  96              		.loc 1 28 0
  97 0028 0121     		movs	r1, #1
  98 002a 1170     		strb	r1, [r2]
  99 002c 02E0     		b	.L8
 100              	.L7:
  29:src/can_comm.c ****         else
  30:src/can_comm.c ****             car_state.engine_state = 0;
 101              		.loc 1 30 0
 102 002e 0021     		movs	r1, #0
 103 0030 194A     		ldr	r2, .L18+8
 104 0032 1170     		strb	r1, [r2]
 105              	.L8:
  31:src/can_comm.c **** 
  32:src/can_comm.c ****         car_state.gear = CAN_RX_DATA_BYTE2(CAN_RX_MAILBOX_ECU_receive);
 106              		.loc 1 32 0
 107 0034 174A     		ldr	r2, .L18+4
 108 0036 917A     		ldrb	r1, [r2, #10]	@ zero_extendqisi2
 109 0038 C9B2     		uxtb	r1, r1
 110 003a 174D     		ldr	r5, .L18+8
 111 003c E971     		strb	r1, [r5, #7]
  33:src/can_comm.c ****         car_state.tps = CAN_RX_DATA_BYTE3(CAN_RX_MAILBOX_ECU_receive);
 112              		.loc 1 33 0
 113 003e 507A     		ldrb	r0, [r2, #9]	@ zero_extendqisi2
 114 0040 C0B2     		uxtb	r0, r0
 115 0042 2871     		strb	r0, [r5, #4]
  34:src/can_comm.c ****         car_state.vss = CAN_RX_DATA_BYTE4(CAN_RX_MAILBOX_ECU_receive);
 116              		.loc 1 34 0
 117 0044 147A     		ldrb	r4, [r2, #8]	@ zero_extendqisi2
 118 0046 E4B2     		uxtb	r4, r4
 119 0048 6C71     		strb	r4, [r5, #5]
  35:src/can_comm.c **** 
  36:src/can_comm.c ****         if (CAN_RX_DATA_BYTE5(CAN_RX_MAILBOX_ECU_receive) > BRAKE_THRESHOLD)
 120              		.loc 1 36 0
 121 004a D27B     		ldrb	r2, [r2, #15]	@ zero_extendqisi2
 122 004c D2B2     		uxtb	r2, r2
 123 004e 502A     		cmp	r2, #80
 124 0050 03D9     		bls	.L9
  37:src/can_comm.c ****             car_state.brake_state = 1;
 125              		.loc 1 37 0
 126 0052 0125     		movs	r5, #1
 127 0054 104A     		ldr	r2, .L18+8
 128 0056 9571     		strb	r5, [r2, #6]
 129 0058 02E0     		b	.L10
 130              	.L9:
  38:src/can_comm.c ****         else
  39:src/can_comm.c ****             car_state.brake_state = 0;
 131              		.loc 1 39 0
ARM GAS  C:\Users\badea\AppData\Local\Temp\cco4ttRF.s 			page 4


 132 005a 0025     		movs	r5, #0
 133 005c 0E4A     		ldr	r2, .L18+8
 134 005e 9571     		strb	r5, [r2, #6]
 135              	.L10:
  40:src/can_comm.c **** 
  41:src/can_comm.c ****         if ((car_state.rpm > MAX_RPM) || (car_state.gear > 5) || (car_state.tps > 100) || (car_stat
 136              		.loc 1 41 0
 137 0060 43F2B062 		movw	r2, #14000
 138 0064 9342     		cmp	r3, r2
 139 0066 0AD8     		bhi	.L11
 140              		.loc 1 41 0 is_stmt 0 discriminator 1
 141 0068 0529     		cmp	r1, #5
 142 006a 0AD8     		bhi	.L12
 143              		.loc 1 41 0 discriminator 2
 144 006c 6428     		cmp	r0, #100
 145 006e 0AD8     		bhi	.L13
 146              		.loc 1 41 0 discriminator 3
 147 0070 822C     		cmp	r4, #130
 148 0072 0AD8     		bhi	.L14
  42:src/can_comm.c ****             return 0; // Values out of bounds, failed read from can
  43:src/can_comm.c ****         
  44:src/can_comm.c ****         CANisrFlag = 0; // Clear interrupt flag
 149              		.loc 1 44 0 is_stmt 1
 150 0074 0022     		movs	r2, #0
 151 0076 064B     		ldr	r3, .L18
 152 0078 1A70     		strb	r2, [r3]
  45:src/can_comm.c **** 
  46:src/can_comm.c ****         return 1;
 153              		.loc 1 46 0
 154 007a 0120     		movs	r0, #1
 155 007c 06E0     		b	.L6
 156              	.L11:
  42:src/can_comm.c ****             return 0; // Values out of bounds, failed read from can
 157              		.loc 1 42 0
 158 007e 0020     		movs	r0, #0
 159 0080 04E0     		b	.L6
 160              	.L12:
 161 0082 0020     		movs	r0, #0
 162 0084 02E0     		b	.L6
 163              	.L13:
 164 0086 0020     		movs	r0, #0
 165 0088 00E0     		b	.L6
 166              	.L14:
 167 008a 0020     		movs	r0, #0
 168              	.L6:
  47:src/can_comm.c ****     }
  48:src/can_comm.c ****     else
  49:src/can_comm.c ****         return 0;
  50:src/can_comm.c **** }
 169              		.loc 1 50 0
 170 008c 30BC     		pop	{r4, r5}
 171              		.cfi_restore 5
 172              		.cfi_restore 4
 173              		.cfi_def_cfa_offset 0
 174              	.L17:
 175 008e 7047     		bx	lr
 176              	.L19:
ARM GAS  C:\Users\badea\AppData\Local\Temp\cco4ttRF.s 			page 5


 177              		.align	2
 178              	.L18:
 179 0090 00000000 		.word	.LANCHOR0
 180 0094 A0A00040 		.word	1073782944
 181 0098 00000000 		.word	car_state
 182              		.cfi_endproc
 183              	.LFE64:
 184              		.size	CAN_Read_From_ECU, .-CAN_Read_From_ECU
 185              		.section	.text.ISR_CAN,"ax",%progbits
 186              		.align	2
 187              		.global	ISR_CAN
 188              		.thumb
 189              		.thumb_func
 190              		.type	ISR_CAN, %function
 191              	ISR_CAN:
 192              	.LFB65:
  51:src/can_comm.c **** 
  52:src/can_comm.c **** CY_ISR(ISR_CAN)
  53:src/can_comm.c **** {
 193              		.loc 1 53 0
 194              		.cfi_startproc
 195              		@ args = 0, pretend = 0, frame = 0
 196              		@ frame_needed = 0, uses_anonymous_args = 0
 197              		@ link register save eliminated.
  54:src/can_comm.c ****     CAN_INT_SR_REG.byte[1u] = CAN_RX_MESSAGE_MASK; // Clear Receive Message flag
 198              		.loc 1 54 0
 199 0000 1022     		movs	r2, #16
 200 0002 054B     		ldr	r3, .L21
 201 0004 5A70     		strb	r2, [r3, #1]
  55:src/can_comm.c ****     CANisrFlag = 1u; // Set interrupt flag
 202              		.loc 1 55 0
 203 0006 0122     		movs	r2, #1
 204 0008 044B     		ldr	r3, .L21+4
 205 000a 1A70     		strb	r2, [r3]
  56:src/can_comm.c ****     CAN_RX_ACK_MESSAGE(CAN_RX_MAILBOX_ECU_receive); // RX ACK
 206              		.loc 1 56 0
 207 000c 044A     		ldr	r2, .L21+8
 208 000e 1378     		ldrb	r3, [r2]	@ zero_extendqisi2
 209 0010 43F00103 		orr	r3, r3, #1
 210 0014 1370     		strb	r3, [r2]
 211 0016 7047     		bx	lr
 212              	.L22:
 213              		.align	2
 214              	.L21:
 215 0018 00A00040 		.word	1073782784
 216 001c 00000000 		.word	.LANCHOR0
 217 0020 A0A00040 		.word	1073782944
 218              		.cfi_endproc
 219              	.LFE65:
 220              		.size	ISR_CAN, .-ISR_CAN
 221              		.comm	car_state,8,4
 222              		.global	CANisrFlag
 223              		.bss
 224              		.set	.LANCHOR0,. + 0
 225              		.type	CANisrFlag, %object
 226              		.size	CANisrFlag, 1
 227              	CANisrFlag:
ARM GAS  C:\Users\badea\AppData\Local\Temp\cco4ttRF.s 			page 6


 228 0000 00       		.space	1
 229              		.text
 230              	.Letext0:
 231              		.file 2 "c:\\program files (x86)\\cypress\\psoc creator\\4.4\\psoc creator\\import\\gnu\\arm\\5.4.
 232              		.file 3 "c:\\program files (x86)\\cypress\\psoc creator\\4.4\\psoc creator\\import\\gnu\\arm\\5.4.
 233              		.file 4 "Generated_Source\\PSoC5/cytypes.h"
 234              		.file 5 "Generated_Source\\PSoC5/CAN.h"
 235              		.file 6 "./include/can_comm.h"
 236              		.file 7 "Generated_Source\\PSoC5/core_cm3.h"