ARM GAS  C:\Users\badea\AppData\Local\Temp\ccbZyN19.s 			page 1


   1              		.syntax unified
   2              		.cpu cortex-m3
   3              		.fpu softvfp
   4              		.eabi_attribute 20, 1
   5              		.eabi_attribute 21, 1
   6              		.eabi_attribute 23, 3
   7              		.eabi_attribute 24, 1
   8              		.eabi_attribute 25, 1
   9              		.eabi_attribute 26, 1
  10              		.eabi_attribute 30, 6
  11              		.eabi_attribute 34, 1
  12              		.eabi_attribute 18, 4
  13              		.thumb
  14              		.syntax unified
  15              		.file	"hybrid_mode.c"
  16              		.text
  17              	.Ltext0:
  18              		.cfi_sections	.debug_frame
  19              		.global	hybrid_state
  20              		.bss
  21              		.align	2
  22              		.type	hybrid_state, %object
  23              		.size	hybrid_state, 2
  24              	hybrid_state:
  25 0000 0000     		.space	2
  26              		.section	.text.TPS_to_Duty_Cycle_Percentage,"ax",%progbits
  27              		.align	2
  28              		.global	TPS_to_Duty_Cycle_Percentage
  29              		.thumb
  30              		.thumb_func
  31              		.type	TPS_to_Duty_Cycle_Percentage, %function
  32              	TPS_to_Duty_Cycle_Percentage:
  33              	.LFB63:
  34              		.file 1 "src\\hybrid_mode.c"
   1:src/hybrid_mode.c **** /*
   2:src/hybrid_mode.c ****  * File:        hybrid_mode.c
   3:src/hybrid_mode.c ****  * Description: Implements the hybrid drive control strategies for the HCM project. Based on curren
   4:src/hybrid_mode.c ****  *              vehicle status (gear, RPM, speed, TPS, brake state) and user input, this module 
   5:src/hybrid_mode.c ****  *              selects and applies the appropriate driving mode by updating the hybrid_state
   6:src/hybrid_mode.c ****  *              and transmitting the command via CAN to the ESC.
   7:src/hybrid_mode.c **** */
   8:src/hybrid_mode.c **** 
   9:src/hybrid_mode.c **** #include <include/hybrid_mode.h>
  10:src/hybrid_mode.c **** 
  11:src/hybrid_mode.c **** /*
  12:src/hybrid_mode.c **** ** Hybrid Strategy Modes **
  13:src/hybrid_mode.c ****   |----|-----------------------|-------------------------------------------------------|
  14:src/hybrid_mode.c ****   | ID | Name                  | Description                                           |
  15:src/hybrid_mode.c ****   |----|-----------------------|-------------------------------------------------------|
  16:src/hybrid_mode.c ****   | 0  | Freewheel             | Default idle mode                                     |
  17:src/hybrid_mode.c ****   | 1  | Manual (Boost)        | Full torque if boost button is active                 |
  18:src/hybrid_mode.c ****   | 2  | Launch Assist         | Active at low RPM, low speed, high TPS, gear 1        |
  19:src/hybrid_mode.c ****   | 3  | Auto No Regen         | Proportional torque, no regen                         |
  20:src/hybrid_mode.c ****   | 4  | Auto Brake Regen      | Regen on brake press                                  |
  21:src/hybrid_mode.c ****   | 5  | Auto TPS-Based Regen  | Regen when TPS < threshold or braking                 |
  22:src/hybrid_mode.c ****   |----|-----------------------|-------------------------------------------------------|
  23:src/hybrid_mode.c ****   *
ARM GAS  C:\Users\badea\AppData\Local\Temp\ccbZyN19.s 			page 2


  24:src/hybrid_mode.c ****   * Auto mode is mapping TPS from a threshold to 100
  25:src/hybrid_mode.c ****   * ! Boost button overrides any mode, as long as the strategy is not set to Freewheel (Hybrid OFF)
  26:src/hybrid_mode.c **** */
  27:src/hybrid_mode.c **** 
  28:src/hybrid_mode.c **** /**************************************************************************************************
  29:src/hybrid_mode.c **** * Global variables
  30:src/hybrid_mode.c **** ***************************************************************************************************
  31:src/hybrid_mode.c **** volatile HY_strategy_t hybrid_state = {0, 0};
  32:src/hybrid_mode.c **** 
  33:src/hybrid_mode.c **** /**************************************************************************************************
  34:src/hybrid_mode.c **** * Functions
  35:src/hybrid_mode.c **** ***************************************************************************************************
  36:src/hybrid_mode.c **** /*
  37:src/hybrid_mode.c ****  * Function:    TPS_to_Duty_Cycle_Percentage
  38:src/hybrid_mode.c ****  * Description: Converts the TPS value (over a threshold) to a proportional duty cycle.
  39:src/hybrid_mode.c ****  * Parameters:
  40:src/hybrid_mode.c ****  *   - tps_percentage: Throttle position sensor value from ECU [0–100].
  41:src/hybrid_mode.c ****  * Returns:
  42:src/hybrid_mode.c ****  *   - A duty cycle percentage [0–100], mapped linearly for TPS ≥ threshold.
  43:src/hybrid_mode.c ****  *     Returns 0 for TPS < threshold.
  44:src/hybrid_mode.c ****  */
  45:src/hybrid_mode.c **** uint8_t TPS_to_Duty_Cycle_Percentage(uint8_t tps_percentage)
  46:src/hybrid_mode.c **** {
  35              		.loc 1 46 0
  36              		.cfi_startproc
  37              		@ args = 0, pretend = 0, frame = 8
  38              		@ frame_needed = 1, uses_anonymous_args = 0
  39              		@ link register save eliminated.
  40 0000 80B4     		push	{r7}
  41              		.cfi_def_cfa_offset 4
  42              		.cfi_offset 7, -4
  43 0002 83B0     		sub	sp, sp, #12
  44              		.cfi_def_cfa_offset 16
  45 0004 00AF     		add	r7, sp, #0
  46              		.cfi_def_cfa_register 7
  47 0006 0346     		mov	r3, r0
  48 0008 FB71     		strb	r3, [r7, #7]
  47:src/hybrid_mode.c ****     if (tps_percentage < MAPPING_TPS_THRESHOLD)
  49              		.loc 1 47 0
  50 000a FB79     		ldrb	r3, [r7, #7]	@ zero_extendqisi2
  51 000c 312B     		cmp	r3, #49
  52 000e 01D8     		bhi	.L2
  48:src/hybrid_mode.c ****         return 0;
  53              		.loc 1 48 0
  54 0010 0023     		movs	r3, #0
  55 0012 0BE0     		b	.L3
  56              	.L2:
  49:src/hybrid_mode.c ****     else
  50:src/hybrid_mode.c ****         return ((tps_percentage - MAPPING_TPS_THRESHOLD ) * 100) / (100 - MAPPING_TPS_THRESHOLD);
  57              		.loc 1 50 0
  58 0014 FB79     		ldrb	r3, [r7, #7]	@ zero_extendqisi2
  59 0016 6422     		movs	r2, #100
  60 0018 02FB03F3 		mul	r3, r2, r3
  61 001c A3F59C53 		sub	r3, r3, #4992
  62 0020 083B     		subs	r3, r3, #8
  63 0022 054A     		ldr	r2, .L4
  64 0024 A2FB0323 		umull	r2, r3, r2, r3
ARM GAS  C:\Users\badea\AppData\Local\Temp\ccbZyN19.s 			page 3


  65 0028 1B09     		lsrs	r3, r3, #4
  66 002a DBB2     		uxtb	r3, r3
  67              	.L3:
  51:src/hybrid_mode.c **** }
  68              		.loc 1 51 0
  69 002c 1846     		mov	r0, r3
  70 002e 0C37     		adds	r7, r7, #12
  71              		.cfi_def_cfa_offset 4
  72 0030 BD46     		mov	sp, r7
  73              		.cfi_def_cfa_register 13
  74              		@ sp needed
  75 0032 80BC     		pop	{r7}
  76              		.cfi_restore 7
  77              		.cfi_def_cfa_offset 0
  78 0034 7047     		bx	lr
  79              	.L5:
  80 0036 00BF     		.align	2
  81              	.L4:
  82 0038 1F85EB51 		.word	1374389535
  83              		.cfi_endproc
  84              	.LFE63:
  85              		.size	TPS_to_Duty_Cycle_Percentage, .-TPS_to_Duty_Cycle_Percentage
  86              		.section	.text.Map_Duty_Cycle,"ax",%progbits
  87              		.align	2
  88              		.global	Map_Duty_Cycle
  89              		.thumb
  90              		.thumb_func
  91              		.type	Map_Duty_Cycle, %function
  92              	Map_Duty_Cycle:
  93              	.LFB64:
  52:src/hybrid_mode.c **** 
  53:src/hybrid_mode.c **** /*
  54:src/hybrid_mode.c ****  * Function:    Map_Duty_Cycle
  55:src/hybrid_mode.c ****  * Description: Converts a duty cycle percentage to a 15-bit signed integer for CAN transmission.
  56:src/hybrid_mode.c ****  * Parameters:
  57:src/hybrid_mode.c ****  *   - duty_cycle_percentage: Desired motor duty (in percent, −100 to 100).
  58:src/hybrid_mode.c ****  * Returns:
  59:src/hybrid_mode.c ****  *   - 15-bit signed value scaled to match ESC input format.
  60:src/hybrid_mode.c ****  */
  61:src/hybrid_mode.c **** int16_t Map_Duty_Cycle(int8_t duty_cycle_percentage)
  62:src/hybrid_mode.c **** {
  94              		.loc 1 62 0
  95              		.cfi_startproc
  96              		@ args = 0, pretend = 0, frame = 8
  97              		@ frame_needed = 1, uses_anonymous_args = 0
  98              		@ link register save eliminated.
  99 0000 80B4     		push	{r7}
 100              		.cfi_def_cfa_offset 4
 101              		.cfi_offset 7, -4
 102 0002 83B0     		sub	sp, sp, #12
 103              		.cfi_def_cfa_offset 16
 104 0004 00AF     		add	r7, sp, #0
 105              		.cfi_def_cfa_register 7
 106 0006 0346     		mov	r3, r0
 107 0008 FB71     		strb	r3, [r7, #7]
  63:src/hybrid_mode.c ****     return (int16_t)((duty_cycle_percentage * MAX_VALUE_15BIT) / 100);
 108              		.loc 1 63 0
ARM GAS  C:\Users\badea\AppData\Local\Temp\ccbZyN19.s 			page 4


 109 000a 97F90720 		ldrsb	r2, [r7, #7]
 110 000e 1346     		mov	r3, r2
 111 0010 DB03     		lsls	r3, r3, #15
 112 0012 9B1A     		subs	r3, r3, r2
 113 0014 044A     		ldr	r2, .L8
 114 0016 A2FB0323 		umull	r2, r3, r2, r3
 115 001a 5B09     		lsrs	r3, r3, #5
 116 001c 1BB2     		sxth	r3, r3
  64:src/hybrid_mode.c **** }
 117              		.loc 1 64 0
 118 001e 1846     		mov	r0, r3
 119 0020 0C37     		adds	r7, r7, #12
 120              		.cfi_def_cfa_offset 4
 121 0022 BD46     		mov	sp, r7
 122              		.cfi_def_cfa_register 13
 123              		@ sp needed
 124 0024 80BC     		pop	{r7}
 125              		.cfi_restore 7
 126              		.cfi_def_cfa_offset 0
 127 0026 7047     		bx	lr
 128              	.L9:
 129              		.align	2
 130              	.L8:
 131 0028 1F85EB51 		.word	1374389535
 132              		.cfi_endproc
 133              	.LFE64:
 134              		.size	Map_Duty_Cycle, .-Map_Duty_Cycle
 135              		.section	.text.Emergency_Stop,"ax",%progbits
 136              		.align	2
 137              		.global	Emergency_Stop
 138              		.thumb
 139              		.thumb_func
 140              		.type	Emergency_Stop, %function
 141              	Emergency_Stop:
 142              	.LFB65:
  65:src/hybrid_mode.c **** 
  66:src/hybrid_mode.c **** /*
  67:src/hybrid_mode.c ****  * Function:    Emergency_Stop
  68:src/hybrid_mode.c ****  * Description: Sets the hybrid mode to freewheel, then disables the AIR.
  69:src/hybrid_mode.c ****  */
  70:src/hybrid_mode.c **** void Emergency_Stop()
  71:src/hybrid_mode.c **** {
 143              		.loc 1 71 0
 144              		.cfi_startproc
 145              		@ args = 0, pretend = 0, frame = 0
 146              		@ frame_needed = 1, uses_anonymous_args = 0
 147 0000 80B5     		push	{r7, lr}
 148              		.cfi_def_cfa_offset 8
 149              		.cfi_offset 7, -8
 150              		.cfi_offset 14, -4
 151 0002 00AF     		add	r7, sp, #0
 152              		.cfi_def_cfa_register 7
  72:src/hybrid_mode.c ****     Set_Strategy(FREEWHEEL_S); /* Set the ESC to freewheel before power off */
 153              		.loc 1 72 0
 154 0004 0020     		movs	r0, #0
 155 0006 FFF7FEFF 		bl	Set_Strategy
  73:src/hybrid_mode.c ****     CyDelay(500u); /* Wait 500 ms for the motor to slow down */
ARM GAS  C:\Users\badea\AppData\Local\Temp\ccbZyN19.s 			page 5


 156              		.loc 1 73 0
 157 000a 4FF4FA70 		mov	r0, #500
 158 000e FFF7FEFF 		bl	CyDelay
  74:src/hybrid_mode.c ****     AIR_enable_Write(STD_OFF); /* Disable the AIR */
 159              		.loc 1 74 0
 160 0012 0020     		movs	r0, #0
 161 0014 FFF7FEFF 		bl	AIR_enable_Write
  75:src/hybrid_mode.c **** }
 162              		.loc 1 75 0
 163 0018 00BF     		nop
 164 001a 80BD     		pop	{r7, pc}
 165              		.cfi_endproc
 166              	.LFE65:
 167              		.size	Emergency_Stop, .-Emergency_Stop
 168              		.section	.text.Set_Strategy,"ax",%progbits
 169              		.align	2
 170              		.global	Set_Strategy
 171              		.thumb
 172              		.thumb_func
 173              		.type	Set_Strategy, %function
 174              	Set_Strategy:
 175              	.LFB66:
  76:src/hybrid_mode.c **** 
  77:src/hybrid_mode.c **** /*
  78:src/hybrid_mode.c ****  * Function:    Set_Strategy
  79:src/hybrid_mode.c ****  * Description: Applies the appropriate hybrid driving strategy based on selector input,
  80:src/hybrid_mode.c ****  *              vehicle state, and driver override.
  81:src/hybrid_mode.c ****  *
  82:src/hybrid_mode.c ****  * Parameters:
  83:src/hybrid_mode.c ****  *   - sel_strategy: User-selected strategy index [1–6].
  84:src/hybrid_mode.c ****  *
  85:src/hybrid_mode.c ****  * Logic:
  86:src/hybrid_mode.c ****  *   - If gear is neutral or speed is too low/high -> Freewheel.
  87:src/hybrid_mode.c ****  *   - If boost button is pressed, brake is not, and sel_strategy > 0 -> Full torque (also when spe
  88:src/hybrid_mode.c ****  *   - Otherwise, applies strategy based on sel_strategy.
  89:src/hybrid_mode.c ****  *   - Defaults to Freewheel if sel_strategy is invalid.
  90:src/hybrid_mode.c ****  *
  91:src/hybrid_mode.c ****  * Sends the selected driving mode and duty cycle to the ESC via CAN.
  92:src/hybrid_mode.c ****  */
  93:src/hybrid_mode.c **** void Set_Strategy(uint8_t sel_strategy)
  94:src/hybrid_mode.c **** {
 176              		.loc 1 94 0
 177              		.cfi_startproc
 178              		@ args = 0, pretend = 0, frame = 8
 179              		@ frame_needed = 1, uses_anonymous_args = 0
 180 0000 80B5     		push	{r7, lr}
 181              		.cfi_def_cfa_offset 8
 182              		.cfi_offset 7, -8
 183              		.cfi_offset 14, -4
 184 0002 82B0     		sub	sp, sp, #8
 185              		.cfi_def_cfa_offset 16
 186 0004 00AF     		add	r7, sp, #0
 187              		.cfi_def_cfa_register 7
 188 0006 0346     		mov	r3, r0
 189 0008 FB71     		strb	r3, [r7, #7]
  95:src/hybrid_mode.c ****     if (car_state.gear == NEUTRAL_GEAR || car_state.vss > MAX_VSS_TO_DEPLOY)
 190              		.loc 1 95 0
ARM GAS  C:\Users\badea\AppData\Local\Temp\ccbZyN19.s 			page 6


 191 000a 304B     		ldr	r3, .L25
 192 000c DB78     		ldrb	r3, [r3, #3]
 193 000e DBB2     		uxtb	r3, r3
 194 0010 002B     		cmp	r3, #0
 195 0012 04D0     		beq	.L12
 196              		.loc 1 95 0 is_stmt 0 discriminator 1
 197 0014 2D4B     		ldr	r3, .L25
 198 0016 5B79     		ldrb	r3, [r3, #5]
 199 0018 DBB2     		uxtb	r3, r3
 200 001a 5A2B     		cmp	r3, #90
 201 001c 02D9     		bls	.L13
 202              	.L12:
  96:src/hybrid_mode.c ****     {
  97:src/hybrid_mode.c ****         Set_Strategy_Freewheel();
 203              		.loc 1 97 0 is_stmt 1
 204 001e FFF7FEFF 		bl	Set_Strategy_Freewheel
 205 0022 45E0     		b	.L14
 206              	.L13:
  98:src/hybrid_mode.c ****     }
  99:src/hybrid_mode.c ****     else if (car_state.vss < MIN_VSS_TO_DEPLOY && sel_strategy != MANUAL_S)
 207              		.loc 1 99 0
 208 0024 294B     		ldr	r3, .L25
 209 0026 5B79     		ldrb	r3, [r3, #5]
 210 0028 DBB2     		uxtb	r3, r3
 211 002a 022B     		cmp	r3, #2
 212 002c 05D8     		bhi	.L15
 213              		.loc 1 99 0 is_stmt 0 discriminator 1
 214 002e FB79     		ldrb	r3, [r7, #7]	@ zero_extendqisi2
 215 0030 012B     		cmp	r3, #1
 216 0032 02D0     		beq	.L15
 100:src/hybrid_mode.c ****     {
 101:src/hybrid_mode.c ****         Set_Strategy_Freewheel();
 217              		.loc 1 101 0 is_stmt 1
 218 0034 FFF7FEFF 		bl	Set_Strategy_Freewheel
 219 0038 3AE0     		b	.L14
 220              	.L15:
 102:src/hybrid_mode.c ****     }
 103:src/hybrid_mode.c ****     else if ((Read_Boost_Button() == STD_ON) && (car_state.brake_state == STD_OFF) && (sel_strategy
 221              		.loc 1 103 0
 222 003a FFF7FEFF 		bl	Read_Boost_Button
 223 003e 0346     		mov	r3, r0
 224 0040 012B     		cmp	r3, #1
 225 0042 0ED1     		bne	.L16
 226              		.loc 1 103 0 is_stmt 0 discriminator 1
 227 0044 214B     		ldr	r3, .L25
 228 0046 9B79     		ldrb	r3, [r3, #6]
 229 0048 DBB2     		uxtb	r3, r3
 230 004a 002B     		cmp	r3, #0
 231 004c 09D1     		bne	.L16
 232              		.loc 1 103 0 discriminator 2
 233 004e FB79     		ldrb	r3, [r7, #7]	@ zero_extendqisi2
 234 0050 002B     		cmp	r3, #0
 235 0052 06D0     		beq	.L16
 104:src/hybrid_mode.c ****     {
 105:src/hybrid_mode.c ****         hybrid_state.driving_mode = TORQUE_MODE;
 236              		.loc 1 105 0 is_stmt 1
 237 0054 1E4B     		ldr	r3, .L25+4
ARM GAS  C:\Users\badea\AppData\Local\Temp\ccbZyN19.s 			page 7


 238 0056 0222     		movs	r2, #2
 239 0058 1A70     		strb	r2, [r3]
 106:src/hybrid_mode.c ****         hybrid_state.duty_cycle_percentage = BOOST_TORQUE_PERCENTAGE;
 240              		.loc 1 106 0
 241 005a 1D4B     		ldr	r3, .L25+4
 242 005c 6422     		movs	r2, #100
 243 005e 5A70     		strb	r2, [r3, #1]
 244 0060 26E0     		b	.L14
 245              	.L16:
 107:src/hybrid_mode.c ****     }
 108:src/hybrid_mode.c ****     else
 109:src/hybrid_mode.c ****     {
 110:src/hybrid_mode.c ****         switch (sel_strategy)
 246              		.loc 1 110 0
 247 0062 FB79     		ldrb	r3, [r7, #7]	@ zero_extendqisi2
 248 0064 052B     		cmp	r3, #5
 249 0066 21D8     		bhi	.L17
 250 0068 01A2     		adr	r2, .L19
 251 006a 52F823F0 		ldr	pc, [r2, r3, lsl #2]
 252 006e 00BF     		.p2align 2
 253              	.L19:
 254 0070 89000000 		.word	.L18+1
 255 0074 8F000000 		.word	.L20+1
 256 0078 95000000 		.word	.L21+1
 257 007c 9B000000 		.word	.L22+1
 258 0080 A1000000 		.word	.L23+1
 259 0084 A7000000 		.word	.L24+1
 260              		.p2align 1
 261              	.L18:
 111:src/hybrid_mode.c ****         {
 112:src/hybrid_mode.c ****             case FREEWHEEL_S:
 113:src/hybrid_mode.c ****                 Set_Strategy_Freewheel();
 262              		.loc 1 113 0
 263 0088 FFF7FEFF 		bl	Set_Strategy_Freewheel
 114:src/hybrid_mode.c ****                 break;
 264              		.loc 1 114 0
 265 008c 10E0     		b	.L14
 266              	.L20:
 115:src/hybrid_mode.c ****                 
 116:src/hybrid_mode.c ****             case MANUAL_S:
 117:src/hybrid_mode.c ****                 Set_Strategy_Manual();
 267              		.loc 1 117 0
 268 008e FFF7FEFF 		bl	Set_Strategy_Manual
 118:src/hybrid_mode.c ****                 break;
 269              		.loc 1 118 0
 270 0092 0DE0     		b	.L14
 271              	.L21:
 119:src/hybrid_mode.c **** 
 120:src/hybrid_mode.c ****             case LAUNCH_S:
 121:src/hybrid_mode.c ****                 Set_Strategy_Launch_Assist();
 272              		.loc 1 121 0
 273 0094 FFF7FEFF 		bl	Set_Strategy_Launch_Assist
 122:src/hybrid_mode.c ****                 break;
 274              		.loc 1 122 0
 275 0098 0AE0     		b	.L14
 276              	.L22:
 123:src/hybrid_mode.c **** 
ARM GAS  C:\Users\badea\AppData\Local\Temp\ccbZyN19.s 			page 8


 124:src/hybrid_mode.c ****             case AUTO_NOREGEN_S:
 125:src/hybrid_mode.c ****                 Set_Strategy_Auto_No_Regen();
 277              		.loc 1 125 0
 278 009a FFF7FEFF 		bl	Set_Strategy_Auto_No_Regen
 126:src/hybrid_mode.c ****                 break;
 279              		.loc 1 126 0
 280 009e 07E0     		b	.L14
 281              	.L23:
 127:src/hybrid_mode.c **** 
 128:src/hybrid_mode.c ****             case AUTO_BRAKEREGEN_S:
 129:src/hybrid_mode.c ****                 Set_Strategy_Auto_Brake_Regen();
 282              		.loc 1 129 0
 283 00a0 FFF7FEFF 		bl	Set_Strategy_Auto_Brake_Regen
 130:src/hybrid_mode.c ****                 break;
 284              		.loc 1 130 0
 285 00a4 04E0     		b	.L14
 286              	.L24:
 131:src/hybrid_mode.c **** 
 132:src/hybrid_mode.c ****             case AUTO_ALLREGEN_S:
 133:src/hybrid_mode.c ****                 Set_Strategy_Auto_Always_Regen();
 287              		.loc 1 133 0
 288 00a6 FFF7FEFF 		bl	Set_Strategy_Auto_Always_Regen
 134:src/hybrid_mode.c ****                 break;
 289              		.loc 1 134 0
 290 00aa 01E0     		b	.L14
 291              	.L17:
 135:src/hybrid_mode.c **** 
 136:src/hybrid_mode.c ****             default:
 137:src/hybrid_mode.c ****                 Set_Strategy_Freewheel();
 292              		.loc 1 137 0
 293 00ac FFF7FEFF 		bl	Set_Strategy_Freewheel
 294              	.L14:
 138:src/hybrid_mode.c ****         }
 139:src/hybrid_mode.c ****     }
 140:src/hybrid_mode.c ****     
 141:src/hybrid_mode.c ****     CAN_Transmit_To_ESC(hybrid_state.driving_mode, hybrid_state.duty_cycle_percentage);
 295              		.loc 1 141 0
 296 00b0 074B     		ldr	r3, .L25+4
 297 00b2 1B78     		ldrb	r3, [r3]
 298 00b4 DAB2     		uxtb	r2, r3
 299 00b6 064B     		ldr	r3, .L25+4
 300 00b8 5B78     		ldrb	r3, [r3, #1]
 301 00ba 5BB2     		sxtb	r3, r3
 302 00bc 1946     		mov	r1, r3
 303 00be 1046     		mov	r0, r2
 304 00c0 FFF7FEFF 		bl	CAN_Transmit_To_ESC
 142:src/hybrid_mode.c **** }
 305              		.loc 1 142 0
 306 00c4 00BF     		nop
 307 00c6 0837     		adds	r7, r7, #8
 308              		.cfi_def_cfa_offset 8
 309 00c8 BD46     		mov	sp, r7
 310              		.cfi_def_cfa_register 13
 311              		@ sp needed
 312 00ca 80BD     		pop	{r7, pc}
 313              	.L26:
 314              		.align	2
ARM GAS  C:\Users\badea\AppData\Local\Temp\ccbZyN19.s 			page 9


 315              	.L25:
 316 00cc 00000000 		.word	car_state
 317 00d0 00000000 		.word	hybrid_state
 318              		.cfi_endproc
 319              	.LFE66:
 320              		.size	Set_Strategy, .-Set_Strategy
 321              		.section	.text.Set_Strategy_Freewheel,"ax",%progbits
 322              		.align	2
 323              		.global	Set_Strategy_Freewheel
 324              		.thumb
 325              		.thumb_func
 326              		.type	Set_Strategy_Freewheel, %function
 327              	Set_Strategy_Freewheel:
 328              	.LFB67:
 143:src/hybrid_mode.c **** 
 144:src/hybrid_mode.c **** /*
 145:src/hybrid_mode.c ****  * Function:    Set_Strategy_Freewheel
 146:src/hybrid_mode.c ****  * Description: Disables hybrid power by setting mode to Freewheel and zero duty cycle.
 147:src/hybrid_mode.c ****  */
 148:src/hybrid_mode.c **** void Set_Strategy_Freewheel()
 149:src/hybrid_mode.c **** {
 329              		.loc 1 149 0
 330              		.cfi_startproc
 331              		@ args = 0, pretend = 0, frame = 0
 332              		@ frame_needed = 1, uses_anonymous_args = 0
 333              		@ link register save eliminated.
 334 0000 80B4     		push	{r7}
 335              		.cfi_def_cfa_offset 4
 336              		.cfi_offset 7, -4
 337 0002 00AF     		add	r7, sp, #0
 338              		.cfi_def_cfa_register 7
 150:src/hybrid_mode.c ****     hybrid_state.driving_mode = FREEWHEEL_MODE;
 339              		.loc 1 150 0
 340 0004 044B     		ldr	r3, .L28
 341 0006 0022     		movs	r2, #0
 342 0008 1A70     		strb	r2, [r3]
 151:src/hybrid_mode.c ****     hybrid_state.duty_cycle_percentage = STD_OFF;
 343              		.loc 1 151 0
 344 000a 034B     		ldr	r3, .L28
 345 000c 0022     		movs	r2, #0
 346 000e 5A70     		strb	r2, [r3, #1]
 152:src/hybrid_mode.c **** }
 347              		.loc 1 152 0
 348 0010 00BF     		nop
 349 0012 BD46     		mov	sp, r7
 350              		.cfi_def_cfa_register 13
 351              		@ sp needed
 352 0014 80BC     		pop	{r7}
 353              		.cfi_restore 7
 354              		.cfi_def_cfa_offset 0
 355 0016 7047     		bx	lr
 356              	.L29:
 357              		.align	2
 358              	.L28:
 359 0018 00000000 		.word	hybrid_state
 360              		.cfi_endproc
 361              	.LFE67:
ARM GAS  C:\Users\badea\AppData\Local\Temp\ccbZyN19.s 			page 10


 362              		.size	Set_Strategy_Freewheel, .-Set_Strategy_Freewheel
 363              		.section	.text.Set_Strategy_Manual,"ax",%progbits
 364              		.align	2
 365              		.global	Set_Strategy_Manual
 366              		.thumb
 367              		.thumb_func
 368              		.type	Set_Strategy_Manual, %function
 369              	Set_Strategy_Manual:
 370              	.LFB68:
 153:src/hybrid_mode.c **** 
 154:src/hybrid_mode.c **** /*
 155:src/hybrid_mode.c ****  * Function:    Set_Strategy_Manual
 156:src/hybrid_mode.c ****  * Description: Enables full power (boost mode) if the boost button is pressed and the brake is not
 157:src/hybrid_mode.c ****  *              Falls back to Freewheel otherwise.
 158:src/hybrid_mode.c ****  */
 159:src/hybrid_mode.c **** void Set_Strategy_Manual()
 160:src/hybrid_mode.c **** {
 371              		.loc 1 160 0
 372              		.cfi_startproc
 373              		@ args = 0, pretend = 0, frame = 0
 374              		@ frame_needed = 1, uses_anonymous_args = 0
 375 0000 80B5     		push	{r7, lr}
 376              		.cfi_def_cfa_offset 8
 377              		.cfi_offset 7, -8
 378              		.cfi_offset 14, -4
 379 0002 00AF     		add	r7, sp, #0
 380              		.cfi_def_cfa_register 7
 161:src/hybrid_mode.c ****     /* The logic for the boost button is in the main Set_Strategy() function;
 162:src/hybrid_mode.c ****      * If the program enters here it means the selector is on manual,
 163:src/hybrid_mode.c ****      * but boost button is not pressed -> freewheel */
 164:src/hybrid_mode.c ****     Set_Strategy_Freewheel();
 381              		.loc 1 164 0
 382 0004 FFF7FEFF 		bl	Set_Strategy_Freewheel
 165:src/hybrid_mode.c **** }
 383              		.loc 1 165 0
 384 0008 00BF     		nop
 385 000a 80BD     		pop	{r7, pc}
 386              		.cfi_endproc
 387              	.LFE68:
 388              		.size	Set_Strategy_Manual, .-Set_Strategy_Manual
 389              		.section	.text.Set_Strategy_Launch_Assist,"ax",%progbits
 390              		.align	2
 391              		.global	Set_Strategy_Launch_Assist
 392              		.thumb
 393              		.thumb_func
 394              		.type	Set_Strategy_Launch_Assist, %function
 395              	Set_Strategy_Launch_Assist:
 396              	.LFB69:
 166:src/hybrid_mode.c **** 
 167:src/hybrid_mode.c **** /*
 168:src/hybrid_mode.c ****  * Function:    Set_Strategy_Launch_Assist
 169:src/hybrid_mode.c ****  * Description: Engages full torque at launch under these conditions:
 170:src/hybrid_mode.c ****  *              - RPM and VSS under a set threshold
 171:src/hybrid_mode.c ****  *              - TPS over a set threshold
 172:src/hybrid_mode.c ****  *              - Gear = 1
 173:src/hybrid_mode.c ****  *              - Brake not pressed
 174:src/hybrid_mode.c ****  *              Falls back to Freewheel otherwise.
ARM GAS  C:\Users\badea\AppData\Local\Temp\ccbZyN19.s 			page 11


 175:src/hybrid_mode.c ****  */
 176:src/hybrid_mode.c **** void Set_Strategy_Launch_Assist()
 177:src/hybrid_mode.c **** {
 397              		.loc 1 177 0
 398              		.cfi_startproc
 399              		@ args = 0, pretend = 0, frame = 0
 400              		@ frame_needed = 1, uses_anonymous_args = 0
 401 0000 80B5     		push	{r7, lr}
 402              		.cfi_def_cfa_offset 8
 403              		.cfi_offset 7, -8
 404              		.cfi_offset 14, -4
 405 0002 00AF     		add	r7, sp, #0
 406              		.cfi_def_cfa_register 7
 178:src/hybrid_mode.c ****     if ((car_state.rpm <= LAUNCH_MAX_RPM) && (car_state.vss <= LAUNCH_MAX_VSS) && (car_state.tps >=
 407              		.loc 1 178 0
 408 0004 124B     		ldr	r3, .L34
 409 0006 1B88     		ldrh	r3, [r3]	@ movhi
 410 0008 9BB2     		uxth	r3, r3
 411 000a 41F64C52 		movw	r2, #7500
 412 000e 9342     		cmp	r3, r2
 413 0010 1AD8     		bhi	.L32
 414              		.loc 1 178 0 is_stmt 0 discriminator 1
 415 0012 0F4B     		ldr	r3, .L34
 416 0014 5B79     		ldrb	r3, [r3, #5]
 417 0016 DBB2     		uxtb	r3, r3
 418 0018 2D2B     		cmp	r3, #45
 419 001a 15D8     		bhi	.L32
 420              		.loc 1 178 0 discriminator 2
 421 001c 0C4B     		ldr	r3, .L34
 422 001e 1B79     		ldrb	r3, [r3, #4]
 423 0020 DBB2     		uxtb	r3, r3
 424 0022 4F2B     		cmp	r3, #79
 425 0024 10D9     		bls	.L32
 179:src/hybrid_mode.c ****         && (car_state.gear == 1) && (car_state.brake_state == STD_OFF))
 426              		.loc 1 179 0 is_stmt 1
 427 0026 0A4B     		ldr	r3, .L34
 428 0028 DB78     		ldrb	r3, [r3, #3]
 429 002a DBB2     		uxtb	r3, r3
 430 002c 012B     		cmp	r3, #1
 431 002e 0BD1     		bne	.L32
 432              		.loc 1 179 0 is_stmt 0 discriminator 1
 433 0030 074B     		ldr	r3, .L34
 434 0032 9B79     		ldrb	r3, [r3, #6]
 435 0034 DBB2     		uxtb	r3, r3
 436 0036 002B     		cmp	r3, #0
 437 0038 06D1     		bne	.L32
 180:src/hybrid_mode.c ****     {
 181:src/hybrid_mode.c ****         hybrid_state.driving_mode = TORQUE_MODE;
 438              		.loc 1 181 0 is_stmt 1
 439 003a 064B     		ldr	r3, .L34+4
 440 003c 0222     		movs	r2, #2
 441 003e 1A70     		strb	r2, [r3]
 182:src/hybrid_mode.c ****         hybrid_state.duty_cycle_percentage = LAUNCH_TORQUE_PERCENTAGE;
 442              		.loc 1 182 0
 443 0040 044B     		ldr	r3, .L34+4
 444 0042 6422     		movs	r2, #100
 445 0044 5A70     		strb	r2, [r3, #1]
ARM GAS  C:\Users\badea\AppData\Local\Temp\ccbZyN19.s 			page 12


 446 0046 01E0     		b	.L33
 447              	.L32:
 183:src/hybrid_mode.c ****     }
 184:src/hybrid_mode.c ****     else
 185:src/hybrid_mode.c ****         Set_Strategy_Freewheel();
 448              		.loc 1 185 0
 449 0048 FFF7FEFF 		bl	Set_Strategy_Freewheel
 450              	.L33:
 186:src/hybrid_mode.c **** }
 451              		.loc 1 186 0
 452 004c 00BF     		nop
 453 004e 80BD     		pop	{r7, pc}
 454              	.L35:
 455              		.align	2
 456              	.L34:
 457 0050 00000000 		.word	car_state
 458 0054 00000000 		.word	hybrid_state
 459              		.cfi_endproc
 460              	.LFE69:
 461              		.size	Set_Strategy_Launch_Assist, .-Set_Strategy_Launch_Assist
 462              		.section	.text.Set_Strategy_Auto_No_Regen,"ax",%progbits
 463              		.align	2
 464              		.global	Set_Strategy_Auto_No_Regen
 465              		.thumb
 466              		.thumb_func
 467              		.type	Set_Strategy_Auto_No_Regen, %function
 468              	Set_Strategy_Auto_No_Regen:
 469              	.LFB70:
 187:src/hybrid_mode.c **** 
 188:src/hybrid_mode.c **** /*
 189:src/hybrid_mode.c ****  * Function:    Set_Strategy_Auto_No_Regen
 190:src/hybrid_mode.c ****  * Description: Applies torque proportional to TPS when brake is not pressed.
 191:src/hybrid_mode.c ****  *              Falls back to Freewheel if brake is active.
 192:src/hybrid_mode.c ****  */
 193:src/hybrid_mode.c **** void Set_Strategy_Auto_No_Regen()
 194:src/hybrid_mode.c **** {
 470              		.loc 1 194 0
 471              		.cfi_startproc
 472              		@ args = 0, pretend = 0, frame = 0
 473              		@ frame_needed = 1, uses_anonymous_args = 0
 474 0000 80B5     		push	{r7, lr}
 475              		.cfi_def_cfa_offset 8
 476              		.cfi_offset 7, -8
 477              		.cfi_offset 14, -4
 478 0002 00AF     		add	r7, sp, #0
 479              		.cfi_def_cfa_register 7
 195:src/hybrid_mode.c ****     if (car_state.brake_state == STD_OFF)
 480              		.loc 1 195 0
 481 0004 0B4B     		ldr	r3, .L40
 482 0006 9B79     		ldrb	r3, [r3, #6]
 483 0008 DBB2     		uxtb	r3, r3
 484 000a 002B     		cmp	r3, #0
 485 000c 0DD1     		bne	.L37
 196:src/hybrid_mode.c ****     {
 197:src/hybrid_mode.c ****         hybrid_state.driving_mode = TORQUE_MODE;
 486              		.loc 1 197 0
 487 000e 0A4B     		ldr	r3, .L40+4
ARM GAS  C:\Users\badea\AppData\Local\Temp\ccbZyN19.s 			page 13


 488 0010 0222     		movs	r2, #2
 489 0012 1A70     		strb	r2, [r3]
 198:src/hybrid_mode.c ****         hybrid_state.duty_cycle_percentage = TPS_to_Duty_Cycle_Percentage(car_state.tps);
 490              		.loc 1 198 0
 491 0014 074B     		ldr	r3, .L40
 492 0016 1B79     		ldrb	r3, [r3, #4]
 493 0018 DBB2     		uxtb	r3, r3
 494 001a 1846     		mov	r0, r3
 495 001c FFF7FEFF 		bl	TPS_to_Duty_Cycle_Percentage
 496 0020 0346     		mov	r3, r0
 497 0022 5AB2     		sxtb	r2, r3
 498 0024 044B     		ldr	r3, .L40+4
 499 0026 5A70     		strb	r2, [r3, #1]
 199:src/hybrid_mode.c ****     }
 200:src/hybrid_mode.c ****     else
 201:src/hybrid_mode.c ****         Set_Strategy_Freewheel();
 202:src/hybrid_mode.c **** }
 500              		.loc 1 202 0
 501 0028 01E0     		b	.L39
 502              	.L37:
 201:src/hybrid_mode.c **** }
 503              		.loc 1 201 0
 504 002a FFF7FEFF 		bl	Set_Strategy_Freewheel
 505              	.L39:
 506              		.loc 1 202 0
 507 002e 00BF     		nop
 508 0030 80BD     		pop	{r7, pc}
 509              	.L41:
 510 0032 00BF     		.align	2
 511              	.L40:
 512 0034 00000000 		.word	car_state
 513 0038 00000000 		.word	hybrid_state
 514              		.cfi_endproc
 515              	.LFE70:
 516              		.size	Set_Strategy_Auto_No_Regen, .-Set_Strategy_Auto_No_Regen
 517              		.section	.text.Set_Strategy_Auto_Brake_Regen,"ax",%progbits
 518              		.align	2
 519              		.global	Set_Strategy_Auto_Brake_Regen
 520              		.thumb
 521              		.thumb_func
 522              		.type	Set_Strategy_Auto_Brake_Regen, %function
 523              	Set_Strategy_Auto_Brake_Regen:
 524              	.LFB71:
 203:src/hybrid_mode.c **** 
 204:src/hybrid_mode.c **** /*
 205:src/hybrid_mode.c ****  * Function:    Set_Strategy_Auto_Brake_Regen
 206:src/hybrid_mode.c ****  * Description: Applies torque proportional to TPS when brake is not pressed.
 207:src/hybrid_mode.c ****  *              Switches to full regenerative braking (BRAKE mode) when brake is pressed.
 208:src/hybrid_mode.c ****  */
 209:src/hybrid_mode.c **** void Set_Strategy_Auto_Brake_Regen()
 210:src/hybrid_mode.c **** {
 525              		.loc 1 210 0
 526              		.cfi_startproc
 527              		@ args = 0, pretend = 0, frame = 0
 528              		@ frame_needed = 1, uses_anonymous_args = 0
 529 0000 80B5     		push	{r7, lr}
 530              		.cfi_def_cfa_offset 8
ARM GAS  C:\Users\badea\AppData\Local\Temp\ccbZyN19.s 			page 14


 531              		.cfi_offset 7, -8
 532              		.cfi_offset 14, -4
 533 0002 00AF     		add	r7, sp, #0
 534              		.cfi_def_cfa_register 7
 211:src/hybrid_mode.c ****     if (car_state.brake_state == STD_OFF)
 535              		.loc 1 211 0
 536 0004 0D4B     		ldr	r3, .L46
 537 0006 9B79     		ldrb	r3, [r3, #6]
 538 0008 DBB2     		uxtb	r3, r3
 539 000a 002B     		cmp	r3, #0
 540 000c 0DD1     		bne	.L43
 212:src/hybrid_mode.c ****     {
 213:src/hybrid_mode.c ****         hybrid_state.driving_mode = TORQUE_MODE;
 541              		.loc 1 213 0
 542 000e 0C4B     		ldr	r3, .L46+4
 543 0010 0222     		movs	r2, #2
 544 0012 1A70     		strb	r2, [r3]
 214:src/hybrid_mode.c ****         hybrid_state.duty_cycle_percentage = TPS_to_Duty_Cycle_Percentage(car_state.tps);
 545              		.loc 1 214 0
 546 0014 094B     		ldr	r3, .L46
 547 0016 1B79     		ldrb	r3, [r3, #4]
 548 0018 DBB2     		uxtb	r3, r3
 549 001a 1846     		mov	r0, r3
 550 001c FFF7FEFF 		bl	TPS_to_Duty_Cycle_Percentage
 551 0020 0346     		mov	r3, r0
 552 0022 5AB2     		sxtb	r2, r3
 553 0024 064B     		ldr	r3, .L46+4
 554 0026 5A70     		strb	r2, [r3, #1]
 215:src/hybrid_mode.c ****     }
 216:src/hybrid_mode.c ****     else /* Braking */
 217:src/hybrid_mode.c ****     {
 218:src/hybrid_mode.c ****         hybrid_state.driving_mode = BRAKE_MODE;
 219:src/hybrid_mode.c ****         hybrid_state.duty_cycle_percentage = BRAKE_REGEN_INTENSITY_PERCENTAGE;
 220:src/hybrid_mode.c ****     }
 221:src/hybrid_mode.c **** }
 555              		.loc 1 221 0
 556 0028 05E0     		b	.L45
 557              	.L43:
 218:src/hybrid_mode.c ****         hybrid_state.duty_cycle_percentage = BRAKE_REGEN_INTENSITY_PERCENTAGE;
 558              		.loc 1 218 0
 559 002a 054B     		ldr	r3, .L46+4
 560 002c 0822     		movs	r2, #8
 561 002e 1A70     		strb	r2, [r3]
 219:src/hybrid_mode.c ****     }
 562              		.loc 1 219 0
 563 0030 034B     		ldr	r3, .L46+4
 564 0032 6422     		movs	r2, #100
 565 0034 5A70     		strb	r2, [r3, #1]
 566              	.L45:
 567              		.loc 1 221 0
 568 0036 00BF     		nop
 569 0038 80BD     		pop	{r7, pc}
 570              	.L47:
 571 003a 00BF     		.align	2
 572              	.L46:
 573 003c 00000000 		.word	car_state
 574 0040 00000000 		.word	hybrid_state
ARM GAS  C:\Users\badea\AppData\Local\Temp\ccbZyN19.s 			page 15


 575              		.cfi_endproc
 576              	.LFE71:
 577              		.size	Set_Strategy_Auto_Brake_Regen, .-Set_Strategy_Auto_Brake_Regen
 578              		.section	.text.Set_Strategy_Auto_Always_Regen,"ax",%progbits
 579              		.align	2
 580              		.global	Set_Strategy_Auto_Always_Regen
 581              		.thumb
 582              		.thumb_func
 583              		.type	Set_Strategy_Auto_Always_Regen, %function
 584              	Set_Strategy_Auto_Always_Regen:
 585              	.LFB72:
 222:src/hybrid_mode.c **** 
 223:src/hybrid_mode.c **** /*
 224:src/hybrid_mode.c ****  * Function:    Set_Strategy_Auto_Always_Regen
 225:src/hybrid_mode.c ****  * Description: Applies torque proportional to TPS if TPS > 50 and brake is not pressed.
 226:src/hybrid_mode.c ****  *              Regenerative braking otherwise (different intensity for coasting or braking)
 227:src/hybrid_mode.c ****  */
 228:src/hybrid_mode.c **** void Set_Strategy_Auto_Always_Regen()
 229:src/hybrid_mode.c **** {
 586              		.loc 1 229 0
 587              		.cfi_startproc
 588              		@ args = 0, pretend = 0, frame = 0
 589              		@ frame_needed = 1, uses_anonymous_args = 0
 590 0000 80B5     		push	{r7, lr}
 591              		.cfi_def_cfa_offset 8
 592              		.cfi_offset 7, -8
 593              		.cfi_offset 14, -4
 594 0002 00AF     		add	r7, sp, #0
 595              		.cfi_def_cfa_register 7
 230:src/hybrid_mode.c ****     if ((car_state.brake_state == STD_OFF) && (car_state.tps > ALWAYS_REGEN_TPS_THRESHOLD))
 596              		.loc 1 230 0
 597 0004 154B     		ldr	r3, .L53
 598 0006 9B79     		ldrb	r3, [r3, #6]
 599 0008 DBB2     		uxtb	r3, r3
 600 000a 002B     		cmp	r3, #0
 601 000c 12D1     		bne	.L49
 602              		.loc 1 230 0 is_stmt 0 discriminator 1
 603 000e 134B     		ldr	r3, .L53
 604 0010 1B79     		ldrb	r3, [r3, #4]
 605 0012 DBB2     		uxtb	r3, r3
 606 0014 322B     		cmp	r3, #50
 607 0016 0DD9     		bls	.L49
 231:src/hybrid_mode.c ****     {
 232:src/hybrid_mode.c ****         hybrid_state.driving_mode = TORQUE_MODE;
 608              		.loc 1 232 0 is_stmt 1
 609 0018 114B     		ldr	r3, .L53+4
 610 001a 0222     		movs	r2, #2
 611 001c 1A70     		strb	r2, [r3]
 233:src/hybrid_mode.c ****         hybrid_state.duty_cycle_percentage = TPS_to_Duty_Cycle_Percentage(car_state.tps);
 612              		.loc 1 233 0
 613 001e 0F4B     		ldr	r3, .L53
 614 0020 1B79     		ldrb	r3, [r3, #4]
 615 0022 DBB2     		uxtb	r3, r3
 616 0024 1846     		mov	r0, r3
 617 0026 FFF7FEFF 		bl	TPS_to_Duty_Cycle_Percentage
 618 002a 0346     		mov	r3, r0
 619 002c 5AB2     		sxtb	r2, r3
ARM GAS  C:\Users\badea\AppData\Local\Temp\ccbZyN19.s 			page 16


 620 002e 0C4B     		ldr	r3, .L53+4
 621 0030 5A70     		strb	r2, [r3, #1]
 234:src/hybrid_mode.c ****     }
 235:src/hybrid_mode.c ****     else if (car_state.brake_state == STD_OFF) /* TPS under threshold, brake not pressed */
 236:src/hybrid_mode.c ****     {
 237:src/hybrid_mode.c ****         hybrid_state.driving_mode = BRAKE_MODE;
 238:src/hybrid_mode.c ****         hybrid_state.duty_cycle_percentage = COASTING_REGEN_INTENSITY_PERCENTAGE;
 239:src/hybrid_mode.c ****     }
 240:src/hybrid_mode.c ****     else /* Brake pressed */
 241:src/hybrid_mode.c ****     {
 242:src/hybrid_mode.c ****         hybrid_state.driving_mode = BRAKE_MODE;
 243:src/hybrid_mode.c ****         hybrid_state.duty_cycle_percentage = BRAKE_REGEN_INTENSITY_PERCENTAGE;
 244:src/hybrid_mode.c ****     }
 245:src/hybrid_mode.c **** }
 622              		.loc 1 245 0
 623 0032 11E0     		b	.L52
 624              	.L49:
 235:src/hybrid_mode.c ****     {
 625              		.loc 1 235 0
 626 0034 094B     		ldr	r3, .L53
 627 0036 9B79     		ldrb	r3, [r3, #6]
 628 0038 DBB2     		uxtb	r3, r3
 629 003a 002B     		cmp	r3, #0
 630 003c 06D1     		bne	.L51
 237:src/hybrid_mode.c ****         hybrid_state.duty_cycle_percentage = COASTING_REGEN_INTENSITY_PERCENTAGE;
 631              		.loc 1 237 0
 632 003e 084B     		ldr	r3, .L53+4
 633 0040 0822     		movs	r2, #8
 634 0042 1A70     		strb	r2, [r3]
 238:src/hybrid_mode.c ****     }
 635              		.loc 1 238 0
 636 0044 064B     		ldr	r3, .L53+4
 637 0046 3222     		movs	r2, #50
 638 0048 5A70     		strb	r2, [r3, #1]
 639              		.loc 1 245 0
 640 004a 05E0     		b	.L52
 641              	.L51:
 242:src/hybrid_mode.c ****         hybrid_state.duty_cycle_percentage = BRAKE_REGEN_INTENSITY_PERCENTAGE;
 642              		.loc 1 242 0
 643 004c 044B     		ldr	r3, .L53+4
 644 004e 0822     		movs	r2, #8
 645 0050 1A70     		strb	r2, [r3]
 243:src/hybrid_mode.c ****     }
 646              		.loc 1 243 0
 647 0052 034B     		ldr	r3, .L53+4
 648 0054 6422     		movs	r2, #100
 649 0056 5A70     		strb	r2, [r3, #1]
 650              	.L52:
 651              		.loc 1 245 0
 652 0058 00BF     		nop
 653 005a 80BD     		pop	{r7, pc}
 654              	.L54:
 655              		.align	2
 656              	.L53:
 657 005c 00000000 		.word	car_state
 658 0060 00000000 		.word	hybrid_state
 659              		.cfi_endproc
ARM GAS  C:\Users\badea\AppData\Local\Temp\ccbZyN19.s 			page 17


 660              	.LFE72:
 661              		.size	Set_Strategy_Auto_Always_Regen, .-Set_Strategy_Auto_Always_Regen
 662              		.text
 663              	.Letext0:
 664              		.file 2 "c:\\program files (x86)\\cypress\\psoc creator\\4.4\\psoc creator\\import\\gnu\\arm\\5.4.
 665              		.file 3 "c:\\program files (x86)\\cypress\\psoc creator\\4.4\\psoc creator\\import\\gnu\\arm\\5.4.
 666              		.file 4 "./include/can_comm.h"
 667              		.file 5 "./include/hybrid_mode.h"
 668              		.file 6 "Generated_Source\\PSoC5/core_cm3.h"