ARM GAS  C:\Users\badea\AppData\Local\Temp\cchQFX2f.s 			page 1


   1              		.syntax unified
   2              		.cpu cortex-m3
   3              		.fpu softvfp
   4              		.eabi_attribute 20, 1
   5              		.eabi_attribute 21, 1
   6              		.eabi_attribute 23, 3
   7              		.eabi_attribute 24, 1
   8              		.eabi_attribute 25, 1
   9              		.eabi_attribute 26, 1
  10              		.eabi_attribute 30, 1
  11              		.eabi_attribute 34, 1
  12              		.eabi_attribute 18, 4
  13              		.thumb
  14              		.syntax unified
  15              		.file	"main.c"
  16              		.text
  17              	.Ltext0:
  18              		.cfi_sections	.debug_frame
  19              		.section	.text.init,"ax",%progbits
  20              		.align	2
  21              		.global	init
  22              		.thumb
  23              		.thumb_func
  24              		.type	init, %function
  25              	init:
  26              	.LFB64:
  27              		.file 1 "main.c"
   1:main.c        **** /*
   2:main.c        **** * File:         main.c
   3:main.c        **** * Description:  Main function for the HCM project.
   4:main.c        **** * Copyright:    2025, Catalin Badea - UPB Drive Hybrid Department
   5:main.c        **** */
   6:main.c        **** 
   7:main.c        **** // Includes
   8:main.c        **** #include <project.h>
   9:main.c        **** #include <stdio.h>
  10:main.c        **** #include <include/can_comm.h>
  11:main.c        **** #include <include/hybrid_mode.h>
  12:main.c        **** #include <include/user_input.h>
  13:main.c        **** 
  14:main.c        **** void init()
  15:main.c        **** {
  28              		.loc 1 15 0
  29              		.cfi_startproc
  30              		@ args = 0, pretend = 0, frame = 0
  31              		@ frame_needed = 0, uses_anonymous_args = 0
  32 0000 08B5     		push	{r3, lr}
  33              		.cfi_def_cfa_offset 8
  34              		.cfi_offset 3, -8
  35              		.cfi_offset 14, -4
  16:main.c        ****     CAN_Start();
  36              		.loc 1 16 0
  37 0002 FFF7FEFF 		bl	CAN_Start
  38              	.LVL0:
  17:main.c        ****     CyIntSetVector(CAN_ISR_NUMBER, ISR_CAN);
  39              		.loc 1 17 0
  40 0006 0349     		ldr	r1, .L3
ARM GAS  C:\Users\badea\AppData\Local\Temp\cchQFX2f.s 			page 2


  41 0008 1020     		movs	r0, #16
  42 000a FFF7FEFF 		bl	CyIntSetVector
  43              	.LVL1:
  18:main.c        **** 
  19:main.c        ****     CyGlobalIntEnable;
  44              		.loc 1 19 0
  45              		.syntax unified
  46              	@ 19 "main.c" 1
  47 000e 62B6     		CPSIE   i
  48              	@ 0 "" 2
  49              		.thumb
  50              		.syntax unified
  51 0010 08BD     		pop	{r3, pc}
  52              	.L4:
  53 0012 00BF     		.align	2
  54              	.L3:
  55 0014 00000000 		.word	ISR_CAN
  56              		.cfi_endproc
  57              	.LFE64:
  58              		.size	init, .-init
  59              		.section	.text.main,"ax",%progbits
  60              		.align	2
  61              		.global	main
  62              		.thumb
  63              		.thumb_func
  64              		.type	main, %function
  65              	main:
  66              	.LFB65:
  20:main.c        **** }
  21:main.c        **** 
  22:main.c        **** // main() function: program starts here
  23:main.c        **** int main()
  24:main.c        **** {
  67              		.loc 1 24 0
  68              		.cfi_startproc
  69              		@ Volatile: function does not return.
  70              		@ args = 0, pretend = 0, frame = 0
  71              		@ frame_needed = 0, uses_anonymous_args = 0
  72 0000 08B5     		push	{r3, lr}
  73              		.cfi_def_cfa_offset 8
  74              		.cfi_offset 3, -8
  75              		.cfi_offset 14, -4
  25:main.c        ****     init();
  76              		.loc 1 25 0
  77 0002 FFF7FEFF 		bl	init
  78              	.LVL2:
  79              	.L7:
  26:main.c        **** 
  27:main.c        ****     for(;;)
  28:main.c        ****     {
  29:main.c        ****         // my loop
  30:main.c        **** 
  31:main.c        ****         if (CAN_Read_From_ECU()) //can read was successfull
  80              		.loc 1 31 0
  81 0006 FFF7FEFF 		bl	CAN_Read_From_ECU
  82              	.LVL3:
  83 000a 08B1     		cbz	r0, .L6
ARM GAS  C:\Users\badea\AppData\Local\Temp\cchQFX2f.s 			page 3


  32:main.c        ****         {
  33:main.c        ****             if (car_state.engine_state) //engine is on
  84              		.loc 1 33 0
  85 000c 024B     		ldr	r3, .L9
  86 000e 1B78     		ldrb	r3, [r3]	@ zero_extendqisi2
  87              	.L6:
  34:main.c        ****             {
  35:main.c        ****                 //do smth
  36:main.c        ****             }
  37:main.c        ****             else
  38:main.c        ****             {
  39:main.c        ****                 //turn HY off
  40:main.c        ****             }
  41:main.c        ****         }
  42:main.c        **** 
  43:main.c        ****         CyDelay(50u);
  88              		.loc 1 43 0
  89 0010 3220     		movs	r0, #50
  90 0012 FFF7FEFF 		bl	CyDelay
  91              	.LVL4:
  44:main.c        ****     }
  92              		.loc 1 44 0
  93 0016 F6E7     		b	.L7
  94              	.L10:
  95              		.align	2
  96              	.L9:
  97 0018 00000000 		.word	.LANCHOR0
  98              		.cfi_endproc
  99              	.LFE65:
 100              		.size	main, .-main
 101              		.global	car_state
 102              		.global	CANisrFlag
 103              		.bss
 104              		.align	2
 105              		.set	.LANCHOR0,. + 0
 106              		.type	car_state, %object
 107              		.size	car_state, 8
 108              	car_state:
 109 0000 00000000 		.space	8
 109      00000000 
 110              		.type	CANisrFlag, %object
 111              		.size	CANisrFlag, 1
 112              	CANisrFlag:
 113 0008 00       		.space	1
 114              		.text
 115              	.Letext0:
 116              		.file 2 "c:\\program files (x86)\\cypress\\psoc creator\\4.4\\psoc creator\\import\\gnu\\arm\\5.4.
 117              		.file 3 "c:\\program files (x86)\\cypress\\psoc creator\\4.4\\psoc creator\\import\\gnu\\arm\\5.4.
 118              		.file 4 "Generated_Source\\PSoC5/cytypes.h"
 119              		.file 5 "./include/can_comm.h"
 120              		.file 6 "Generated_Source\\PSoC5/core_cm3.h"
 121              		.file 7 "Generated_Source\\PSoC5/CAN.h"
 122              		.file 8 "Generated_Source\\PSoC5/CyLib.h"