ARM GAS  C:\Users\badea\AppData\Local\Temp\ccJ3ZWhc.s 			page 1


   1              		.syntax unified
   2              		.cpu cortex-m3
   3              		.fpu softvfp
   4              		.eabi_attribute 20, 1
   5              		.eabi_attribute 21, 1
   6              		.eabi_attribute 23, 3
   7              		.eabi_attribute 24, 1
   8              		.eabi_attribute 25, 1
   9              		.eabi_attribute 26, 1
  10              		.eabi_attribute 30, 6
  11              		.eabi_attribute 34, 1
  12              		.eabi_attribute 18, 4
  13              		.thumb
  14              		.syntax unified
  15              		.file	"user_input.c"
  16              		.text
  17              	.Ltext0:
  18              		.cfi_sections	.debug_frame
  19              		.section	.text.Read_Rotary_Switch,"ax",%progbits
  20              		.align	2
  21              		.global	Read_Rotary_Switch
  22              		.thumb
  23              		.thumb_func
  24              		.type	Read_Rotary_Switch, %function
  25              	Read_Rotary_Switch:
  26              	.LFB63:
  27              		.file 1 "src\\user_input.c"
   1:src/user_input.c **** /*
   2:src/user_input.c **** * File:        user_input.c
   3:src/user_input.c **** * Description: Implements functions for reading and decoding user input from the binary selector,
   4:src/user_input.c **** *              rotary switch, and boost button. These inputs determine the hybrid strategy to be
   5:src/user_input.c **** *              applied based on driver intent. Includes bitwise decoding logic to convert
   6:src/user_input.c **** *              digital pin states into strategy indices.
   7:src/user_input.c **** */
   8:src/user_input.c **** 
   9:src/user_input.c **** #include <include/user_input.h>
  10:src/user_input.c **** 
  11:src/user_input.c **** /**************************************************************************************************
  12:src/user_input.c **** * Functions
  13:src/user_input.c **** ***************************************************************************************************
  14:src/user_input.c **** 
  15:src/user_input.c **** /*
  16:src/user_input.c ****  * Function:    Read_Rotary_Switch
  17:src/user_input.c ****  * Description: Decodes a single-active-bit selector input from a rotary switch.
  18:src/user_input.c ****  * Returns:
  19:src/user_input.c ****  *   - Strategy index in the range [0–5], where each power-of-two input maps to a unique mode.
  20:src/user_input.c ****  * Notes:
  21:src/user_input.c ****  *   - Assumes only one selector bit is active at a time.
  22:src/user_input.c ****  *   - Defaults to 0 if input does not match a known pattern.
  23:src/user_input.c ****  */
  24:src/user_input.c **** uint8_t Read_Rotary_Switch()
  25:src/user_input.c **** {
  28              		.loc 1 25 0
  29              		.cfi_startproc
  30              		@ args = 0, pretend = 0, frame = 8
  31              		@ frame_needed = 1, uses_anonymous_args = 0
  32 0000 80B5     		push	{r7, lr}
ARM GAS  C:\Users\badea\AppData\Local\Temp\ccJ3ZWhc.s 			page 2


  33              		.cfi_def_cfa_offset 8
  34              		.cfi_offset 7, -8
  35              		.cfi_offset 14, -4
  36 0002 82B0     		sub	sp, sp, #8
  37              		.cfi_def_cfa_offset 16
  38 0004 00AF     		add	r7, sp, #0
  39              		.cfi_def_cfa_register 7
  26:src/user_input.c ****     uint8_t selector_stragy;
  27:src/user_input.c ****     
  28:src/user_input.c ****     // Read each pin individually
  29:src/user_input.c ****     if (Selector_In_1_Read() == ACTIVE_LOW)
  40              		.loc 1 29 0
  41 0006 FFF7FEFF 		bl	Selector_In_1_Read
  42 000a 0346     		mov	r3, r0
  43 000c 002B     		cmp	r3, #0
  44 000e 02D1     		bne	.L2
  30:src/user_input.c ****     {
  31:src/user_input.c ****         selector_stragy = MANUAL_S;
  45              		.loc 1 31 0
  46 0010 0123     		movs	r3, #1
  47 0012 FB71     		strb	r3, [r7, #7]
  48 0014 21E0     		b	.L3
  49              	.L2:
  32:src/user_input.c ****     }
  33:src/user_input.c ****     else if (Selector_In_2_Read() == ACTIVE_LOW)
  50              		.loc 1 33 0
  51 0016 FFF7FEFF 		bl	Selector_In_2_Read
  52 001a 0346     		mov	r3, r0
  53 001c 002B     		cmp	r3, #0
  54 001e 02D1     		bne	.L4
  34:src/user_input.c ****     {
  35:src/user_input.c ****         selector_stragy = LAUNCH_S;
  55              		.loc 1 35 0
  56 0020 0223     		movs	r3, #2
  57 0022 FB71     		strb	r3, [r7, #7]
  58 0024 19E0     		b	.L3
  59              	.L4:
  36:src/user_input.c ****     }
  37:src/user_input.c ****     else if (Selector_In_3_Read() == ACTIVE_LOW)
  60              		.loc 1 37 0
  61 0026 FFF7FEFF 		bl	Selector_In_3_Read
  62 002a 0346     		mov	r3, r0
  63 002c 002B     		cmp	r3, #0
  64 002e 02D1     		bne	.L5
  38:src/user_input.c ****     {
  39:src/user_input.c ****         selector_stragy = AUTO_NOREGEN_S;
  65              		.loc 1 39 0
  66 0030 0323     		movs	r3, #3
  67 0032 FB71     		strb	r3, [r7, #7]
  68 0034 11E0     		b	.L3
  69              	.L5:
  40:src/user_input.c ****     }
  41:src/user_input.c ****     else if (Selector_In_4_Read() == ACTIVE_LOW)
  70              		.loc 1 41 0
  71 0036 FFF7FEFF 		bl	Selector_In_4_Read
  72 003a 0346     		mov	r3, r0
  73 003c 002B     		cmp	r3, #0
ARM GAS  C:\Users\badea\AppData\Local\Temp\ccJ3ZWhc.s 			page 3


  74 003e 02D1     		bne	.L6
  42:src/user_input.c ****     {
  43:src/user_input.c ****         selector_stragy = AUTO_BRAKEREGEN_S;
  75              		.loc 1 43 0
  76 0040 0423     		movs	r3, #4
  77 0042 FB71     		strb	r3, [r7, #7]
  78 0044 09E0     		b	.L3
  79              	.L6:
  44:src/user_input.c ****     }
  45:src/user_input.c ****     else if (Selector_In_5_Read() == ACTIVE_LOW)
  80              		.loc 1 45 0
  81 0046 FFF7FEFF 		bl	Selector_In_5_Read
  82 004a 0346     		mov	r3, r0
  83 004c 002B     		cmp	r3, #0
  84 004e 02D1     		bne	.L7
  46:src/user_input.c ****     {
  47:src/user_input.c ****         selector_stragy = AUTO_ALLREGEN_S;
  85              		.loc 1 47 0
  86 0050 0523     		movs	r3, #5
  87 0052 FB71     		strb	r3, [r7, #7]
  88 0054 01E0     		b	.L3
  89              	.L7:
  48:src/user_input.c ****     }
  49:src/user_input.c ****     else // No strategy selected or out of bounds
  50:src/user_input.c ****     {
  51:src/user_input.c ****         selector_stragy = FREEWHEEL_S;
  90              		.loc 1 51 0
  91 0056 0023     		movs	r3, #0
  92 0058 FB71     		strb	r3, [r7, #7]
  93              	.L3:
  52:src/user_input.c ****     }
  53:src/user_input.c **** 
  54:src/user_input.c ****     return selector_stragy;
  94              		.loc 1 54 0
  95 005a FB79     		ldrb	r3, [r7, #7]	@ zero_extendqisi2
  55:src/user_input.c **** }
  96              		.loc 1 55 0
  97 005c 1846     		mov	r0, r3
  98 005e 0837     		adds	r7, r7, #8
  99              		.cfi_def_cfa_offset 8
 100 0060 BD46     		mov	sp, r7
 101              		.cfi_def_cfa_register 13
 102              		@ sp needed
 103 0062 80BD     		pop	{r7, pc}
 104              		.cfi_endproc
 105              	.LFE63:
 106              		.size	Read_Rotary_Switch, .-Read_Rotary_Switch
 107              		.section	.text.Read_Boost_Button,"ax",%progbits
 108              		.align	2
 109              		.global	Read_Boost_Button
 110              		.thumb
 111              		.thumb_func
 112              		.type	Read_Boost_Button, %function
 113              	Read_Boost_Button:
 114              	.LFB64:
  56:src/user_input.c **** 
  57:src/user_input.c **** /*
ARM GAS  C:\Users\badea\AppData\Local\Temp\ccJ3ZWhc.s 			page 4


  58:src/user_input.c ****  * Function:    Read_Boost_Button
  59:src/user_input.c ****  * Description: Reads the state of the boost button.
  60:src/user_input.c ****  * Returns:
  61:src/user_input.c ****  *   - 1 if the boost button is pressed.
  62:src/user_input.c ****  *   - 0 otherwise.
  63:src/user_input.c ****  */
  64:src/user_input.c **** uint8_t Read_Boost_Button()
  65:src/user_input.c **** {
 115              		.loc 1 65 0
 116              		.cfi_startproc
 117              		@ args = 0, pretend = 0, frame = 8
 118              		@ frame_needed = 1, uses_anonymous_args = 0
 119 0000 80B5     		push	{r7, lr}
 120              		.cfi_def_cfa_offset 8
 121              		.cfi_offset 7, -8
 122              		.cfi_offset 14, -4
 123 0002 82B0     		sub	sp, sp, #8
 124              		.cfi_def_cfa_offset 16
 125 0004 00AF     		add	r7, sp, #0
 126              		.cfi_def_cfa_register 7
  66:src/user_input.c ****     // Read pin and invert logic due to active-low configuration
  67:src/user_input.c ****     uint8_t boost_button_state = (uint8_t)(!Boost_Button_Read());
 127              		.loc 1 67 0
 128 0006 FFF7FEFF 		bl	Boost_Button_Read
 129 000a 0346     		mov	r3, r0
 130 000c 002B     		cmp	r3, #0
 131 000e 0CBF     		ite	eq
 132 0010 0123     		moveq	r3, #1
 133 0012 0023     		movne	r3, #0
 134 0014 DBB2     		uxtb	r3, r3
 135 0016 FB71     		strb	r3, [r7, #7]
  68:src/user_input.c **** 
  69:src/user_input.c ****     return boost_button_state;
 136              		.loc 1 69 0
 137 0018 FB79     		ldrb	r3, [r7, #7]	@ zero_extendqisi2
  70:src/user_input.c **** }
 138              		.loc 1 70 0
 139 001a 1846     		mov	r0, r3
 140 001c 0837     		adds	r7, r7, #8
 141              		.cfi_def_cfa_offset 8
 142 001e BD46     		mov	sp, r7
 143              		.cfi_def_cfa_register 13
 144              		@ sp needed
 145 0020 80BD     		pop	{r7, pc}
 146              		.cfi_endproc
 147              	.LFE64:
 148              		.size	Read_Boost_Button, .-Read_Boost_Button
 149 0022 00BF     		.text
 150              	.Letext0:
 151              		.file 2 "c:\\program files (x86)\\cypress\\psoc creator\\4.4\\psoc creator\\import\\gnu\\arm\\5.4.
 152              		.file 3 "c:\\program files (x86)\\cypress\\psoc creator\\4.4\\psoc creator\\import\\gnu\\arm\\5.4.
 153              		.file 4 "Generated_Source\\PSoC5/core_cm3.h"